ARM GAS  /tmp/ccAv9wxo.s 			page 1


   1              		.cpu cortex-m4
   2              		.arch armv7e-m
   3              		.fpu fpv4-sp-d16
   4              		.eabi_attribute 27, 1
   5              		.eabi_attribute 28, 1
   6              		.eabi_attribute 20, 1
   7              		.eabi_attribute 21, 1
   8              		.eabi_attribute 23, 3
   9              		.eabi_attribute 24, 1
  10              		.eabi_attribute 25, 1
  11              		.eabi_attribute 26, 1
  12              		.eabi_attribute 30, 1
  13              		.eabi_attribute 34, 1
  14              		.eabi_attribute 18, 4
  15              		.file	"face_detector.c"
  16              		.text
  17              	.Ltext0:
  18              		.cfi_sections	.debug_frame
  19              		.file 1 "External/FaceDetector/Src/face_detector.c"
  20              		.section	.text.face_detector_reset_faces_arrays,"ax",%progbits
  21              		.align	1
  22              		.syntax unified
  23              		.thumb
  24              		.thumb_func
  26              	face_detector_reset_faces_arrays:
  27              	.LFB4:
   1:External/FaceDetector/Src/face_detector.c **** #include "face_detector.h"
   2:External/FaceDetector/Src/face_detector.c **** #include "face_detector_defs.h"
   3:External/FaceDetector/Src/face_detector.c **** #include "integral_image.h"
   4:External/FaceDetector/Src/face_detector.c **** #include <stdlib.h>
   5:External/FaceDetector/Src/face_detector.c **** 
   6:External/FaceDetector/Src/face_detector.c **** // Defines -------------------------------------------------------------------
   7:External/FaceDetector/Src/face_detector.c **** 
   8:External/FaceDetector/Src/face_detector.c **** #define MIN(a, b) \
   9:External/FaceDetector/Src/face_detector.c ****   ({ \
  10:External/FaceDetector/Src/face_detector.c ****     __typeof__(a) _a = (a); \
  11:External/FaceDetector/Src/face_detector.c ****     __typeof__(b) _b = (b); \
  12:External/FaceDetector/Src/face_detector.c ****     (_a > _b) ? _b : _a; \
  13:External/FaceDetector/Src/face_detector.c ****   })
  14:External/FaceDetector/Src/face_detector.c **** 
  15:External/FaceDetector/Src/face_detector.c **** // Static variables ----------------------------------------------------------
  16:External/FaceDetector/Src/face_detector.c **** 
  17:External/FaceDetector/Src/face_detector.c **** static face_detector_stage_handler stage_handler; 
  18:External/FaceDetector/Src/face_detector.c **** static stage *stages;
  19:External/FaceDetector/Src/face_detector.c **** static uint8_t current_stages_amount;
  20:External/FaceDetector/Src/face_detector.c **** static float scales[FACE_DETECTOR_SCALES_ARRAY_SIZE];
  21:External/FaceDetector/Src/face_detector.c **** static uint8_t scales_amount;
  22:External/FaceDetector/Src/face_detector.c **** 
  23:External/FaceDetector/Src/face_detector.c **** static area faces_areas[FACE_DETECTOR_MAX_FACE_AREAS];
  24:External/FaceDetector/Src/face_detector.c **** static uint8_t faces_amount;
  25:External/FaceDetector/Src/face_detector.c **** static area result_faces[FACE_DETECTOR_MAX_FACE_AREAS];
  26:External/FaceDetector/Src/face_detector.c **** static uint8_t result_faces_amount;
  27:External/FaceDetector/Src/face_detector.c **** 
  28:External/FaceDetector/Src/face_detector.c **** // Static prototypes ---------------------------------------------------------
  29:External/FaceDetector/Src/face_detector.c **** 
  30:External/FaceDetector/Src/face_detector.c **** static void face_detector_reset_faces_arrays(void);
  31:External/FaceDetector/Src/face_detector.c **** static float *face_detector_calculate_scales(
ARM GAS  /tmp/ccAv9wxo.s 			page 2


  32:External/FaceDetector/Src/face_detector.c ****   float base_scale,
  33:External/FaceDetector/Src/face_detector.c ****   float scale_increment,
  34:External/FaceDetector/Src/face_detector.c ****   const uint8_t image_size_x,
  35:External/FaceDetector/Src/face_detector.c ****   const uint8_t image_size_y
  36:External/FaceDetector/Src/face_detector.c **** );
  37:External/FaceDetector/Src/face_detector.c **** // static void face_detector_calculate_scaled_features(void);
  38:External/FaceDetector/Src/face_detector.c **** static void face_detector_detect_faces(
  39:External/FaceDetector/Src/face_detector.c ****   const face_detector_arguments *const arguments
  40:External/FaceDetector/Src/face_detector.c **** );
  41:External/FaceDetector/Src/face_detector.c **** __attribute__((always_inline))
  42:External/FaceDetector/Src/face_detector.c **** inline static void face_detector_detect_face_window(
  43:External/FaceDetector/Src/face_detector.c ****   const lbp_feature_arguments *const feature_arguments,
  44:External/FaceDetector/Src/face_detector.c ****   uint8_t feature_size
  45:External/FaceDetector/Src/face_detector.c **** );
  46:External/FaceDetector/Src/face_detector.c **** static void face_detector_merge_faces_areas(uint8_t min_neighbours);
  47:External/FaceDetector/Src/face_detector.c **** static void face_detector_calculate_indexes_of_neighbours(
  48:External/FaceDetector/Src/face_detector.c ****   uint8_t *const similar_areas_indexes
  49:External/FaceDetector/Src/face_detector.c **** );
  50:External/FaceDetector/Src/face_detector.c **** static void face_detector_merge_neighbours(
  51:External/FaceDetector/Src/face_detector.c ****   uint8_t *const similar_areas_indexes,
  52:External/FaceDetector/Src/face_detector.c ****   uint8_t min_neighbours
  53:External/FaceDetector/Src/face_detector.c **** );
  54:External/FaceDetector/Src/face_detector.c **** __attribute__((always_inline))
  55:External/FaceDetector/Src/face_detector.c **** inline static area face_detector_combine_neighbours(
  56:External/FaceDetector/Src/face_detector.c ****   const uint8_t *const indexes,
  57:External/FaceDetector/Src/face_detector.c ****   const uint8_t amount
  58:External/FaceDetector/Src/face_detector.c **** );
  59:External/FaceDetector/Src/face_detector.c **** 
  60:External/FaceDetector/Src/face_detector.c **** // Implementations -----------------------------------------------------------
  61:External/FaceDetector/Src/face_detector.c **** 
  62:External/FaceDetector/Src/face_detector.c **** void face_detector_create(
  63:External/FaceDetector/Src/face_detector.c ****   uint8_t *const binary_classifiers_source,
  64:External/FaceDetector/Src/face_detector.c ****   const uint8_t stages_amount,
  65:External/FaceDetector/Src/face_detector.c ****   face_detector_stage_handler handler
  66:External/FaceDetector/Src/face_detector.c **** )
  67:External/FaceDetector/Src/face_detector.c **** {
  68:External/FaceDetector/Src/face_detector.c ****   stage_handler = handler;
  69:External/FaceDetector/Src/face_detector.c ****   current_stages_amount = stages_amount;
  70:External/FaceDetector/Src/face_detector.c **** 
  71:External/FaceDetector/Src/face_detector.c ****   stages = stage_handler.create_stage_from_source(
  72:External/FaceDetector/Src/face_detector.c ****     binary_classifiers_source,
  73:External/FaceDetector/Src/face_detector.c ****     stages_amount
  74:External/FaceDetector/Src/face_detector.c ****   );
  75:External/FaceDetector/Src/face_detector.c **** }
  76:External/FaceDetector/Src/face_detector.c **** 
  77:External/FaceDetector/Src/face_detector.c **** void face_detector_destroy()
  78:External/FaceDetector/Src/face_detector.c **** {
  79:External/FaceDetector/Src/face_detector.c ****   stage_handler = (face_detector_stage_handler) { 0 };
  80:External/FaceDetector/Src/face_detector.c ****   face_detector_reset_faces_arrays();
  81:External/FaceDetector/Src/face_detector.c **** 
  82:External/FaceDetector/Src/face_detector.c ****   scales_amount = 0;
  83:External/FaceDetector/Src/face_detector.c ****   scales_amount = 0;
  84:External/FaceDetector/Src/face_detector.c ****   current_stages_amount = 0;
  85:External/FaceDetector/Src/face_detector.c **** }
  86:External/FaceDetector/Src/face_detector.c **** 
  87:External/FaceDetector/Src/face_detector.c **** void face_detector_detect(
  88:External/FaceDetector/Src/face_detector.c ****   const face_detector_arguments *const arguments
ARM GAS  /tmp/ccAv9wxo.s 			page 3


  89:External/FaceDetector/Src/face_detector.c **** )
  90:External/FaceDetector/Src/face_detector.c **** {
  91:External/FaceDetector/Src/face_detector.c ****   face_detector_reset_faces_arrays();
  92:External/FaceDetector/Src/face_detector.c **** 
  93:External/FaceDetector/Src/face_detector.c ****   face_detector_calculate_scales(
  94:External/FaceDetector/Src/face_detector.c ****     arguments->base_scale,
  95:External/FaceDetector/Src/face_detector.c ****     arguments->scale_increment,
  96:External/FaceDetector/Src/face_detector.c ****     arguments->image_size_x,
  97:External/FaceDetector/Src/face_detector.c ****     arguments->image_size_y
  98:External/FaceDetector/Src/face_detector.c ****   );
  99:External/FaceDetector/Src/face_detector.c **** 
 100:External/FaceDetector/Src/face_detector.c ****   face_detector_detect_faces(arguments);
 101:External/FaceDetector/Src/face_detector.c ****   face_detector_merge_faces_areas(arguments->min_neighbours);
 102:External/FaceDetector/Src/face_detector.c **** 
 103:External/FaceDetector/Src/face_detector.c ****   scales_amount = 0;
 104:External/FaceDetector/Src/face_detector.c ****   //integral_image_destroy();
 105:External/FaceDetector/Src/face_detector.c **** }
 106:External/FaceDetector/Src/face_detector.c **** 
 107:External/FaceDetector/Src/face_detector.c **** static void face_detector_reset_faces_arrays()
 108:External/FaceDetector/Src/face_detector.c **** {
  28              		.loc 1 108 1 view -0
  29              		.cfi_startproc
  30              		@ args = 0, pretend = 0, frame = 0
  31              		@ frame_needed = 0, uses_anonymous_args = 0
  32              		@ link register save eliminated.
 109:External/FaceDetector/Src/face_detector.c ****   faces_amount = 0;
  33              		.loc 1 109 3 view .LVU1
  34              		.loc 1 109 16 is_stmt 0 view .LVU2
  35 0000 0023     		movs	r3, #0
  36 0002 024A     		ldr	r2, .L2
  37 0004 1370     		strb	r3, [r2]
 110:External/FaceDetector/Src/face_detector.c ****   result_faces_amount = 0;
  38              		.loc 1 110 3 is_stmt 1 view .LVU3
  39              		.loc 1 110 23 is_stmt 0 view .LVU4
  40 0006 024A     		ldr	r2, .L2+4
  41 0008 1370     		strb	r3, [r2]
 111:External/FaceDetector/Src/face_detector.c **** }
  42              		.loc 1 111 1 view .LVU5
  43 000a 7047     		bx	lr
  44              	.L3:
  45              		.align	2
  46              	.L2:
  47 000c 00000000 		.word	faces_amount
  48 0010 00000000 		.word	result_faces_amount
  49              		.cfi_endproc
  50              	.LFE4:
  52              		.section	.text.face_detector_calculate_scales,"ax",%progbits
  53              		.align	1
  54              		.syntax unified
  55              		.thumb
  56              		.thumb_func
  58              	face_detector_calculate_scales:
  59              	.LVL0:
  60              	.LFB5:
 112:External/FaceDetector/Src/face_detector.c **** 
 113:External/FaceDetector/Src/face_detector.c **** static float *face_detector_calculate_scales(
 114:External/FaceDetector/Src/face_detector.c ****   float base_scale,
ARM GAS  /tmp/ccAv9wxo.s 			page 4


 115:External/FaceDetector/Src/face_detector.c ****   float scale_increment,
 116:External/FaceDetector/Src/face_detector.c ****   const uint8_t image_size_x,
 117:External/FaceDetector/Src/face_detector.c ****   const uint8_t image_size_y
 118:External/FaceDetector/Src/face_detector.c **** )
 119:External/FaceDetector/Src/face_detector.c **** {
  61              		.loc 1 119 1 is_stmt 1 view -0
  62              		.cfi_startproc
  63              		@ args = 0, pretend = 0, frame = 0
  64              		@ frame_needed = 0, uses_anonymous_args = 0
  65              		@ link register save eliminated.
 120:External/FaceDetector/Src/face_detector.c ****   uint8_t min_image_side = MIN(image_size_x, image_size_y);
  66              		.loc 1 120 3 view .LVU7
  67              	.LBB19:
  68              		.loc 1 120 28 view .LVU8
  69              		.loc 1 120 28 view .LVU9
  70              		.loc 1 120 28 view .LVU10
  71 0000 8842     		cmp	r0, r1
  72 0002 28BF     		it	cs
  73 0004 0846     		movcs	r0, r1
  74              	.LVL1:
  75              		.loc 1 120 28 is_stmt 0 view .LVU11
  76              	.LBE19:
 121:External/FaceDetector/Src/face_detector.c ****   float max_scale = (float)MIN(min_image_side, FACE_DETECTOR_MAX_WINDOW_SIZE) /
  77              		.loc 1 121 3 is_stmt 1 view .LVU12
  78              	.LBB20:
  79              		.loc 1 121 28 view .LVU13
  80              		.loc 1 121 28 view .LVU14
  81              		.loc 1 121 28 view .LVU15
  82 0006 6028     		cmp	r0, #96
  83 0008 A8BF     		it	ge
  84 000a 6020     		movge	r0, #96
  85              	.LVL2:
  86              		.loc 1 121 28 is_stmt 0 view .LVU16
  87              	.LBE20:
  88              		.loc 1 121 21 view .LVU17
  89 000c 07EE900A 		vmov	s15, r0	@ int
  90 0010 B8EEE77A 		vcvt.f32.s32	s14, s15
  91              		.loc 1 121 9 view .LVU18
  92 0014 DFED136A 		vldr.32	s13, .L8
  93 0018 C7EE267A 		vdiv.f32	s15, s14, s13
  94              	.LVL3:
 122:External/FaceDetector/Src/face_detector.c ****     FACE_DETECTOR_FEATURE_SIZE;
 123:External/FaceDetector/Src/face_detector.c ****   float current_scale = base_scale;
  95              		.loc 1 123 3 is_stmt 1 view .LVU19
 124:External/FaceDetector/Src/face_detector.c ****   scales_amount = 0;
  96              		.loc 1 124 3 view .LVU20
  97              		.loc 1 124 17 is_stmt 0 view .LVU21
  98 001c 124B     		ldr	r3, .L8+4
  99 001e 0022     		movs	r2, #0
 100 0020 1A70     		strb	r2, [r3]
 125:External/FaceDetector/Src/face_detector.c **** 
 126:External/FaceDetector/Src/face_detector.c ****   while (scales_amount < UINT8_MAX - 1)
 101              		.loc 1 126 3 is_stmt 1 view .LVU22
 102              	.LVL4:
 103              	.L5:
 104              		.loc 1 126 24 view .LVU23
 105 0022 114B     		ldr	r3, .L8+4
ARM GAS  /tmp/ccAv9wxo.s 			page 5


 106 0024 1B78     		ldrb	r3, [r3]	@ zero_extendqisi2
 107 0026 FD2B     		cmp	r3, #253
 108 0028 11D8     		bhi	.L6
 127:External/FaceDetector/Src/face_detector.c ****   {
 128:External/FaceDetector/Src/face_detector.c ****     scales[scales_amount] = current_scale;
 109              		.loc 1 128 5 view .LVU24
 110              		.loc 1 128 27 is_stmt 0 view .LVU25
 111 002a 104A     		ldr	r2, .L8+8
 112 002c 02EB8302 		add	r2, r2, r3, lsl #2
 113 0030 82ED000A 		vstr.32	s0, [r2]
 129:External/FaceDetector/Src/face_detector.c ****     current_scale *= scale_increment;
 114              		.loc 1 129 5 is_stmt 1 view .LVU26
 115              		.loc 1 129 19 is_stmt 0 view .LVU27
 116 0034 20EE200A 		vmul.f32	s0, s0, s1
 117              	.LVL5:
 130:External/FaceDetector/Src/face_detector.c **** 
 131:External/FaceDetector/Src/face_detector.c ****     if (current_scale >= max_scale)
 118              		.loc 1 131 5 is_stmt 1 view .LVU28
 119              		.loc 1 131 8 is_stmt 0 view .LVU29
 120 0038 F4EEC07A 		vcmpe.f32	s15, s0
 121 003c F1EE10FA 		vmrs	APSR_nzcv, FPSCR
 122 0040 05D9     		bls	.L6
 132:External/FaceDetector/Src/face_detector.c ****       break;
 133:External/FaceDetector/Src/face_detector.c ****     scales_amount++;
 123              		.loc 1 133 5 is_stmt 1 view .LVU30
 124              		.loc 1 133 18 is_stmt 0 view .LVU31
 125 0042 0133     		adds	r3, r3, #1
 126 0044 DBB2     		uxtb	r3, r3
 127 0046 084A     		ldr	r2, .L8+4
 128 0048 1370     		strb	r3, [r2]
 134:External/FaceDetector/Src/face_detector.c ****   
 135:External/FaceDetector/Src/face_detector.c ****     if (scales_amount >= FACE_DETECTOR_SCALES_ARRAY_SIZE - 1)
 129              		.loc 1 135 5 is_stmt 1 view .LVU32
 130              		.loc 1 135 8 is_stmt 0 view .LVU33
 131 004a 262B     		cmp	r3, #38
 132 004c E9D9     		bls	.L5
 133              	.L6:
 136:External/FaceDetector/Src/face_detector.c ****       break;
 137:External/FaceDetector/Src/face_detector.c ****   }
 138:External/FaceDetector/Src/face_detector.c ****   scales[scales_amount++] = max_scale;
 134              		.loc 1 138 3 is_stmt 1 view .LVU34
 135              		.loc 1 138 23 is_stmt 0 view .LVU35
 136 004e 064A     		ldr	r2, .L8+4
 137 0050 1378     		ldrb	r3, [r2]	@ zero_extendqisi2
 138 0052 591C     		adds	r1, r3, #1
 139              	.LVL6:
 140              		.loc 1 138 23 view .LVU36
 141 0054 1170     		strb	r1, [r2]
 142              		.loc 1 138 27 view .LVU37
 143 0056 0548     		ldr	r0, .L8+8
 144 0058 00EB8303 		add	r3, r0, r3, lsl #2
 145 005c C3ED007A 		vstr.32	s15, [r3]
 139:External/FaceDetector/Src/face_detector.c **** 
 140:External/FaceDetector/Src/face_detector.c ****   return scales;
 146              		.loc 1 140 3 is_stmt 1 view .LVU38
 141:External/FaceDetector/Src/face_detector.c **** }
 147              		.loc 1 141 1 is_stmt 0 view .LVU39
ARM GAS  /tmp/ccAv9wxo.s 			page 6


 148 0060 7047     		bx	lr
 149              	.L9:
 150 0062 00BF     		.align	2
 151              	.L8:
 152 0064 00003442 		.word	1110704128
 153 0068 00000000 		.word	scales_amount
 154 006c 00000000 		.word	scales
 155              		.cfi_endproc
 156              	.LFE5:
 158              		.section	.text.face_detector_detect_faces,"ax",%progbits
 159              		.align	1
 160              		.syntax unified
 161              		.thumb
 162              		.thumb_func
 164              	face_detector_detect_faces:
 165              	.LVL7:
 166              	.LFB6:
 142:External/FaceDetector/Src/face_detector.c **** 
 143:External/FaceDetector/Src/face_detector.c **** static void face_detector_detect_faces(
 144:External/FaceDetector/Src/face_detector.c ****   const face_detector_arguments *const arguments
 145:External/FaceDetector/Src/face_detector.c **** )
 146:External/FaceDetector/Src/face_detector.c **** {
 167              		.loc 1 146 1 is_stmt 1 view -0
 168              		.cfi_startproc
 169              		@ args = 0, pretend = 0, frame = 16
 170              		@ frame_needed = 0, uses_anonymous_args = 0
 171              		.loc 1 146 1 is_stmt 0 view .LVU41
 172 0000 2DE9F041 		push	{r4, r5, r6, r7, r8, lr}
 173              	.LCFI0:
 174              		.cfi_def_cfa_offset 24
 175              		.cfi_offset 4, -24
 176              		.cfi_offset 5, -20
 177              		.cfi_offset 6, -16
 178              		.cfi_offset 7, -12
 179              		.cfi_offset 8, -8
 180              		.cfi_offset 14, -4
 181 0004 84B0     		sub	sp, sp, #16
 182              	.LCFI1:
 183              		.cfi_def_cfa_offset 40
 184 0006 0646     		mov	r6, r0
 147:External/FaceDetector/Src/face_detector.c ****   lbp_feature_arguments feature_arguments = { 0 };
 185              		.loc 1 147 3 is_stmt 1 view .LVU42
 186              		.loc 1 147 25 is_stmt 0 view .LVU43
 187 0008 0023     		movs	r3, #0
 188 000a 0293     		str	r3, [sp, #8]
 189 000c 0393     		str	r3, [sp, #12]
 148:External/FaceDetector/Src/face_detector.c **** 
 149:External/FaceDetector/Src/face_detector.c ****   for (uint8_t scale_index = 0; scale_index < scales_amount; scale_index++)
 190              		.loc 1 149 3 is_stmt 1 view .LVU44
 191              	.LBB21:
 192              		.loc 1 149 8 view .LVU45
 193              	.LVL8:
 194              		.loc 1 149 16 is_stmt 0 view .LVU46
 195 000e 9846     		mov	r8, r3
 196              		.loc 1 149 3 view .LVU47
 197 0010 43E0     		b	.L11
 198              	.LVL9:
ARM GAS  /tmp/ccAv9wxo.s 			page 7


 199              	.L22:
 200              	.LBB22:
 201              	.LBB23:
 202              	.LBB24:
 203              	.LBB25:
 150:External/FaceDetector/Src/face_detector.c ****   {
 151:External/FaceDetector/Src/face_detector.c ****     uint8_t feature_size = scales[scale_index] * FACE_DETECTOR_FEATURE_SIZE;
 152:External/FaceDetector/Src/face_detector.c ****     uint8_t step = feature_size * arguments->position_increment;
 153:External/FaceDetector/Src/face_detector.c ****     feature_arguments.scale = scales[scale_index];
 154:External/FaceDetector/Src/face_detector.c **** 
 155:External/FaceDetector/Src/face_detector.c ****     for (
 156:External/FaceDetector/Src/face_detector.c ****       feature_arguments.offset_x = 0;
 157:External/FaceDetector/Src/face_detector.c ****       feature_arguments.offset_x < 
 158:External/FaceDetector/Src/face_detector.c ****         arguments->image_size_x - feature_size + 1;
 159:External/FaceDetector/Src/face_detector.c ****       feature_arguments.offset_x += step
 160:External/FaceDetector/Src/face_detector.c ****     )
 161:External/FaceDetector/Src/face_detector.c ****     {
 162:External/FaceDetector/Src/face_detector.c ****       for (
 163:External/FaceDetector/Src/face_detector.c ****         feature_arguments.offset_y = 0;
 164:External/FaceDetector/Src/face_detector.c ****         feature_arguments.offset_y < 
 165:External/FaceDetector/Src/face_detector.c ****           arguments->image_size_y - feature_size + 1;
 166:External/FaceDetector/Src/face_detector.c ****         feature_arguments.offset_y += step
 167:External/FaceDetector/Src/face_detector.c ****       )
 168:External/FaceDetector/Src/face_detector.c ****       {
 169:External/FaceDetector/Src/face_detector.c ****         face_detector_detect_face_window(&feature_arguments, feature_size);
 170:External/FaceDetector/Src/face_detector.c **** 
 171:External/FaceDetector/Src/face_detector.c ****         __asm("nop");
 172:External/FaceDetector/Src/face_detector.c ****       }
 173:External/FaceDetector/Src/face_detector.c ****     }
 174:External/FaceDetector/Src/face_detector.c ****   }
 175:External/FaceDetector/Src/face_detector.c **** }
 176:External/FaceDetector/Src/face_detector.c **** 
 177:External/FaceDetector/Src/face_detector.c **** __attribute__((always_inline))
 178:External/FaceDetector/Src/face_detector.c **** inline static void face_detector_detect_face_window(
 179:External/FaceDetector/Src/face_detector.c ****   const lbp_feature_arguments *const feature_arguments,
 180:External/FaceDetector/Src/face_detector.c ****   uint8_t feature_size
 181:External/FaceDetector/Src/face_detector.c **** )
 182:External/FaceDetector/Src/face_detector.c **** {
 183:External/FaceDetector/Src/face_detector.c ****   for (
 184:External/FaceDetector/Src/face_detector.c ****     uint8_t stage_index = 0;
 185:External/FaceDetector/Src/face_detector.c ****     stage_index < current_stages_amount;
 186:External/FaceDetector/Src/face_detector.c ****     stage_index++
 204              		.loc 1 186 16 is_stmt 1 view .LVU48
 205 0012 0134     		adds	r4, r4, #1
 206              	.LVL10:
 207              		.loc 1 186 16 is_stmt 0 view .LVU49
 208 0014 E4B2     		uxtb	r4, r4
 209              	.LVL11:
 210              	.L16:
 185:External/FaceDetector/Src/face_detector.c ****     stage_index++
 211              		.loc 1 185 17 is_stmt 1 view .LVU50
 212 0016 364B     		ldr	r3, .L26
 213 0018 1B78     		ldrb	r3, [r3]	@ zero_extendqisi2
 214 001a A342     		cmp	r3, r4
 215 001c 17D9     		bls	.L21
 187:External/FaceDetector/Src/face_detector.c ****   )
 188:External/FaceDetector/Src/face_detector.c ****   {
ARM GAS  /tmp/ccAv9wxo.s 			page 8


 189:External/FaceDetector/Src/face_detector.c ****     if (
 216              		.loc 1 189 5 view .LVU51
 190:External/FaceDetector/Src/face_detector.c ****       !stage_handler.calculate_prediction(
 217              		.loc 1 190 21 is_stmt 0 view .LVU52
 218 001e 354B     		ldr	r3, .L26+4
 219 0020 5B68     		ldr	r3, [r3, #4]
 220              		.loc 1 190 8 view .LVU53
 221 0022 354A     		ldr	r2, .L26+8
 222 0024 1068     		ldr	r0, [r2]
 223 0026 02A9     		add	r1, sp, #8
 224 0028 00EBC400 		add	r0, r0, r4, lsl #3
 225 002c 9847     		blx	r3
 226              	.LVL12:
 189:External/FaceDetector/Src/face_detector.c ****       !stage_handler.calculate_prediction(
 227              		.loc 1 189 8 view .LVU54
 228 002e 0028     		cmp	r0, #0
 229 0030 EFD1     		bne	.L22
 230              	.LVL13:
 231              	.L14:
 189:External/FaceDetector/Src/face_detector.c ****       !stage_handler.calculate_prediction(
 232              		.loc 1 189 8 view .LVU55
 233              	.LBE25:
 234              	.LBE24:
 235              	.LBE23:
 171:External/FaceDetector/Src/face_detector.c ****       }
 236              		.loc 1 171 9 is_stmt 1 view .LVU56
 237              		.syntax unified
 238              	@ 171 "External/FaceDetector/Src/face_detector.c" 1
 239 0032 00BF     		nop
 240              	@ 0 "" 2
 166:External/FaceDetector/Src/face_detector.c ****       )
 241              		.loc 1 166 36 view .LVU57
 166:External/FaceDetector/Src/face_detector.c ****       )
 242              		.loc 1 166 26 is_stmt 0 view .LVU58
 243              		.thumb
 244              		.syntax unified
 245 0034 9DF80930 		ldrb	r3, [sp, #9]	@ zero_extendqisi2
 166:External/FaceDetector/Src/face_detector.c ****       )
 246              		.loc 1 166 36 view .LVU59
 247 0038 3B44     		add	r3, r3, r7
 248 003a 8DF80930 		strb	r3, [sp, #9]
 249              	.L13:
 164:External/FaceDetector/Src/face_detector.c ****           arguments->image_size_y - feature_size + 1;
 250              		.loc 1 164 36 is_stmt 1 view .LVU60
 165:External/FaceDetector/Src/face_detector.c ****         feature_arguments.offset_y += step
 251              		.loc 1 165 20 is_stmt 0 view .LVU61
 252 003e 7378     		ldrb	r3, [r6, #1]	@ zero_extendqisi2
 165:External/FaceDetector/Src/face_detector.c ****         feature_arguments.offset_y += step
 253              		.loc 1 165 35 view .LVU62
 254 0040 5B1B     		subs	r3, r3, r5
 164:External/FaceDetector/Src/face_detector.c ****           arguments->image_size_y - feature_size + 1;
 255              		.loc 1 164 26 view .LVU63
 256 0042 9DF80920 		ldrb	r2, [sp, #9]	@ zero_extendqisi2
 164:External/FaceDetector/Src/face_detector.c ****           arguments->image_size_y - feature_size + 1;
 257              		.loc 1 164 36 view .LVU64
 258 0046 9342     		cmp	r3, r2
 259 0048 14DB     		blt	.L23
ARM GAS  /tmp/ccAv9wxo.s 			page 9


 260              	.LBB28:
 261              	.LBB27:
 262              	.LBB26:
 184:External/FaceDetector/Src/face_detector.c ****     stage_index < current_stages_amount;
 263              		.loc 1 184 13 view .LVU65
 264 004a 0024     		movs	r4, #0
 265 004c E3E7     		b	.L16
 266              	.LVL14:
 267              	.L21:
 184:External/FaceDetector/Src/face_detector.c ****     stage_index < current_stages_amount;
 268              		.loc 1 184 13 view .LVU66
 269              	.LBE26:
 191:External/FaceDetector/Src/face_detector.c ****         &stages[stage_index],
 192:External/FaceDetector/Src/face_detector.c ****         feature_arguments
 193:External/FaceDetector/Src/face_detector.c ****       )
 194:External/FaceDetector/Src/face_detector.c ****     ) {
 195:External/FaceDetector/Src/face_detector.c ****       return;
 196:External/FaceDetector/Src/face_detector.c ****     }
 197:External/FaceDetector/Src/face_detector.c ****   }
 198:External/FaceDetector/Src/face_detector.c **** 
 199:External/FaceDetector/Src/face_detector.c ****   if (faces_amount >= FACE_DETECTOR_MAX_FACE_AREAS)
 270              		.loc 1 199 3 is_stmt 1 view .LVU67
 271              		.loc 1 199 20 is_stmt 0 view .LVU68
 272 004e 2B4B     		ldr	r3, .L26+12
 273 0050 1B78     		ldrb	r3, [r3]	@ zero_extendqisi2
 274              		.loc 1 199 6 view .LVU69
 275 0052 272B     		cmp	r3, #39
 276 0054 EDD8     		bhi	.L14
 200:External/FaceDetector/Src/face_detector.c ****     return;
 201:External/FaceDetector/Src/face_detector.c **** 
 202:External/FaceDetector/Src/face_detector.c ****   faces_areas[faces_amount++] = (area) {
 277              		.loc 1 202 3 is_stmt 1 view .LVU70
 278              		.loc 1 202 27 is_stmt 0 view .LVU71
 279 0056 591C     		adds	r1, r3, #1
 280 0058 284A     		ldr	r2, .L26+12
 281 005a 1170     		strb	r1, [r2]
 203:External/FaceDetector/Src/face_detector.c ****     .x = feature_arguments->offset_x,
 282              		.loc 1 203 27 view .LVU72
 283 005c 9DF80840 		ldrb	r4, [sp, #8]	@ zero_extendqisi2
 284              	.LVL15:
 204:External/FaceDetector/Src/face_detector.c ****     .y = feature_arguments->offset_y,
 285              		.loc 1 204 27 view .LVU73
 286 0060 9DF80900 		ldrb	r0, [sp, #9]	@ zero_extendqisi2
 202:External/FaceDetector/Src/face_detector.c ****     .x = feature_arguments->offset_x,
 287              		.loc 1 202 31 view .LVU74
 288 0064 2649     		ldr	r1, .L26+16
 289 0066 03EB4303 		add	r3, r3, r3, lsl #1
 290 006a CA18     		adds	r2, r1, r3
 291 006c CC54     		strb	r4, [r1, r3]
 292 006e 5070     		strb	r0, [r2, #1]
 293 0070 9570     		strb	r5, [r2, #2]
 294 0072 DEE7     		b	.L14
 295              	.LVL16:
 296              	.L23:
 202:External/FaceDetector/Src/face_detector.c ****     .x = feature_arguments->offset_x,
 297              		.loc 1 202 31 view .LVU75
 298              	.LBE27:
ARM GAS  /tmp/ccAv9wxo.s 			page 10


 299              	.LBE28:
 159:External/FaceDetector/Src/face_detector.c ****     )
 300              		.loc 1 159 34 is_stmt 1 view .LVU76
 159:External/FaceDetector/Src/face_detector.c ****     )
 301              		.loc 1 159 24 is_stmt 0 view .LVU77
 302 0074 9DF80830 		ldrb	r3, [sp, #8]	@ zero_extendqisi2
 159:External/FaceDetector/Src/face_detector.c ****     )
 303              		.loc 1 159 34 view .LVU78
 304 0078 3B44     		add	r3, r3, r7
 305 007a 8DF80830 		strb	r3, [sp, #8]
 306              	.L12:
 157:External/FaceDetector/Src/face_detector.c ****         arguments->image_size_x - feature_size + 1;
 307              		.loc 1 157 34 is_stmt 1 view .LVU79
 158:External/FaceDetector/Src/face_detector.c ****       feature_arguments.offset_x += step
 308              		.loc 1 158 18 is_stmt 0 view .LVU80
 309 007e 3378     		ldrb	r3, [r6]	@ zero_extendqisi2
 158:External/FaceDetector/Src/face_detector.c ****       feature_arguments.offset_x += step
 310              		.loc 1 158 33 view .LVU81
 311 0080 5B1B     		subs	r3, r3, r5
 157:External/FaceDetector/Src/face_detector.c ****         arguments->image_size_x - feature_size + 1;
 312              		.loc 1 157 24 view .LVU82
 313 0082 9DF80820 		ldrb	r2, [sp, #8]	@ zero_extendqisi2
 157:External/FaceDetector/Src/face_detector.c ****         arguments->image_size_x - feature_size + 1;
 314              		.loc 1 157 34 view .LVU83
 315 0086 9342     		cmp	r3, r2
 316 0088 03DB     		blt	.L24
 162:External/FaceDetector/Src/face_detector.c ****         feature_arguments.offset_y = 0;
 317              		.loc 1 162 7 is_stmt 1 view .LVU84
 163:External/FaceDetector/Src/face_detector.c ****         feature_arguments.offset_y < 
 318              		.loc 1 163 36 is_stmt 0 view .LVU85
 319 008a 0023     		movs	r3, #0
 320 008c 8DF80930 		strb	r3, [sp, #9]
 162:External/FaceDetector/Src/face_detector.c ****         feature_arguments.offset_y = 0;
 321              		.loc 1 162 7 view .LVU86
 322 0090 D5E7     		b	.L13
 323              	.L24:
 324              	.LBE22:
 149:External/FaceDetector/Src/face_detector.c ****   {
 325              		.loc 1 149 73 is_stmt 1 discriminator 2 view .LVU87
 326 0092 08F10108 		add	r8, r8, #1
 327              	.LVL17:
 149:External/FaceDetector/Src/face_detector.c ****   {
 328              		.loc 1 149 73 is_stmt 0 discriminator 2 view .LVU88
 329 0096 5FFA88F8 		uxtb	r8, r8
 330              	.LVL18:
 331              	.L11:
 149:External/FaceDetector/Src/face_detector.c ****   {
 332              		.loc 1 149 45 is_stmt 1 discriminator 1 view .LVU89
 333 009a 1A4B     		ldr	r3, .L26+20
 334 009c 1B78     		ldrb	r3, [r3]	@ zero_extendqisi2
 335 009e 4345     		cmp	r3, r8
 336 00a0 22D9     		bls	.L25
 337              	.LBB29:
 151:External/FaceDetector/Src/face_detector.c ****     uint8_t step = feature_size * arguments->position_increment;
 338              		.loc 1 151 5 view .LVU90
 151:External/FaceDetector/Src/face_detector.c ****     uint8_t step = feature_size * arguments->position_increment;
 339              		.loc 1 151 34 is_stmt 0 view .LVU91
ARM GAS  /tmp/ccAv9wxo.s 			page 11


 340 00a2 194B     		ldr	r3, .L26+24
 341 00a4 03EB8803 		add	r3, r3, r8, lsl #2
 342 00a8 93ED007A 		vldr.32	s14, [r3]
 151:External/FaceDetector/Src/face_detector.c ****     uint8_t step = feature_size * arguments->position_increment;
 343              		.loc 1 151 48 view .LVU92
 344 00ac DFED177A 		vldr.32	s15, .L26+28
 345 00b0 67EE277A 		vmul.f32	s15, s14, s15
 151:External/FaceDetector/Src/face_detector.c ****     uint8_t step = feature_size * arguments->position_increment;
 346              		.loc 1 151 13 view .LVU93
 347 00b4 FCEEE77A 		vcvt.u32.f32	s15, s15
 348 00b8 CDED017A 		vstr.32	s15, [sp, #4]	@ int
 349 00bc 9DF80450 		ldrb	r5, [sp, #4]	@ zero_extendqisi2
 350              	.LVL19:
 152:External/FaceDetector/Src/face_detector.c ****     feature_arguments.scale = scales[scale_index];
 351              		.loc 1 152 5 is_stmt 1 view .LVU94
 152:External/FaceDetector/Src/face_detector.c ****     feature_arguments.scale = scales[scale_index];
 352              		.loc 1 152 44 is_stmt 0 view .LVU95
 353 00c0 D6ED036A 		vldr.32	s13, [r6, #12]
 152:External/FaceDetector/Src/face_detector.c ****     feature_arguments.scale = scales[scale_index];
 354              		.loc 1 152 33 view .LVU96
 355 00c4 07EE905A 		vmov	s15, r5	@ int
 356 00c8 F8EEE77A 		vcvt.f32.s32	s15, s15
 357 00cc 67EEA67A 		vmul.f32	s15, s15, s13
 152:External/FaceDetector/Src/face_detector.c ****     feature_arguments.scale = scales[scale_index];
 358              		.loc 1 152 13 view .LVU97
 359 00d0 FCEEE77A 		vcvt.u32.f32	s15, s15
 360 00d4 CDED017A 		vstr.32	s15, [sp, #4]	@ int
 361 00d8 9DF80470 		ldrb	r7, [sp, #4]	@ zero_extendqisi2
 362              	.LVL20:
 153:External/FaceDetector/Src/face_detector.c **** 
 363              		.loc 1 153 5 is_stmt 1 view .LVU98
 153:External/FaceDetector/Src/face_detector.c **** 
 364              		.loc 1 153 29 is_stmt 0 view .LVU99
 365 00dc 8DED037A 		vstr.32	s14, [sp, #12]
 155:External/FaceDetector/Src/face_detector.c ****       feature_arguments.offset_x = 0;
 366              		.loc 1 155 5 is_stmt 1 view .LVU100
 156:External/FaceDetector/Src/face_detector.c ****       feature_arguments.offset_x < 
 367              		.loc 1 156 34 is_stmt 0 view .LVU101
 368 00e0 0023     		movs	r3, #0
 369 00e2 8DF80830 		strb	r3, [sp, #8]
 155:External/FaceDetector/Src/face_detector.c ****       feature_arguments.offset_x = 0;
 370              		.loc 1 155 5 view .LVU102
 371 00e6 CAE7     		b	.L12
 372              	.LVL21:
 373              	.L25:
 155:External/FaceDetector/Src/face_detector.c ****       feature_arguments.offset_x = 0;
 374              		.loc 1 155 5 view .LVU103
 375              	.LBE29:
 376              	.LBE21:
 175:External/FaceDetector/Src/face_detector.c **** 
 377              		.loc 1 175 1 view .LVU104
 378 00e8 04B0     		add	sp, sp, #16
 379              	.LCFI2:
 380              		.cfi_def_cfa_offset 24
 381              		@ sp needed
 382 00ea BDE8F081 		pop	{r4, r5, r6, r7, r8, pc}
 383              	.LVL22:
ARM GAS  /tmp/ccAv9wxo.s 			page 12


 384              	.L27:
 175:External/FaceDetector/Src/face_detector.c **** 
 385              		.loc 1 175 1 view .LVU105
 386 00ee 00BF     		.align	2
 387              	.L26:
 388 00f0 00000000 		.word	current_stages_amount
 389 00f4 00000000 		.word	stage_handler
 390 00f8 00000000 		.word	stages
 391 00fc 00000000 		.word	faces_amount
 392 0100 00000000 		.word	faces_areas
 393 0104 00000000 		.word	scales_amount
 394 0108 00000000 		.word	scales
 395 010c 00003442 		.word	1110704128
 396              		.cfi_endproc
 397              	.LFE6:
 399              		.section	.text.face_detector_calculate_indexes_of_neighbours,"ax",%progbits
 400              		.align	1
 401              		.syntax unified
 402              		.thumb
 403              		.thumb_func
 405              	face_detector_calculate_indexes_of_neighbours:
 406              	.LVL23:
 407              	.LFB9:
 205:External/FaceDetector/Src/face_detector.c ****     .size = feature_size
 206:External/FaceDetector/Src/face_detector.c ****   };
 207:External/FaceDetector/Src/face_detector.c **** }
 208:External/FaceDetector/Src/face_detector.c **** 
 209:External/FaceDetector/Src/face_detector.c **** static void face_detector_merge_faces_areas(uint8_t min_neighbours)
 210:External/FaceDetector/Src/face_detector.c **** {
 211:External/FaceDetector/Src/face_detector.c ****   uint8_t similar_areas_indexes[FACE_DETECTOR_MAX_FACE_AREAS];
 212:External/FaceDetector/Src/face_detector.c ****   
 213:External/FaceDetector/Src/face_detector.c ****   face_detector_calculate_indexes_of_neighbours(
 214:External/FaceDetector/Src/face_detector.c ****     similar_areas_indexes
 215:External/FaceDetector/Src/face_detector.c ****   );
 216:External/FaceDetector/Src/face_detector.c ****   face_detector_merge_neighbours(
 217:External/FaceDetector/Src/face_detector.c ****     similar_areas_indexes,
 218:External/FaceDetector/Src/face_detector.c ****     min_neighbours
 219:External/FaceDetector/Src/face_detector.c ****   );
 220:External/FaceDetector/Src/face_detector.c **** }
 221:External/FaceDetector/Src/face_detector.c **** 
 222:External/FaceDetector/Src/face_detector.c **** static void face_detector_calculate_indexes_of_neighbours(
 223:External/FaceDetector/Src/face_detector.c ****   uint8_t *const similar_areas_indexes
 224:External/FaceDetector/Src/face_detector.c **** )
 225:External/FaceDetector/Src/face_detector.c **** {
 408              		.loc 1 225 1 is_stmt 1 view -0
 409              		.cfi_startproc
 410              		@ args = 0, pretend = 0, frame = 0
 411              		@ frame_needed = 0, uses_anonymous_args = 0
 412              		.loc 1 225 1 is_stmt 0 view .LVU107
 413 0000 2DE9F043 		push	{r4, r5, r6, r7, r8, r9, lr}
 414              	.LCFI3:
 415              		.cfi_def_cfa_offset 28
 416              		.cfi_offset 4, -28
 417              		.cfi_offset 5, -24
 418              		.cfi_offset 6, -20
 419              		.cfi_offset 7, -16
 420              		.cfi_offset 8, -12
ARM GAS  /tmp/ccAv9wxo.s 			page 13


 421              		.cfi_offset 9, -8
 422              		.cfi_offset 14, -4
 423 0004 8046     		mov	r8, r0
 226:External/FaceDetector/Src/face_detector.c ****   uint8_t number_of_similar_areas = 0;
 424              		.loc 1 226 3 is_stmt 1 view .LVU108
 425              	.LVL24:
 227:External/FaceDetector/Src/face_detector.c **** 
 228:External/FaceDetector/Src/face_detector.c ****   for (
 426              		.loc 1 228 3 view .LVU109
 427              	.LBB30:
 229:External/FaceDetector/Src/face_detector.c ****     uint8_t area_index = 0;
 428              		.loc 1 229 5 view .LVU110
 429              		.loc 1 229 13 is_stmt 0 view .LVU111
 430 0006 0024     		movs	r4, #0
 431              	.LBE30:
 226:External/FaceDetector/Src/face_detector.c ****   uint8_t number_of_similar_areas = 0;
 432              		.loc 1 226 11 view .LVU112
 433 0008 A146     		mov	r9, r4
 434              	.LBB37:
 228:External/FaceDetector/Src/face_detector.c ****     uint8_t area_index = 0;
 435              		.loc 1 228 3 view .LVU113
 436 000a 56E0     		b	.L29
 437              	.LVL25:
 438              	.L32:
 439              	.LBB31:
 440              	.LBB32:
 230:External/FaceDetector/Src/face_detector.c ****     area_index < faces_amount;
 231:External/FaceDetector/Src/face_detector.c ****     area_index++
 232:External/FaceDetector/Src/face_detector.c ****   )
 233:External/FaceDetector/Src/face_detector.c ****   {
 234:External/FaceDetector/Src/face_detector.c ****     bool found = false;
 235:External/FaceDetector/Src/face_detector.c **** 
 236:External/FaceDetector/Src/face_detector.c ****     for (
 237:External/FaceDetector/Src/face_detector.c ****       uint8_t comparable_read_index = 0;
 238:External/FaceDetector/Src/face_detector.c ****       comparable_read_index < area_index;
 239:External/FaceDetector/Src/face_detector.c ****       comparable_read_index++
 441              		.loc 1 239 28 is_stmt 1 view .LVU114
 442 000c 0EF1010E 		add	lr, lr, #1
 443              	.LVL26:
 444              		.loc 1 239 28 is_stmt 0 view .LVU115
 445 0010 5FFA8EFE 		uxtb	lr, lr
 446              	.LVL27:
 447              	.L35:
 238:External/FaceDetector/Src/face_detector.c ****       comparable_read_index++
 448              		.loc 1 238 29 is_stmt 1 view .LVU116
 449 0014 7445     		cmp	r4, lr
 450 0016 57D9     		bls	.L38
 240:External/FaceDetector/Src/face_detector.c ****     )
 241:External/FaceDetector/Src/face_detector.c ****     {
 242:External/FaceDetector/Src/face_detector.c ****       if (
 451              		.loc 1 242 7 view .LVU117
 452              	.LVL28:
 453              	.LBB33:
 454              	.LBI33:
 455              		.file 2 "External/Area/Inc/area.h"
   1:External/Area/Inc/area.h **** #ifndef AREA_H
   2:External/Area/Inc/area.h **** #define AREA_H
ARM GAS  /tmp/ccAv9wxo.s 			page 14


   3:External/Area/Inc/area.h **** 
   4:External/Area/Inc/area.h **** #include <stdint.h>
   5:External/Area/Inc/area.h **** #include <stdbool.h>
   6:External/Area/Inc/area.h **** #include <stdlib.h>
   7:External/Area/Inc/area.h **** 
   8:External/Area/Inc/area.h **** typedef struct
   9:External/Area/Inc/area.h **** {
  10:External/Area/Inc/area.h **** 	uint8_t x;
  11:External/Area/Inc/area.h **** 	uint8_t y;
  12:External/Area/Inc/area.h ****   uint8_t size;
  13:External/Area/Inc/area.h **** } area;
  14:External/Area/Inc/area.h **** 
  15:External/Area/Inc/area.h **** __attribute__((always_inline))
  16:External/Area/Inc/area.h **** inline static bool area_is_similar(
 456              		.loc 2 16 20 view .LVU118
 457              	.LBB34:
  17:External/Area/Inc/area.h ****   const area *const first_area,
  18:External/Area/Inc/area.h ****   const area *const second_area
  19:External/Area/Inc/area.h **** )
  20:External/Area/Inc/area.h **** {
  21:External/Area/Inc/area.h ****   int16_t threshold = first_area->size * 0.2f;
 458              		.loc 2 21 3 view .LVU119
 459              		.loc 2 21 33 is_stmt 0 view .LVU120
 460 0018 304A     		ldr	r2, .L40
 461 001a 0EEB4E03 		add	r3, lr, lr, lsl #1
 462 001e D718     		adds	r7, r2, r3
 463 0020 B878     		ldrb	r0, [r7, #2]	@ zero_extendqisi2
 464              		.loc 2 21 40 view .LVU121
 465 0022 07EE900A 		vmov	s15, r0	@ int
 466 0026 F8EEE77A 		vcvt.f32.s32	s15, s15
 467 002a 9FED2D7A 		vldr.32	s14, .L40+4
 468 002e 67EE877A 		vmul.f32	s15, s15, s14
 469              		.loc 2 21 11 view .LVU122
 470 0032 FDEEE77A 		vcvt.s32.f32	s15, s15
 471 0036 17EE901A 		vmov	r1, s15	@ int
 472 003a 09B2     		sxth	r1, r1
 473              	.LVL29:
  22:External/Area/Inc/area.h **** 
  23:External/Area/Inc/area.h ****   int16_t delta_x = first_area->x - second_area->x;
 474              		.loc 2 23 3 is_stmt 1 view .LVU123
 475              		.loc 2 23 31 is_stmt 0 view .LVU124
 476 003c D35C     		ldrb	r3, [r2, r3]	@ zero_extendqisi2
 477              		.loc 2 23 48 view .LVU125
 478 003e 04EB4405 		add	r5, r4, r4, lsl #1
 479 0042 5619     		adds	r6, r2, r5
 480 0044 525D     		ldrb	r2, [r2, r5]	@ zero_extendqisi2
 481              		.loc 2 23 35 view .LVU126
 482 0046 9B1A     		subs	r3, r3, r2
 483              		.loc 2 23 11 view .LVU127
 484 0048 1D46     		mov	r5, r3
 485              	.LVL30:
  24:External/Area/Inc/area.h ****   int16_t delta_y = first_area->y - second_area->y;
 486              		.loc 2 24 3 is_stmt 1 view .LVU128
 487              		.loc 2 24 31 is_stmt 0 view .LVU129
 488 004a 7A78     		ldrb	r2, [r7, #1]	@ zero_extendqisi2
 489              		.loc 2 24 48 view .LVU130
 490 004c 7778     		ldrb	r7, [r6, #1]	@ zero_extendqisi2
ARM GAS  /tmp/ccAv9wxo.s 			page 15


 491              		.loc 2 24 35 view .LVU131
 492 004e D21B     		subs	r2, r2, r7
 493              		.loc 2 24 11 view .LVU132
 494 0050 1746     		mov	r7, r2
 495              	.LVL31:
  25:External/Area/Inc/area.h ****   int16_t delta_size = second_area->size - first_area->size;
 496              		.loc 2 25 3 is_stmt 1 view .LVU133
 497              		.loc 2 25 35 is_stmt 0 view .LVU134
 498 0052 96F802C0 		ldrb	ip, [r6, #2]	@ zero_extendqisi2
 499              		.loc 2 25 11 view .LVU135
 500 0056 ACEB0006 		sub	r6, ip, r0
 501              	.LVL32:
  26:External/Area/Inc/area.h ****   int16_t delta_size_x = second_area->size - (delta_x + first_area->size);
 502              		.loc 2 26 3 is_stmt 1 view .LVU136
 503              		.loc 2 26 55 is_stmt 0 view .LVU137
 504 005a 10FA83F3 		uxtah	r3, r0, r3
 505              	.LVL33:
 506              		.loc 2 26 55 view .LVU138
 507 005e 9BB2     		uxth	r3, r3
 508              		.loc 2 26 44 view .LVU139
 509 0060 ACEB0303 		sub	r3, ip, r3
 510              		.loc 2 26 11 view .LVU140
 511 0064 1BB2     		sxth	r3, r3
 512              	.LVL34:
  27:External/Area/Inc/area.h ****   int16_t delta_size_y = second_area->size - (delta_y + first_area->size);
 513              		.loc 2 27 3 is_stmt 1 view .LVU141
 514              		.loc 2 27 55 is_stmt 0 view .LVU142
 515 0066 10FA82F2 		uxtah	r2, r0, r2
 516              	.LVL35:
 517              		.loc 2 27 55 view .LVU143
 518 006a 92B2     		uxth	r2, r2
 519              		.loc 2 27 44 view .LVU144
 520 006c ACEB020C 		sub	ip, ip, r2
 521              		.loc 2 27 11 view .LVU145
 522 0070 0FFA8CFC 		sxth	ip, ip
 523              	.LVL36:
  28:External/Area/Inc/area.h **** 
  29:External/Area/Inc/area.h ****   // Similar in position and size
  30:External/Area/Inc/area.h ****   if (abs(delta_x) <= threshold && abs(delta_y) <= threshold &&
 524              		.loc 2 30 3 is_stmt 1 view .LVU146
 525              		.loc 2 30 7 is_stmt 0 view .LVU147
 526 0074 85EAE572 		eor	r2, r5, r5, asr #31
 527 0078 A2EBE572 		sub	r2, r2, r5, asr #31
 528 007c 92B2     		uxth	r2, r2
 529              		.loc 2 30 6 view .LVU148
 530 007e 8A42     		cmp	r2, r1
 531 0080 0CDC     		bgt	.L30
 532              		.loc 2 30 36 discriminator 1 view .LVU149
 533 0082 87EAE772 		eor	r2, r7, r7, asr #31
 534 0086 A2EBE772 		sub	r2, r2, r7, asr #31
 535 008a 92B2     		uxth	r2, r2
 536              		.loc 2 30 33 discriminator 1 view .LVU150
 537 008c 9142     		cmp	r1, r2
 538 008e 05DB     		blt	.L30
  31:External/Area/Inc/area.h ****     abs(delta_size) <= threshold)
 539              		.loc 2 31 5 view .LVU151
 540 0090 002E     		cmp	r6, #0
ARM GAS  /tmp/ccAv9wxo.s 			page 16


 541 0092 B8BF     		it	lt
 542 0094 7642     		rsblt	r6, r6, #0
 543              	.LVL37:
 544              		.loc 2 31 5 view .LVU152
 545 0096 B6B2     		uxth	r6, r6
  30:External/Area/Inc/area.h ****     abs(delta_size) <= threshold)
 546              		.loc 2 30 62 discriminator 2 view .LVU153
 547 0098 B142     		cmp	r1, r6
 548 009a 08DA     		bge	.L31
 549              	.L30:
  32:External/Area/Inc/area.h ****     return true;
  33:External/Area/Inc/area.h **** 
  34:External/Area/Inc/area.h ****   // The second area includes the first
  35:External/Area/Inc/area.h ****   if (delta_x >= 0 && delta_y >= 0 && delta_size_x >= 0 && delta_size_y >= 0)
 550              		.loc 2 35 3 is_stmt 1 view .LVU154
 551              		.loc 2 35 6 is_stmt 0 view .LVU155
 552 009c 002D     		cmp	r5, #0
 553 009e B5DB     		blt	.L32
 554              		.loc 2 35 20 discriminator 1 view .LVU156
 555 00a0 002F     		cmp	r7, #0
 556 00a2 B3DB     		blt	.L32
 557              		.loc 2 35 36 discriminator 2 view .LVU157
 558 00a4 002B     		cmp	r3, #0
 559 00a6 B1DB     		blt	.L32
 560              		.loc 2 35 57 discriminator 3 view .LVU158
 561 00a8 BCF1000F 		cmp	ip, #0
 562 00ac AEDB     		blt	.L32
 563              	.L31:
 564              	.LVL38:
 565              		.loc 2 35 57 discriminator 3 view .LVU159
 566              	.LBE34:
 567              	.LBE33:
 243:External/FaceDetector/Src/face_detector.c ****         area_is_similar(
 244:External/FaceDetector/Src/face_detector.c ****           &faces_areas[comparable_read_index],
 245:External/FaceDetector/Src/face_detector.c ****           &faces_areas[area_index]
 246:External/FaceDetector/Src/face_detector.c ****         )
 247:External/FaceDetector/Src/face_detector.c ****       )
 248:External/FaceDetector/Src/face_detector.c ****       {
 249:External/FaceDetector/Src/face_detector.c ****         found = true;
 568              		.loc 1 249 9 is_stmt 1 view .LVU160
 250:External/FaceDetector/Src/face_detector.c ****         similar_areas_indexes[area_index] =
 569              		.loc 1 250 9 view .LVU161
 251:External/FaceDetector/Src/face_detector.c ****           similar_areas_indexes[comparable_read_index];
 570              		.loc 1 251 32 is_stmt 0 view .LVU162
 571 00ae 18F80E30 		ldrb	r3, [r8, lr]	@ zero_extendqisi2
 250:External/FaceDetector/Src/face_detector.c ****         similar_areas_indexes[area_index] =
 572              		.loc 1 250 43 view .LVU163
 573 00b2 08F80430 		strb	r3, [r8, r4]
 252:External/FaceDetector/Src/face_detector.c ****         break;
 574              		.loc 1 252 9 is_stmt 1 view .LVU164
 575              		.loc 1 252 9 is_stmt 0 view .LVU165
 576              	.LBE32:
 253:External/FaceDetector/Src/face_detector.c ****       }
 254:External/FaceDetector/Src/face_detector.c ****     }
 255:External/FaceDetector/Src/face_detector.c **** 
 256:External/FaceDetector/Src/face_detector.c ****     if (!found)
 577              		.loc 1 256 5 is_stmt 1 view .LVU166
ARM GAS  /tmp/ccAv9wxo.s 			page 17


 578              	.LVL39:
 579              	.L33:
 580              		.loc 1 256 5 is_stmt 0 view .LVU167
 581              	.LBE31:
 231:External/FaceDetector/Src/face_detector.c ****   )
 582              		.loc 1 231 15 is_stmt 1 view .LVU168
 583 00b6 0134     		adds	r4, r4, #1
 584              	.LVL40:
 231:External/FaceDetector/Src/face_detector.c ****   )
 585              		.loc 1 231 15 is_stmt 0 view .LVU169
 586 00b8 E4B2     		uxtb	r4, r4
 587              	.LVL41:
 588              	.L29:
 230:External/FaceDetector/Src/face_detector.c ****     area_index++
 589              		.loc 1 230 16 is_stmt 1 view .LVU170
 590 00ba 0A4B     		ldr	r3, .L40+8
 591 00bc 1B78     		ldrb	r3, [r3]	@ zero_extendqisi2
 592 00be A342     		cmp	r3, r4
 593 00c0 09D9     		bls	.L39
 594              	.LBB36:
 595              	.LBB35:
 237:External/FaceDetector/Src/face_detector.c ****       comparable_read_index < area_index;
 596              		.loc 1 237 15 is_stmt 0 view .LVU171
 597 00c2 4FF0000E 		mov	lr, #0
 598 00c6 A5E7     		b	.L35
 599              	.LVL42:
 600              	.L38:
 237:External/FaceDetector/Src/face_detector.c ****       comparable_read_index < area_index;
 601              		.loc 1 237 15 view .LVU172
 602              	.LBE35:
 603              		.loc 1 256 5 is_stmt 1 view .LVU173
 257:External/FaceDetector/Src/face_detector.c ****       similar_areas_indexes[area_index] = number_of_similar_areas++;
 604              		.loc 1 257 7 view .LVU174
 605              		.loc 1 257 66 is_stmt 0 view .LVU175
 606 00c8 09F10103 		add	r3, r9, #1
 607              	.LVL43:
 608              		.loc 1 257 41 view .LVU176
 609 00cc 08F80490 		strb	r9, [r8, r4]
 610              		.loc 1 257 66 view .LVU177
 611 00d0 5FFA83F9 		uxtb	r9, r3
 612 00d4 EFE7     		b	.L33
 613              	.LVL44:
 614              	.L39:
 615              		.loc 1 257 66 view .LVU178
 616              	.LBE36:
 617              	.LBE37:
 258:External/FaceDetector/Src/face_detector.c ****   }
 259:External/FaceDetector/Src/face_detector.c **** }
 618              		.loc 1 259 1 view .LVU179
 619 00d6 BDE8F083 		pop	{r4, r5, r6, r7, r8, r9, pc}
 620              	.LVL45:
 621              	.L41:
 622              		.loc 1 259 1 view .LVU180
 623 00da 00BF     		.align	2
 624              	.L40:
 625 00dc 00000000 		.word	faces_areas
 626 00e0 CDCC4C3E 		.word	1045220557
ARM GAS  /tmp/ccAv9wxo.s 			page 18


 627 00e4 00000000 		.word	faces_amount
 628              		.cfi_endproc
 629              	.LFE9:
 631              		.section	.text.face_detector_merge_neighbours,"ax",%progbits
 632              		.align	1
 633              		.syntax unified
 634              		.thumb
 635              		.thumb_func
 637              	face_detector_merge_neighbours:
 638              	.LVL46:
 639              	.LFB10:
 260:External/FaceDetector/Src/face_detector.c **** 
 261:External/FaceDetector/Src/face_detector.c **** static void face_detector_merge_neighbours(
 262:External/FaceDetector/Src/face_detector.c ****   uint8_t *const similar_areas_indexes,
 263:External/FaceDetector/Src/face_detector.c ****   uint8_t min_neighbours
 264:External/FaceDetector/Src/face_detector.c **** )
 265:External/FaceDetector/Src/face_detector.c **** {
 640              		.loc 1 265 1 is_stmt 1 view -0
 641              		.cfi_startproc
 642              		@ args = 0, pretend = 0, frame = 56
 643              		@ frame_needed = 0, uses_anonymous_args = 0
 644              		.loc 1 265 1 is_stmt 0 view .LVU182
 645 0000 2DE9F043 		push	{r4, r5, r6, r7, r8, r9, lr}
 646              	.LCFI4:
 647              		.cfi_def_cfa_offset 28
 648              		.cfi_offset 4, -28
 649              		.cfi_offset 5, -24
 650              		.cfi_offset 6, -20
 651              		.cfi_offset 7, -16
 652              		.cfi_offset 8, -12
 653              		.cfi_offset 9, -8
 654              		.cfi_offset 14, -4
 655 0004 8FB0     		sub	sp, sp, #60
 656              	.LCFI5:
 657              		.cfi_def_cfa_offset 88
 658 0006 0C46     		mov	r4, r1
 266:External/FaceDetector/Src/face_detector.c ****   uint8_t neighbours_group_indexes[FACE_DETECTOR_MAX_FACE_AREAS];
 659              		.loc 1 266 3 is_stmt 1 view .LVU183
 267:External/FaceDetector/Src/face_detector.c **** 
 268:External/FaceDetector/Src/face_detector.c ****   for (
 660              		.loc 1 268 3 view .LVU184
 661              	.LBB38:
 269:External/FaceDetector/Src/face_detector.c ****     uint8_t area_index = 0;
 662              		.loc 1 269 5 view .LVU185
 663              	.LVL47:
 664              		.loc 1 269 13 is_stmt 0 view .LVU186
 665 0008 4FF0000E 		mov	lr, #0
 268:External/FaceDetector/Src/face_detector.c ****     uint8_t area_index = 0;
 666              		.loc 1 268 3 view .LVU187
 667 000c 15E0     		b	.L43
 668              	.LVL48:
 669              	.L44:
 670              	.LBB39:
 671              	.LBB40:
 270:External/FaceDetector/Src/face_detector.c ****     area_index < faces_amount;
 271:External/FaceDetector/Src/face_detector.c ****     area_index++
 272:External/FaceDetector/Src/face_detector.c ****   )
ARM GAS  /tmp/ccAv9wxo.s 			page 19


 273:External/FaceDetector/Src/face_detector.c ****   {
 274:External/FaceDetector/Src/face_detector.c ****     uint8_t neighbours_in_group_amount = 0;
 275:External/FaceDetector/Src/face_detector.c ****     
 276:External/FaceDetector/Src/face_detector.c ****     for (
 277:External/FaceDetector/Src/face_detector.c ****       int8_t comparable_area_index = 0;
 278:External/FaceDetector/Src/face_detector.c ****       comparable_area_index < faces_amount;
 279:External/FaceDetector/Src/face_detector.c ****       comparable_area_index++
 672              		.loc 1 279 28 is_stmt 1 view .LVU188
 673 000e 0133     		adds	r3, r3, #1
 674              	.LVL49:
 675              		.loc 1 279 28 is_stmt 0 view .LVU189
 676 0010 5BB2     		sxtb	r3, r3
 677              	.LVL50:
 678              	.L49:
 278:External/FaceDetector/Src/face_detector.c ****       comparable_area_index++
 679              		.loc 1 278 29 is_stmt 1 view .LVU190
 680 0012 8B42     		cmp	r3, r1
 681 0014 0ADA     		bge	.L52
 280:External/FaceDetector/Src/face_detector.c ****     )
 281:External/FaceDetector/Src/face_detector.c ****     {
 282:External/FaceDetector/Src/face_detector.c ****       if (similar_areas_indexes[comparable_area_index] == area_index)
 682              		.loc 1 282 7 view .LVU191
 683              		.loc 1 282 32 is_stmt 0 view .LVU192
 684 0016 10F803C0 		ldrb	ip, [r0, r3]	@ zero_extendqisi2
 685              		.loc 1 282 10 view .LVU193
 686 001a F445     		cmp	ip, lr
 687 001c F7D1     		bne	.L44
 283:External/FaceDetector/Src/face_detector.c ****       {
 284:External/FaceDetector/Src/face_detector.c ****         neighbours_group_indexes[neighbours_in_group_amount++] =
 688              		.loc 1 284 9 is_stmt 1 view .LVU194
 689              		.loc 1 284 60 is_stmt 0 view .LVU195
 690 001e 551C     		adds	r5, r2, #1
 691              	.LVL51:
 692              		.loc 1 284 64 view .LVU196
 693 0020 3832     		adds	r2, r2, #56
 694 0022 6A44     		add	r2, sp, r2
 695 0024 02F8303C 		strb	r3, [r2, #-48]
 696              		.loc 1 284 60 view .LVU197
 697 0028 EAB2     		uxtb	r2, r5
 698 002a F0E7     		b	.L44
 699              	.LVL52:
 700              	.L52:
 701              		.loc 1 284 60 view .LVU198
 702              	.LBE40:
 285:External/FaceDetector/Src/face_detector.c ****           comparable_area_index;
 286:External/FaceDetector/Src/face_detector.c ****       }
 287:External/FaceDetector/Src/face_detector.c ****     }
 288:External/FaceDetector/Src/face_detector.c **** 
 289:External/FaceDetector/Src/face_detector.c ****     if (neighbours_in_group_amount < min_neighbours)
 703              		.loc 1 289 5 is_stmt 1 view .LVU199
 704              		.loc 1 289 8 is_stmt 0 view .LVU200
 705 002c A242     		cmp	r2, r4
 706 002e 00D3     		bcc	.L46
 290:External/FaceDetector/Src/face_detector.c ****       continue;
 291:External/FaceDetector/Src/face_detector.c ****     if (neighbours_in_group_amount == 0)
 707              		.loc 1 291 5 is_stmt 1 view .LVU201
 708              		.loc 1 291 8 is_stmt 0 view .LVU202
ARM GAS  /tmp/ccAv9wxo.s 			page 20


 709 0030 52B9     		cbnz	r2, .L53
 710              	.LVL53:
 711              	.L46:
 712              		.loc 1 291 8 view .LVU203
 713              	.LBE39:
 271:External/FaceDetector/Src/face_detector.c ****   )
 714              		.loc 1 271 15 is_stmt 1 view .LVU204
 715 0032 0EF1010E 		add	lr, lr, #1
 716              	.LVL54:
 271:External/FaceDetector/Src/face_detector.c ****   )
 717              		.loc 1 271 15 is_stmt 0 view .LVU205
 718 0036 5FFA8EFE 		uxtb	lr, lr
 719              	.LVL55:
 720              	.L43:
 270:External/FaceDetector/Src/face_detector.c ****     area_index++
 721              		.loc 1 270 16 is_stmt 1 view .LVU206
 722 003a 2A4B     		ldr	r3, .L55
 723 003c 1978     		ldrb	r1, [r3]	@ zero_extendqisi2
 724 003e 7145     		cmp	r1, lr
 725 0040 4DD9     		bls	.L54
 726              	.LBB47:
 727              	.LBB41:
 277:External/FaceDetector/Src/face_detector.c ****       comparable_area_index < faces_amount;
 728              		.loc 1 277 14 is_stmt 0 view .LVU207
 729 0042 0023     		movs	r3, #0
 730              	.LBE41:
 274:External/FaceDetector/Src/face_detector.c ****     
 731              		.loc 1 274 13 view .LVU208
 732 0044 1A46     		mov	r2, r3
 733 0046 E4E7     		b	.L49
 734              	.LVL56:
 735              	.L53:
 292:External/FaceDetector/Src/face_detector.c ****       continue;
 293:External/FaceDetector/Src/face_detector.c **** 
 294:External/FaceDetector/Src/face_detector.c ****     result_faces[result_faces_amount++] = face_detector_combine_neighbours(
 736              		.loc 1 294 5 is_stmt 1 view .LVU209
 737              		.loc 1 294 37 is_stmt 0 view .LVU210
 738 0048 274B     		ldr	r3, .L55+4
 739              	.LVL57:
 740              		.loc 1 294 37 view .LVU211
 741 004a 1E78     		ldrb	r6, [r3]	@ zero_extendqisi2
 742 004c 711C     		adds	r1, r6, #1
 743 004e 1970     		strb	r1, [r3]
 744              	.LVL58:
 745              	.LBB42:
 746              	.LBI42:
 295:External/FaceDetector/Src/face_detector.c ****       neighbours_group_indexes,
 296:External/FaceDetector/Src/face_detector.c ****       neighbours_in_group_amount
 297:External/FaceDetector/Src/face_detector.c ****     );
 298:External/FaceDetector/Src/face_detector.c ****   }
 299:External/FaceDetector/Src/face_detector.c **** }
 300:External/FaceDetector/Src/face_detector.c **** 
 301:External/FaceDetector/Src/face_detector.c **** __attribute__((always_inline))
 302:External/FaceDetector/Src/face_detector.c **** inline static area face_detector_combine_neighbours(
 747              		.loc 1 302 20 is_stmt 1 view .LVU212
 748              	.LBB43:
 303:External/FaceDetector/Src/face_detector.c ****   const uint8_t *const indexes,
ARM GAS  /tmp/ccAv9wxo.s 			page 21


 304:External/FaceDetector/Src/face_detector.c ****   const uint8_t amount
 305:External/FaceDetector/Src/face_detector.c **** )
 306:External/FaceDetector/Src/face_detector.c **** {
 307:External/FaceDetector/Src/face_detector.c ****   uint16_t result_x = 0;
 749              		.loc 1 307 3 view .LVU213
 308:External/FaceDetector/Src/face_detector.c ****   uint16_t result_y = 0;
 750              		.loc 1 308 3 view .LVU214
 309:External/FaceDetector/Src/face_detector.c ****   uint16_t result_size = 0;
 751              		.loc 1 309 3 view .LVU215
 310:External/FaceDetector/Src/face_detector.c **** 
 311:External/FaceDetector/Src/face_detector.c ****   for (uint8_t i = 0; i < amount; i++)
 752              		.loc 1 311 3 view .LVU216
 753              	.LBB44:
 754              		.loc 1 311 8 view .LVU217
 755              		.loc 1 311 16 is_stmt 0 view .LVU218
 756 0050 0023     		movs	r3, #0
 757              	.LBE44:
 309:External/FaceDetector/Src/face_detector.c ****   uint16_t result_size = 0;
 758              		.loc 1 309 12 view .LVU219
 759 0052 1946     		mov	r1, r3
 308:External/FaceDetector/Src/face_detector.c ****   uint16_t result_size = 0;
 760              		.loc 1 308 12 view .LVU220
 761 0054 1F46     		mov	r7, r3
 307:External/FaceDetector/Src/face_detector.c ****   uint16_t result_y = 0;
 762              		.loc 1 307 12 view .LVU221
 763 0056 1D46     		mov	r5, r3
 764              	.LBB46:
 765              		.loc 1 311 3 view .LVU222
 766 0058 22E0     		b	.L47
 767              	.LVL59:
 768              	.L48:
 769              	.LBB45:
 312:External/FaceDetector/Src/face_detector.c ****   {
 313:External/FaceDetector/Src/face_detector.c ****     area current_area = faces_areas[indexes[i]];
 770              		.loc 1 313 5 is_stmt 1 view .LVU223
 771              		.loc 1 313 44 is_stmt 0 view .LVU224
 772 005a 03F1380C 		add	ip, r3, #56
 773 005e EC44     		add	ip, sp, ip
 774 0060 1CF830CC 		ldrb	ip, [ip, #-48]	@ zero_extendqisi2
 775              		.loc 1 313 10 view .LVU225
 776 0064 DFF88880 		ldr	r8, .L55+12
 777 0068 0CEB4C0C 		add	ip, ip, ip, lsl #1
 778 006c 08EB0C09 		add	r9, r8, ip
 779 0070 38F80C80 		ldrh	r8, [r8, ip]	@ unaligned
 780 0074 99F802C0 		ldrb	ip, [r9, #2]	@ zero_extendqisi2
 781 0078 ADF80480 		strh	r8, [sp, #4]	@ unaligned
 782 007c 8DF806C0 		strb	ip, [sp, #6]
 314:External/FaceDetector/Src/face_detector.c **** 
 315:External/FaceDetector/Src/face_detector.c ****     result_x += current_area.x;
 783              		.loc 1 315 5 is_stmt 1 view .LVU226
 784              		.loc 1 315 29 is_stmt 0 view .LVU227
 785 0080 9DF804C0 		ldrb	ip, [sp, #4]	@ zero_extendqisi2
 786              		.loc 1 315 14 view .LVU228
 787 0084 6544     		add	r5, r5, ip
 788              	.LVL60:
 789              		.loc 1 315 14 view .LVU229
 790 0086 ADB2     		uxth	r5, r5
ARM GAS  /tmp/ccAv9wxo.s 			page 22


 791              	.LVL61:
 316:External/FaceDetector/Src/face_detector.c ****     result_y += current_area.y;
 792              		.loc 1 316 5 is_stmt 1 view .LVU230
 793              		.loc 1 316 29 is_stmt 0 view .LVU231
 794 0088 9DF805C0 		ldrb	ip, [sp, #5]	@ zero_extendqisi2
 795              		.loc 1 316 14 view .LVU232
 796 008c BC44     		add	ip, ip, r7
 797 008e 1FFA8CF7 		uxth	r7, ip
 798              	.LVL62:
 317:External/FaceDetector/Src/face_detector.c ****     result_size += current_area.size;
 799              		.loc 1 317 5 is_stmt 1 view .LVU233
 800              		.loc 1 317 32 is_stmt 0 view .LVU234
 801 0092 9DF806C0 		ldrb	ip, [sp, #6]	@ zero_extendqisi2
 802              		.loc 1 317 17 view .LVU235
 803 0096 8C44     		add	ip, ip, r1
 804 0098 1FFA8CF1 		uxth	r1, ip
 805              	.LVL63:
 806              		.loc 1 317 17 view .LVU236
 807              	.LBE45:
 311:External/FaceDetector/Src/face_detector.c ****   {
 808              		.loc 1 311 36 is_stmt 1 discriminator 3 view .LVU237
 809 009c 0133     		adds	r3, r3, #1
 810              	.LVL64:
 311:External/FaceDetector/Src/face_detector.c ****   {
 811              		.loc 1 311 36 is_stmt 0 discriminator 3 view .LVU238
 812 009e DBB2     		uxtb	r3, r3
 813              	.LVL65:
 814              	.L47:
 311:External/FaceDetector/Src/face_detector.c ****   {
 815              		.loc 1 311 25 is_stmt 1 discriminator 1 view .LVU239
 816 00a0 9A42     		cmp	r2, r3
 817 00a2 DAD8     		bhi	.L48
 818              	.LBE46:
 318:External/FaceDetector/Src/face_detector.c ****   }
 319:External/FaceDetector/Src/face_detector.c **** 
 320:External/FaceDetector/Src/face_detector.c ****   return (area) {
 819              		.loc 1 320 3 view .LVU240
 321:External/FaceDetector/Src/face_detector.c ****     .x = result_x / amount,
 820              		.loc 1 321 19 is_stmt 0 view .LVU241
 821 00a4 95FBF2F5 		sdiv	r5, r5, r2
 822              	.LVL66:
 322:External/FaceDetector/Src/face_detector.c ****     .y = result_y / amount,
 823              		.loc 1 322 19 view .LVU242
 824 00a8 97FBF2F7 		sdiv	r7, r7, r2
 825              	.LVL67:
 323:External/FaceDetector/Src/face_detector.c ****     .size = result_size / amount
 826              		.loc 1 323 25 view .LVU243
 827 00ac 91FBF2F1 		sdiv	r1, r1, r2
 828              	.LVL68:
 320:External/FaceDetector/Src/face_detector.c ****     .x = result_x / amount,
 829              		.loc 1 320 10 view .LVU244
 830 00b0 8DF83450 		strb	r5, [sp, #52]
 831 00b4 8DF83570 		strb	r7, [sp, #53]
 832 00b8 8DF83610 		strb	r1, [sp, #54]
 833 00bc 0D9B     		ldr	r3, [sp, #52]
 834              	.LVL69:
 320:External/FaceDetector/Src/face_detector.c ****     .x = result_x / amount,
ARM GAS  /tmp/ccAv9wxo.s 			page 23


 835              		.loc 1 320 10 view .LVU245
 836 00be ADF83030 		strh	r3, [sp, #48]	@ movhi
 837 00c2 1B0C     		lsrs	r3, r3, #16
 838 00c4 8DF83230 		strb	r3, [sp, #50]
 839              	.LVL70:
 320:External/FaceDetector/Src/face_detector.c ****     .x = result_x / amount,
 840              		.loc 1 320 10 view .LVU246
 841              	.LBE43:
 842              	.LBE42:
 294:External/FaceDetector/Src/face_detector.c ****       neighbours_group_indexes,
 843              		.loc 1 294 43 view .LVU247
 844 00c8 084B     		ldr	r3, .L55+8
 845 00ca 06EB4606 		add	r6, r6, r6, lsl #1
 846 00ce 9A19     		adds	r2, r3, r6
 847              	.LVL71:
 294:External/FaceDetector/Src/face_detector.c ****       neighbours_group_indexes,
 848              		.loc 1 294 43 view .LVU248
 849 00d0 BDF83050 		ldrh	r5, [sp, #48]	@ unaligned
 850 00d4 9DF83210 		ldrb	r1, [sp, #50]	@ zero_extendqisi2
 851 00d8 9D53     		strh	r5, [r3, r6]	@ unaligned
 852 00da 9170     		strb	r1, [r2, #2]
 853 00dc A9E7     		b	.L46
 854              	.LVL72:
 855              	.L54:
 294:External/FaceDetector/Src/face_detector.c ****       neighbours_group_indexes,
 856              		.loc 1 294 43 view .LVU249
 857              	.LBE47:
 858              	.LBE38:
 299:External/FaceDetector/Src/face_detector.c **** 
 859              		.loc 1 299 1 view .LVU250
 860 00de 0FB0     		add	sp, sp, #60
 861              	.LCFI6:
 862              		.cfi_def_cfa_offset 28
 863              		@ sp needed
 864 00e0 BDE8F083 		pop	{r4, r5, r6, r7, r8, r9, pc}
 865              	.LVL73:
 866              	.L56:
 299:External/FaceDetector/Src/face_detector.c **** 
 867              		.loc 1 299 1 view .LVU251
 868              		.align	2
 869              	.L55:
 870 00e4 00000000 		.word	faces_amount
 871 00e8 00000000 		.word	result_faces_amount
 872 00ec 00000000 		.word	result_faces
 873 00f0 00000000 		.word	faces_areas
 874              		.cfi_endproc
 875              	.LFE10:
 877              		.section	.text.face_detector_merge_faces_areas,"ax",%progbits
 878              		.align	1
 879              		.syntax unified
 880              		.thumb
 881              		.thumb_func
 883              	face_detector_merge_faces_areas:
 884              	.LVL74:
 885              	.LFB8:
 210:External/FaceDetector/Src/face_detector.c ****   uint8_t similar_areas_indexes[FACE_DETECTOR_MAX_FACE_AREAS];
 886              		.loc 1 210 1 is_stmt 1 view -0
ARM GAS  /tmp/ccAv9wxo.s 			page 24


 887              		.cfi_startproc
 888              		@ args = 0, pretend = 0, frame = 40
 889              		@ frame_needed = 0, uses_anonymous_args = 0
 210:External/FaceDetector/Src/face_detector.c ****   uint8_t similar_areas_indexes[FACE_DETECTOR_MAX_FACE_AREAS];
 890              		.loc 1 210 1 is_stmt 0 view .LVU253
 891 0000 10B5     		push	{r4, lr}
 892              	.LCFI7:
 893              		.cfi_def_cfa_offset 8
 894              		.cfi_offset 4, -8
 895              		.cfi_offset 14, -4
 896 0002 8AB0     		sub	sp, sp, #40
 897              	.LCFI8:
 898              		.cfi_def_cfa_offset 48
 899 0004 0446     		mov	r4, r0
 211:External/FaceDetector/Src/face_detector.c ****   
 900              		.loc 1 211 3 is_stmt 1 view .LVU254
 213:External/FaceDetector/Src/face_detector.c ****     similar_areas_indexes
 901              		.loc 1 213 3 view .LVU255
 902 0006 6846     		mov	r0, sp
 903              	.LVL75:
 213:External/FaceDetector/Src/face_detector.c ****     similar_areas_indexes
 904              		.loc 1 213 3 is_stmt 0 view .LVU256
 905 0008 FFF7FEFF 		bl	face_detector_calculate_indexes_of_neighbours
 906              	.LVL76:
 216:External/FaceDetector/Src/face_detector.c ****     similar_areas_indexes,
 907              		.loc 1 216 3 is_stmt 1 view .LVU257
 908 000c 2146     		mov	r1, r4
 909 000e 6846     		mov	r0, sp
 910 0010 FFF7FEFF 		bl	face_detector_merge_neighbours
 911              	.LVL77:
 220:External/FaceDetector/Src/face_detector.c **** 
 912              		.loc 1 220 1 is_stmt 0 view .LVU258
 913 0014 0AB0     		add	sp, sp, #40
 914              	.LCFI9:
 915              		.cfi_def_cfa_offset 8
 916              		@ sp needed
 917 0016 10BD     		pop	{r4, pc}
 220:External/FaceDetector/Src/face_detector.c **** 
 918              		.loc 1 220 1 view .LVU259
 919              		.cfi_endproc
 920              	.LFE8:
 922              		.section	.text.face_detector_create,"ax",%progbits
 923              		.align	1
 924              		.global	face_detector_create
 925              		.syntax unified
 926              		.thumb
 927              		.thumb_func
 929              	face_detector_create:
 930              	.LVL78:
 931              	.LFB1:
  67:External/FaceDetector/Src/face_detector.c ****   stage_handler = handler;
 932              		.loc 1 67 1 is_stmt 1 view -0
 933              		.cfi_startproc
 934              		@ args = 0, pretend = 0, frame = 8
 935              		@ frame_needed = 0, uses_anonymous_args = 0
  67:External/FaceDetector/Src/face_detector.c ****   stage_handler = handler;
 936              		.loc 1 67 1 is_stmt 0 view .LVU261
ARM GAS  /tmp/ccAv9wxo.s 			page 25


 937 0000 10B5     		push	{r4, lr}
 938              	.LCFI10:
 939              		.cfi_def_cfa_offset 8
 940              		.cfi_offset 4, -8
 941              		.cfi_offset 14, -4
 942 0002 82B0     		sub	sp, sp, #8
 943              	.LCFI11:
 944              		.cfi_def_cfa_offset 16
 945 0004 8646     		mov	lr, r0
 946 0006 8C46     		mov	ip, r1
 947 0008 6946     		mov	r1, sp
 948              	.LVL79:
  67:External/FaceDetector/Src/face_detector.c ****   stage_handler = handler;
 949              		.loc 1 67 1 view .LVU262
 950 000a 81E80C00 		stm	r1, {r2, r3}
  68:External/FaceDetector/Src/face_detector.c ****   current_stages_amount = stages_amount;
 951              		.loc 1 68 3 is_stmt 1 view .LVU263
  68:External/FaceDetector/Src/face_detector.c ****   current_stages_amount = stages_amount;
 952              		.loc 1 68 17 is_stmt 0 view .LVU264
 953 000e 074C     		ldr	r4, .L61
 954 0010 03C9     		ldm	r1, {r0, r1}
 955              	.LVL80:
  68:External/FaceDetector/Src/face_detector.c ****   current_stages_amount = stages_amount;
 956              		.loc 1 68 17 view .LVU265
 957 0012 84E80900 		stm	r4, {r0, r3}
  69:External/FaceDetector/Src/face_detector.c **** 
 958              		.loc 1 69 3 is_stmt 1 view .LVU266
  69:External/FaceDetector/Src/face_detector.c **** 
 959              		.loc 1 69 25 is_stmt 0 view .LVU267
 960 0016 064B     		ldr	r3, .L61+4
 961 0018 83F800C0 		strb	ip, [r3]
  71:External/FaceDetector/Src/face_detector.c ****     binary_classifiers_source,
 962              		.loc 1 71 3 is_stmt 1 view .LVU268
  71:External/FaceDetector/Src/face_detector.c ****     binary_classifiers_source,
 963              		.loc 1 71 12 is_stmt 0 view .LVU269
 964 001c 6146     		mov	r1, ip
 965 001e 7046     		mov	r0, lr
 966 0020 9047     		blx	r2
 967              	.LVL81:
  71:External/FaceDetector/Src/face_detector.c ****     binary_classifiers_source,
 968              		.loc 1 71 10 discriminator 1 view .LVU270
 969 0022 044B     		ldr	r3, .L61+8
 970 0024 1860     		str	r0, [r3]
  75:External/FaceDetector/Src/face_detector.c **** 
 971              		.loc 1 75 1 view .LVU271
 972 0026 02B0     		add	sp, sp, #8
 973              	.LCFI12:
 974              		.cfi_def_cfa_offset 8
 975              		@ sp needed
 976 0028 10BD     		pop	{r4, pc}
 977              	.L62:
 978 002a 00BF     		.align	2
 979              	.L61:
 980 002c 00000000 		.word	stage_handler
 981 0030 00000000 		.word	current_stages_amount
 982 0034 00000000 		.word	stages
 983              		.cfi_endproc
ARM GAS  /tmp/ccAv9wxo.s 			page 26


 984              	.LFE1:
 986              		.section	.text.face_detector_destroy,"ax",%progbits
 987              		.align	1
 988              		.global	face_detector_destroy
 989              		.syntax unified
 990              		.thumb
 991              		.thumb_func
 993              	face_detector_destroy:
 994              	.LFB2:
  78:External/FaceDetector/Src/face_detector.c ****   stage_handler = (face_detector_stage_handler) { 0 };
 995              		.loc 1 78 1 is_stmt 1 view -0
 996              		.cfi_startproc
 997              		@ args = 0, pretend = 0, frame = 0
 998              		@ frame_needed = 0, uses_anonymous_args = 0
 999 0000 10B5     		push	{r4, lr}
 1000              	.LCFI13:
 1001              		.cfi_def_cfa_offset 8
 1002              		.cfi_offset 4, -8
 1003              		.cfi_offset 14, -4
  79:External/FaceDetector/Src/face_detector.c ****   face_detector_reset_faces_arrays();
 1004              		.loc 1 79 3 view .LVU273
  79:External/FaceDetector/Src/face_detector.c ****   face_detector_reset_faces_arrays();
 1005              		.loc 1 79 17 is_stmt 0 view .LVU274
 1006 0002 054B     		ldr	r3, .L65
 1007 0004 0024     		movs	r4, #0
 1008 0006 1C60     		str	r4, [r3]
 1009 0008 5C60     		str	r4, [r3, #4]
  80:External/FaceDetector/Src/face_detector.c **** 
 1010              		.loc 1 80 3 is_stmt 1 view .LVU275
 1011 000a FFF7FEFF 		bl	face_detector_reset_faces_arrays
 1012              	.LVL82:
  82:External/FaceDetector/Src/face_detector.c ****   scales_amount = 0;
 1013              		.loc 1 82 3 view .LVU276
  82:External/FaceDetector/Src/face_detector.c ****   scales_amount = 0;
 1014              		.loc 1 82 17 is_stmt 0 view .LVU277
 1015 000e 034B     		ldr	r3, .L65+4
 1016 0010 1C70     		strb	r4, [r3]
  83:External/FaceDetector/Src/face_detector.c ****   current_stages_amount = 0;
 1017              		.loc 1 83 3 is_stmt 1 view .LVU278
  84:External/FaceDetector/Src/face_detector.c **** }
 1018              		.loc 1 84 3 view .LVU279
  84:External/FaceDetector/Src/face_detector.c **** }
 1019              		.loc 1 84 25 is_stmt 0 view .LVU280
 1020 0012 034B     		ldr	r3, .L65+8
 1021 0014 1C70     		strb	r4, [r3]
  85:External/FaceDetector/Src/face_detector.c **** 
 1022              		.loc 1 85 1 view .LVU281
 1023 0016 10BD     		pop	{r4, pc}
 1024              	.L66:
 1025              		.align	2
 1026              	.L65:
 1027 0018 00000000 		.word	stage_handler
 1028 001c 00000000 		.word	scales_amount
 1029 0020 00000000 		.word	current_stages_amount
 1030              		.cfi_endproc
 1031              	.LFE2:
 1033              		.section	.text.face_detector_detect,"ax",%progbits
ARM GAS  /tmp/ccAv9wxo.s 			page 27


 1034              		.align	1
 1035              		.global	face_detector_detect
 1036              		.syntax unified
 1037              		.thumb
 1038              		.thumb_func
 1040              	face_detector_detect:
 1041              	.LVL83:
 1042              	.LFB3:
  90:External/FaceDetector/Src/face_detector.c ****   face_detector_reset_faces_arrays();
 1043              		.loc 1 90 1 is_stmt 1 view -0
 1044              		.cfi_startproc
 1045              		@ args = 0, pretend = 0, frame = 0
 1046              		@ frame_needed = 0, uses_anonymous_args = 0
  90:External/FaceDetector/Src/face_detector.c ****   face_detector_reset_faces_arrays();
 1047              		.loc 1 90 1 is_stmt 0 view .LVU283
 1048 0000 10B5     		push	{r4, lr}
 1049              	.LCFI14:
 1050              		.cfi_def_cfa_offset 8
 1051              		.cfi_offset 4, -8
 1052              		.cfi_offset 14, -4
 1053 0002 0446     		mov	r4, r0
  91:External/FaceDetector/Src/face_detector.c **** 
 1054              		.loc 1 91 3 is_stmt 1 view .LVU284
 1055 0004 FFF7FEFF 		bl	face_detector_reset_faces_arrays
 1056              	.LVL84:
  93:External/FaceDetector/Src/face_detector.c ****     arguments->base_scale,
 1057              		.loc 1 93 3 view .LVU285
 1058 0008 6178     		ldrb	r1, [r4, #1]	@ zero_extendqisi2
 1059 000a 2078     		ldrb	r0, [r4]	@ zero_extendqisi2
 1060 000c D4ED020A 		vldr.32	s1, [r4, #8]
 1061 0010 94ED010A 		vldr.32	s0, [r4, #4]
 1062 0014 FFF7FEFF 		bl	face_detector_calculate_scales
 1063              	.LVL85:
 100:External/FaceDetector/Src/face_detector.c ****   face_detector_merge_faces_areas(arguments->min_neighbours);
 1064              		.loc 1 100 3 view .LVU286
 1065 0018 2046     		mov	r0, r4
 1066 001a FFF7FEFF 		bl	face_detector_detect_faces
 1067              	.LVL86:
 101:External/FaceDetector/Src/face_detector.c **** 
 1068              		.loc 1 101 3 view .LVU287
 1069 001e 207C     		ldrb	r0, [r4, #16]	@ zero_extendqisi2
 1070 0020 FFF7FEFF 		bl	face_detector_merge_faces_areas
 1071              	.LVL87:
 103:External/FaceDetector/Src/face_detector.c ****   //integral_image_destroy();
 1072              		.loc 1 103 3 view .LVU288
 103:External/FaceDetector/Src/face_detector.c ****   //integral_image_destroy();
 1073              		.loc 1 103 17 is_stmt 0 view .LVU289
 1074 0024 014B     		ldr	r3, .L69
 1075 0026 0022     		movs	r2, #0
 1076 0028 1A70     		strb	r2, [r3]
 105:External/FaceDetector/Src/face_detector.c **** 
 1077              		.loc 1 105 1 view .LVU290
 1078 002a 10BD     		pop	{r4, pc}
 1079              	.LVL88:
 1080              	.L70:
 105:External/FaceDetector/Src/face_detector.c **** 
 1081              		.loc 1 105 1 view .LVU291
ARM GAS  /tmp/ccAv9wxo.s 			page 28


 1082              		.align	2
 1083              	.L69:
 1084 002c 00000000 		.word	scales_amount
 1085              		.cfi_endproc
 1086              	.LFE3:
 1088              		.section	.text.face_detector_get_result,"ax",%progbits
 1089              		.align	1
 1090              		.global	face_detector_get_result
 1091              		.syntax unified
 1092              		.thumb
 1093              		.thumb_func
 1095              	face_detector_get_result:
 1096              	.LVL89:
 1097              	.LFB12:
 324:External/FaceDetector/Src/face_detector.c ****   };
 325:External/FaceDetector/Src/face_detector.c **** }
 326:External/FaceDetector/Src/face_detector.c **** 
 327:External/FaceDetector/Src/face_detector.c **** face_detector_result face_detector_get_result(void)
 328:External/FaceDetector/Src/face_detector.c **** {
 1098              		.loc 1 328 1 is_stmt 1 view -0
 1099              		.cfi_startproc
 1100              		@ args = 0, pretend = 0, frame = 0
 1101              		@ frame_needed = 0, uses_anonymous_args = 0
 1102              		@ link register save eliminated.
 329:External/FaceDetector/Src/face_detector.c ****   return (face_detector_result) {
 1103              		.loc 1 329 3 view .LVU293
 1104              		.loc 1 329 10 is_stmt 0 view .LVU294
 1105 0000 024A     		ldr	r2, .L72
 1106 0002 1278     		ldrb	r2, [r2]	@ zero_extendqisi2
 1107 0004 0249     		ldr	r1, .L72+4
 1108 0006 0160     		str	r1, [r0]
 1109 0008 0271     		strb	r2, [r0, #4]
 330:External/FaceDetector/Src/face_detector.c ****     .faces = result_faces,
 331:External/FaceDetector/Src/face_detector.c ****     .faces_amount = result_faces_amount
 332:External/FaceDetector/Src/face_detector.c ****   };
 333:External/FaceDetector/Src/face_detector.c **** }
 1110              		.loc 1 333 1 view .LVU295
 1111 000a 7047     		bx	lr
 1112              	.L73:
 1113              		.align	2
 1114              	.L72:
 1115 000c 00000000 		.word	result_faces_amount
 1116 0010 00000000 		.word	result_faces
 1117              		.cfi_endproc
 1118              	.LFE12:
 1120              		.section	.bss.result_faces_amount,"aw",%nobits
 1123              	result_faces_amount:
 1124 0000 00       		.space	1
 1125              		.section	.bss.result_faces,"aw",%nobits
 1126              		.align	2
 1129              	result_faces:
 1130 0000 00000000 		.space	120
 1130      00000000 
 1130      00000000 
 1130      00000000 
 1130      00000000 
 1131              		.section	.bss.faces_amount,"aw",%nobits
ARM GAS  /tmp/ccAv9wxo.s 			page 29


 1134              	faces_amount:
 1135 0000 00       		.space	1
 1136              		.section	.bss.faces_areas,"aw",%nobits
 1137              		.align	2
 1140              	faces_areas:
 1141 0000 00000000 		.space	120
 1141      00000000 
 1141      00000000 
 1141      00000000 
 1141      00000000 
 1142              		.section	.bss.scales_amount,"aw",%nobits
 1145              	scales_amount:
 1146 0000 00       		.space	1
 1147              		.section	.bss.scales,"aw",%nobits
 1148              		.align	2
 1151              	scales:
 1152 0000 00000000 		.space	160
 1152      00000000 
 1152      00000000 
 1152      00000000 
 1152      00000000 
 1153              		.section	.bss.current_stages_amount,"aw",%nobits
 1156              	current_stages_amount:
 1157 0000 00       		.space	1
 1158              		.section	.bss.stages,"aw",%nobits
 1159              		.align	2
 1162              	stages:
 1163 0000 00000000 		.space	4
 1164              		.section	.bss.stage_handler,"aw",%nobits
 1165              		.align	2
 1168              	stage_handler:
 1169 0000 00000000 		.space	8
 1169      00000000 
 1170              		.text
 1171              	.Letext0:
 1172              		.file 3 "/usr/src/arm-gnu-toolchain-13.3/arm-none-eabi/include/machine/_default_types.h"
 1173              		.file 4 "/usr/src/arm-gnu-toolchain-13.3/arm-none-eabi/include/sys/_stdint.h"
 1174              		.file 5 "External/LBPFeature/Inc/lbp_feature_defs.h"
 1175              		.file 6 "External/Stage/Inc/stage_defs.h"
 1176              		.file 7 "External/FaceDetector/Inc/face_detector_defs.h"
ARM GAS  /tmp/ccAv9wxo.s 			page 30

