ARM GAS  /tmp/ccS19chs.s 			page 1


   1              		.cpu cortex-m4
   2              		.arch armv7e-m
   3              		.fpu fpv4-sp-d16
   4              		.eabi_attribute 27, 1
   5              		.eabi_attribute 28, 1
   6              		.eabi_attribute 20, 1
   7              		.eabi_attribute 21, 1
   8              		.eabi_attribute 23, 3
   9              		.eabi_attribute 24, 1
  10              		.eabi_attribute 25, 1
  11              		.eabi_attribute 26, 1
  12              		.eabi_attribute 30, 1
  13              		.eabi_attribute 34, 1
  14              		.eabi_attribute 18, 4
  15              		.file	"ili9341_tft_driver.c"
  16              		.text
  17              	.Ltext0:
  18              		.cfi_sections	.debug_frame
  19              		.file 1 "External/ili9341_tft_driver/Src/ili9341_tft_driver.c"
  20              		.section	.text.ili9341_display_on,"ax",%progbits
  21              		.align	1
  22              		.syntax unified
  23              		.thumb
  24              		.thumb_func
  26              	ili9341_display_on:
  27              	.LFB4:
   1:External/ili9341_tft_driver/Src/ili9341_tft_driver.c **** #include "ili9341_tft_driver.h"
   2:External/ili9341_tft_driver/Src/ili9341_tft_driver.c **** #include "ili9341_tft_driver_defs.h"
   3:External/ili9341_tft_driver/Src/ili9341_tft_driver.c **** #include <stddef.h>
   4:External/ili9341_tft_driver/Src/ili9341_tft_driver.c **** #include <stdbool.h>
   5:External/ili9341_tft_driver/Src/ili9341_tft_driver.c **** 
   6:External/ili9341_tft_driver/Src/ili9341_tft_driver.c **** // Defines -------------------------------------------------------------------
   7:External/ili9341_tft_driver/Src/ili9341_tft_driver.c **** 
   8:External/ili9341_tft_driver/Src/ili9341_tft_driver.c **** #define FAST_DIVIDE_BY_3(n) \
   9:External/ili9341_tft_driver/Src/ili9341_tft_driver.c **** 	((n) * 85 >> 8)
  10:External/ili9341_tft_driver/Src/ili9341_tft_driver.c **** 
  11:External/ili9341_tft_driver/Src/ili9341_tft_driver.c **** // Static variables ----------------------------------------------------------
  12:External/ili9341_tft_driver/Src/ili9341_tft_driver.c **** 
  13:External/ili9341_tft_driver/Src/ili9341_tft_driver.c **** static ili9341_tft_driver_io_struct *io_struct = NULL;
  14:External/ili9341_tft_driver/Src/ili9341_tft_driver.c **** 
  15:External/ili9341_tft_driver/Src/ili9341_tft_driver.c **** // Static functions prototypes -----------------------------------------------
  16:External/ili9341_tft_driver/Src/ili9341_tft_driver.c **** 
  17:External/ili9341_tft_driver/Src/ili9341_tft_driver.c **** static ili9341_tft_driver_status ili9341_check_link(void);
  18:External/ili9341_tft_driver/Src/ili9341_tft_driver.c **** static void ili9341_soft_reset(void);
  19:External/ili9341_tft_driver/Src/ili9341_tft_driver.c **** static void ili9341_send_default_registers(void);
  20:External/ili9341_tft_driver/Src/ili9341_tft_driver.c **** static void ili9341_display_on(void);
  21:External/ili9341_tft_driver/Src/ili9341_tft_driver.c **** static bool ili9341_is_not_valid_coordinates(ili9341_draw_area *const area);
  22:External/ili9341_tft_driver/Src/ili9341_tft_driver.c **** static ili9341_tft_driver_status ili9341_write_x_coordinates(uint16_t x0, uint16_t x1);
  23:External/ili9341_tft_driver/Src/ili9341_tft_driver.c **** static ili9341_tft_driver_status ili9341_write_y_coordinates(uint16_t y0, uint16_t y1);
  24:External/ili9341_tft_driver/Src/ili9341_tft_driver.c **** __attribute__((always_inline))
  25:External/ili9341_tft_driver/Src/ili9341_tft_driver.c **** static inline uint16_t decolorize(const uint16_t *pixel);
  26:External/ili9341_tft_driver/Src/ili9341_tft_driver.c **** static uint32_t ili9341_calculate_pixels_amount(ili9341_draw_area *const area);
  27:External/ili9341_tft_driver/Src/ili9341_tft_driver.c **** static ili9341_draw_area ili9341_get_max_area(void);
  28:External/ili9341_tft_driver/Src/ili9341_tft_driver.c **** __attribute__((always_inline))
  29:External/ili9341_tft_driver/Src/ili9341_tft_driver.c **** static inline bool is_not_safe_call(void *const function_ptr);
  30:External/ili9341_tft_driver/Src/ili9341_tft_driver.c **** static ili9341_tft_driver_status io_init(void);
  31:External/ili9341_tft_driver/Src/ili9341_tft_driver.c **** __attribute__((always_inline))
ARM GAS  /tmp/ccS19chs.s 			page 2


  32:External/ili9341_tft_driver/Src/ili9341_tft_driver.c **** static inline ili9341_tft_driver_status io_write_data(uint16_t data);
  33:External/ili9341_tft_driver/Src/ili9341_tft_driver.c **** __attribute__((always_inline))
  34:External/ili9341_tft_driver/Src/ili9341_tft_driver.c **** static inline ili9341_tft_driver_status io_write_reg(uint16_t reg_value);
  35:External/ili9341_tft_driver/Src/ili9341_tft_driver.c **** __attribute__((always_inline))
  36:External/ili9341_tft_driver/Src/ili9341_tft_driver.c **** static inline ili9341_tft_driver_status io_read_data(
  37:External/ili9341_tft_driver/Src/ili9341_tft_driver.c **** 	uint8_t data_size,
  38:External/ili9341_tft_driver/Src/ili9341_tft_driver.c **** 	uint16_t *const value
  39:External/ili9341_tft_driver/Src/ili9341_tft_driver.c **** );
  40:External/ili9341_tft_driver/Src/ili9341_tft_driver.c **** static ili9341_tft_driver_status io_delay(uint32_t delay);
  41:External/ili9341_tft_driver/Src/ili9341_tft_driver.c **** static ili9341_tft_driver_status io_dummy_read(uint8_t amount);
  42:External/ili9341_tft_driver/Src/ili9341_tft_driver.c **** static ili9341_tft_driver_status io_enable_backlight(bool is_enabled);
  43:External/ili9341_tft_driver/Src/ili9341_tft_driver.c **** 
  44:External/ili9341_tft_driver/Src/ili9341_tft_driver.c **** // Implementations -----------------------------------------------------------
  45:External/ili9341_tft_driver/Src/ili9341_tft_driver.c **** 
  46:External/ili9341_tft_driver/Src/ili9341_tft_driver.c **** ili9341_tft_driver_status ili9341_tft_driver_init(
  47:External/ili9341_tft_driver/Src/ili9341_tft_driver.c **** 	ili9341_tft_driver_io_struct *const io
  48:External/ili9341_tft_driver/Src/ili9341_tft_driver.c **** )
  49:External/ili9341_tft_driver/Src/ili9341_tft_driver.c **** {
  50:External/ili9341_tft_driver/Src/ili9341_tft_driver.c **** 	io_struct = io;
  51:External/ili9341_tft_driver/Src/ili9341_tft_driver.c **** 	
  52:External/ili9341_tft_driver/Src/ili9341_tft_driver.c **** 	io_enable_backlight(false);
  53:External/ili9341_tft_driver/Src/ili9341_tft_driver.c **** 	
  54:External/ili9341_tft_driver/Src/ili9341_tft_driver.c **** 	ili9341_tft_driver_status status = io_init();
  55:External/ili9341_tft_driver/Src/ili9341_tft_driver.c **** 	if (status)
  56:External/ili9341_tft_driver/Src/ili9341_tft_driver.c **** 		return status;
  57:External/ili9341_tft_driver/Src/ili9341_tft_driver.c **** 	
  58:External/ili9341_tft_driver/Src/ili9341_tft_driver.c **** 	status = ili9341_check_link();
  59:External/ili9341_tft_driver/Src/ili9341_tft_driver.c **** 	if (status)
  60:External/ili9341_tft_driver/Src/ili9341_tft_driver.c **** 		return status;
  61:External/ili9341_tft_driver/Src/ili9341_tft_driver.c **** 
  62:External/ili9341_tft_driver/Src/ili9341_tft_driver.c **** 	ili9341_soft_reset();
  63:External/ili9341_tft_driver/Src/ili9341_tft_driver.c **** 	ili9341_send_default_registers();
  64:External/ili9341_tft_driver/Src/ili9341_tft_driver.c **** 	
  65:External/ili9341_tft_driver/Src/ili9341_tft_driver.c **** 	ili9341_display_on();
  66:External/ili9341_tft_driver/Src/ili9341_tft_driver.c **** 	ili9341_tft_driver_clear();
  67:External/ili9341_tft_driver/Src/ili9341_tft_driver.c **** 	io_enable_backlight(true);
  68:External/ili9341_tft_driver/Src/ili9341_tft_driver.c **** 	
  69:External/ili9341_tft_driver/Src/ili9341_tft_driver.c **** 	return ILI9341_OK;
  70:External/ili9341_tft_driver/Src/ili9341_tft_driver.c **** }
  71:External/ili9341_tft_driver/Src/ili9341_tft_driver.c **** 
  72:External/ili9341_tft_driver/Src/ili9341_tft_driver.c **** static ili9341_tft_driver_status ili9341_check_link()
  73:External/ili9341_tft_driver/Src/ili9341_tft_driver.c **** {
  74:External/ili9341_tft_driver/Src/ili9341_tft_driver.c **** 	uint16_t id = 0;
  75:External/ili9341_tft_driver/Src/ili9341_tft_driver.c **** 	
  76:External/ili9341_tft_driver/Src/ili9341_tft_driver.c **** 	ili9341_tft_driver_status status = ili9341_tft_driver_get_id(&id);
  77:External/ili9341_tft_driver/Src/ili9341_tft_driver.c **** 	if (status || id != ILI9341_ID)
  78:External/ili9341_tft_driver/Src/ili9341_tft_driver.c **** 		return ILI9341_ERROR;
  79:External/ili9341_tft_driver/Src/ili9341_tft_driver.c **** 	return status;
  80:External/ili9341_tft_driver/Src/ili9341_tft_driver.c **** }
  81:External/ili9341_tft_driver/Src/ili9341_tft_driver.c **** 
  82:External/ili9341_tft_driver/Src/ili9341_tft_driver.c **** static void ili9341_soft_reset()
  83:External/ili9341_tft_driver/Src/ili9341_tft_driver.c **** {
  84:External/ili9341_tft_driver/Src/ili9341_tft_driver.c **** 	io_write_reg(ILI9341_CMD_RESET);
  85:External/ili9341_tft_driver/Src/ili9341_tft_driver.c ****   	io_delay(10);
  86:External/ili9341_tft_driver/Src/ili9341_tft_driver.c **** }
  87:External/ili9341_tft_driver/Src/ili9341_tft_driver.c **** 
  88:External/ili9341_tft_driver/Src/ili9341_tft_driver.c **** static void ili9341_send_default_registers()
ARM GAS  /tmp/ccS19chs.s 			page 3


  89:External/ili9341_tft_driver/Src/ili9341_tft_driver.c **** {
  90:External/ili9341_tft_driver/Src/ili9341_tft_driver.c **** 	io_write_reg(ILI9341_CMD_POWER_A);
  91:External/ili9341_tft_driver/Src/ili9341_tft_driver.c **** 	io_write_data(0x39);
  92:External/ili9341_tft_driver/Src/ili9341_tft_driver.c **** 	io_write_data(0x2C);
  93:External/ili9341_tft_driver/Src/ili9341_tft_driver.c **** 	io_write_data(0x00);
  94:External/ili9341_tft_driver/Src/ili9341_tft_driver.c **** 	io_write_data(0x34);
  95:External/ili9341_tft_driver/Src/ili9341_tft_driver.c **** 	io_write_data(0x02);
  96:External/ili9341_tft_driver/Src/ili9341_tft_driver.c **** 	io_write_reg(ILI9341_CMD_POWER_B);
  97:External/ili9341_tft_driver/Src/ili9341_tft_driver.c **** 	io_write_data(0x00);
  98:External/ili9341_tft_driver/Src/ili9341_tft_driver.c **** 	io_write_data(0xC1);
  99:External/ili9341_tft_driver/Src/ili9341_tft_driver.c **** 	io_write_data(0x30);
 100:External/ili9341_tft_driver/Src/ili9341_tft_driver.c **** 	io_write_reg(ILI9341_CMD_DTCA);
 101:External/ili9341_tft_driver/Src/ili9341_tft_driver.c **** 	io_write_data(0x85);
 102:External/ili9341_tft_driver/Src/ili9341_tft_driver.c **** 	io_write_data(0x00);
 103:External/ili9341_tft_driver/Src/ili9341_tft_driver.c **** 	io_write_data(0x78);
 104:External/ili9341_tft_driver/Src/ili9341_tft_driver.c **** 	io_write_reg(ILI9341_CMD_DTCB);
 105:External/ili9341_tft_driver/Src/ili9341_tft_driver.c **** 	io_write_data(0x00);
 106:External/ili9341_tft_driver/Src/ili9341_tft_driver.c **** 	io_write_data(0x00);
 107:External/ili9341_tft_driver/Src/ili9341_tft_driver.c **** 	io_write_reg(ILI9341_CMD_POWER_SEQ);
 108:External/ili9341_tft_driver/Src/ili9341_tft_driver.c **** 	io_write_data(0x64);
 109:External/ili9341_tft_driver/Src/ili9341_tft_driver.c **** 	io_write_data(0x03);
 110:External/ili9341_tft_driver/Src/ili9341_tft_driver.c **** 	io_write_data(0x12);
 111:External/ili9341_tft_driver/Src/ili9341_tft_driver.c **** 	io_write_data(0x81);
 112:External/ili9341_tft_driver/Src/ili9341_tft_driver.c **** 	io_write_reg(ILI9341_CMD_PRC);
 113:External/ili9341_tft_driver/Src/ili9341_tft_driver.c **** 	io_write_data(0x20);
 114:External/ili9341_tft_driver/Src/ili9341_tft_driver.c **** 	io_write_reg(ILI9341_CMD_POWER1);
 115:External/ili9341_tft_driver/Src/ili9341_tft_driver.c **** 	io_write_data(0x23);
 116:External/ili9341_tft_driver/Src/ili9341_tft_driver.c **** 	io_write_reg(ILI9341_CMD_POWER2);
 117:External/ili9341_tft_driver/Src/ili9341_tft_driver.c **** 	io_write_data(0x10);
 118:External/ili9341_tft_driver/Src/ili9341_tft_driver.c **** 	io_write_reg(ILI9341_CMD_VCOM1);
 119:External/ili9341_tft_driver/Src/ili9341_tft_driver.c **** 	io_write_data(0x3E);
 120:External/ili9341_tft_driver/Src/ili9341_tft_driver.c **** 	io_write_data(0x28);
 121:External/ili9341_tft_driver/Src/ili9341_tft_driver.c **** 	io_write_reg(ILI9341_CMD_VCOM2);
 122:External/ili9341_tft_driver/Src/ili9341_tft_driver.c **** 	io_write_data(0x86);
 123:External/ili9341_tft_driver/Src/ili9341_tft_driver.c **** 	io_write_reg(ILI9341_CMD_MAC);
 124:External/ili9341_tft_driver/Src/ili9341_tft_driver.c **** 	io_write_data(0xE8);
 125:External/ili9341_tft_driver/Src/ili9341_tft_driver.c **** 	io_write_reg(ILI9341_CMD_PIXEL_FORMAT);
 126:External/ili9341_tft_driver/Src/ili9341_tft_driver.c **** 	io_write_data(0x55); // 16-bit Parallel RGB Interface
 127:External/ili9341_tft_driver/Src/ili9341_tft_driver.c **** 	io_write_reg(ILI9341_CMD_FRC); // (frame control in normal mode)
 128:External/ili9341_tft_driver/Src/ili9341_tft_driver.c **** 	io_write_data(0x00);
 129:External/ili9341_tft_driver/Src/ili9341_tft_driver.c **** 	io_write_data(0x18);
 130:External/ili9341_tft_driver/Src/ili9341_tft_driver.c **** 	io_write_reg(ILI9341_CMD_DFC);
 131:External/ili9341_tft_driver/Src/ili9341_tft_driver.c **** 	io_write_data(0x08);
 132:External/ili9341_tft_driver/Src/ili9341_tft_driver.c **** 	io_write_data(0x82);
 133:External/ili9341_tft_driver/Src/ili9341_tft_driver.c **** 	io_write_data(0x27);
 134:External/ili9341_tft_driver/Src/ili9341_tft_driver.c **** 	io_write_reg(0xF2);
 135:External/ili9341_tft_driver/Src/ili9341_tft_driver.c **** 	io_write_data(0x00);
 136:External/ili9341_tft_driver/Src/ili9341_tft_driver.c **** 	io_write_reg(ILI9341_CMD_SLEEP_OUT);
 137:External/ili9341_tft_driver/Src/ili9341_tft_driver.c **** 	
 138:External/ili9341_tft_driver/Src/ili9341_tft_driver.c **** 	io_delay(10);
 139:External/ili9341_tft_driver/Src/ili9341_tft_driver.c **** }
 140:External/ili9341_tft_driver/Src/ili9341_tft_driver.c **** 
 141:External/ili9341_tft_driver/Src/ili9341_tft_driver.c **** static void ili9341_display_on()
 142:External/ili9341_tft_driver/Src/ili9341_tft_driver.c **** {
  28              		.loc 1 142 1 view -0
  29              		.cfi_startproc
  30              		@ args = 0, pretend = 0, frame = 0
ARM GAS  /tmp/ccS19chs.s 			page 4


  31              		@ frame_needed = 0, uses_anonymous_args = 0
  32 0000 08B5     		push	{r3, lr}
  33              	.LCFI0:
  34              		.cfi_def_cfa_offset 8
  35              		.cfi_offset 3, -8
  36              		.cfi_offset 14, -4
 143:External/ili9341_tft_driver/Src/ili9341_tft_driver.c **** 	io_write_reg(ILI9341_CMD_DISPLAY_ON);
  37              		.loc 1 143 2 view .LVU1
  38              	.LVL0:
  39              	.LBB293:
  40              	.LBI293:
 144:External/ili9341_tft_driver/Src/ili9341_tft_driver.c **** }
 145:External/ili9341_tft_driver/Src/ili9341_tft_driver.c **** 
 146:External/ili9341_tft_driver/Src/ili9341_tft_driver.c **** void ili9341_tft_driver_destroy()
 147:External/ili9341_tft_driver/Src/ili9341_tft_driver.c **** {
 148:External/ili9341_tft_driver/Src/ili9341_tft_driver.c **** 	io_struct = NULL;
 149:External/ili9341_tft_driver/Src/ili9341_tft_driver.c **** }
 150:External/ili9341_tft_driver/Src/ili9341_tft_driver.c **** 
 151:External/ili9341_tft_driver/Src/ili9341_tft_driver.c **** ili9341_tft_driver_status ili9341_tft_driver_get_id(uint16_t *const value)
 152:External/ili9341_tft_driver/Src/ili9341_tft_driver.c **** {
 153:External/ili9341_tft_driver/Src/ili9341_tft_driver.c **** 	uint16_t result = 0;
 154:External/ili9341_tft_driver/Src/ili9341_tft_driver.c **** 	
 155:External/ili9341_tft_driver/Src/ili9341_tft_driver.c **** 	ili9341_tft_driver_status status = io_write_reg(ILI9341_CMD_ID);
 156:External/ili9341_tft_driver/Src/ili9341_tft_driver.c **** 	status |= io_dummy_read(2);
 157:External/ili9341_tft_driver/Src/ili9341_tft_driver.c **** 	
 158:External/ili9341_tft_driver/Src/ili9341_tft_driver.c **** 	status |= io_read_data(2, &result);
 159:External/ili9341_tft_driver/Src/ili9341_tft_driver.c **** 	*value = result << 8;
 160:External/ili9341_tft_driver/Src/ili9341_tft_driver.c **** 	
 161:External/ili9341_tft_driver/Src/ili9341_tft_driver.c **** 	status |= io_read_data(2, &result);
 162:External/ili9341_tft_driver/Src/ili9341_tft_driver.c **** 	*value |= result;
 163:External/ili9341_tft_driver/Src/ili9341_tft_driver.c **** 	
 164:External/ili9341_tft_driver/Src/ili9341_tft_driver.c **** 	return status;
 165:External/ili9341_tft_driver/Src/ili9341_tft_driver.c **** }
 166:External/ili9341_tft_driver/Src/ili9341_tft_driver.c **** 
 167:External/ili9341_tft_driver/Src/ili9341_tft_driver.c **** ili9341_tft_driver_status ili9341_tft_driver_set_area(
 168:External/ili9341_tft_driver/Src/ili9341_tft_driver.c **** 	ili9341_draw_area *const area
 169:External/ili9341_tft_driver/Src/ili9341_tft_driver.c **** )
 170:External/ili9341_tft_driver/Src/ili9341_tft_driver.c **** {
 171:External/ili9341_tft_driver/Src/ili9341_tft_driver.c **** 	if (ili9341_is_not_valid_coordinates(area))
 172:External/ili9341_tft_driver/Src/ili9341_tft_driver.c ****     return ILI9341_ERROR;
 173:External/ili9341_tft_driver/Src/ili9341_tft_driver.c **** 	
 174:External/ili9341_tft_driver/Src/ili9341_tft_driver.c **** 	ili9341_tft_driver_status status = ili9341_write_x_coordinates(
 175:External/ili9341_tft_driver/Src/ili9341_tft_driver.c **** 		area->start, area->end
 176:External/ili9341_tft_driver/Src/ili9341_tft_driver.c **** 	);
 177:External/ili9341_tft_driver/Src/ili9341_tft_driver.c **** 	status |= ili9341_write_y_coordinates(
 178:External/ili9341_tft_driver/Src/ili9341_tft_driver.c **** 		area->top, area->bottom
 179:External/ili9341_tft_driver/Src/ili9341_tft_driver.c **** 	);
 180:External/ili9341_tft_driver/Src/ili9341_tft_driver.c **** 	 
 181:External/ili9341_tft_driver/Src/ili9341_tft_driver.c **** 	return status;
 182:External/ili9341_tft_driver/Src/ili9341_tft_driver.c **** }
 183:External/ili9341_tft_driver/Src/ili9341_tft_driver.c **** 
 184:External/ili9341_tft_driver/Src/ili9341_tft_driver.c **** static bool ili9341_is_not_valid_coordinates(ili9341_draw_area *const area)
 185:External/ili9341_tft_driver/Src/ili9341_tft_driver.c **** {
 186:External/ili9341_tft_driver/Src/ili9341_tft_driver.c **** 	return area->start > area->end ||
 187:External/ili9341_tft_driver/Src/ili9341_tft_driver.c **** 		area->end > ILI9341_HRES ||
 188:External/ili9341_tft_driver/Src/ili9341_tft_driver.c **** 		area->top > area->bottom ||
 189:External/ili9341_tft_driver/Src/ili9341_tft_driver.c **** 		area->bottom > ILI9341_VRES;
ARM GAS  /tmp/ccS19chs.s 			page 5


 190:External/ili9341_tft_driver/Src/ili9341_tft_driver.c **** }
 191:External/ili9341_tft_driver/Src/ili9341_tft_driver.c **** 
 192:External/ili9341_tft_driver/Src/ili9341_tft_driver.c **** static ili9341_tft_driver_status ili9341_write_x_coordinates(uint16_t x0, uint16_t x1)
 193:External/ili9341_tft_driver/Src/ili9341_tft_driver.c **** {
 194:External/ili9341_tft_driver/Src/ili9341_tft_driver.c **** 	ili9341_tft_driver_status status = io_write_reg(ILI9341_CMD_SETX);
 195:External/ili9341_tft_driver/Src/ili9341_tft_driver.c ****   status |= io_write_data(x0 >> 8);
 196:External/ili9341_tft_driver/Src/ili9341_tft_driver.c ****   status |= io_write_data(x0 & 0xFF);
 197:External/ili9341_tft_driver/Src/ili9341_tft_driver.c ****   status |= io_write_data(x1 >> 8);
 198:External/ili9341_tft_driver/Src/ili9341_tft_driver.c ****   status |= io_write_data(x1 & 0xFF);
 199:External/ili9341_tft_driver/Src/ili9341_tft_driver.c **** 	
 200:External/ili9341_tft_driver/Src/ili9341_tft_driver.c **** 	return status;
 201:External/ili9341_tft_driver/Src/ili9341_tft_driver.c **** }
 202:External/ili9341_tft_driver/Src/ili9341_tft_driver.c **** 
 203:External/ili9341_tft_driver/Src/ili9341_tft_driver.c **** static ili9341_tft_driver_status ili9341_write_y_coordinates(uint16_t y0, uint16_t y1)
 204:External/ili9341_tft_driver/Src/ili9341_tft_driver.c **** {
 205:External/ili9341_tft_driver/Src/ili9341_tft_driver.c **** 	ili9341_tft_driver_status status = io_write_reg(ILI9341_CMD_SETY);
 206:External/ili9341_tft_driver/Src/ili9341_tft_driver.c ****   status |= io_write_data(y0 >> 8);
 207:External/ili9341_tft_driver/Src/ili9341_tft_driver.c ****   status |= io_write_data(y0 & 0xFF);
 208:External/ili9341_tft_driver/Src/ili9341_tft_driver.c ****   status |= io_write_data(y1 >> 8);
 209:External/ili9341_tft_driver/Src/ili9341_tft_driver.c ****   status |= io_write_data(y1 & 0xFF);
 210:External/ili9341_tft_driver/Src/ili9341_tft_driver.c **** 	
 211:External/ili9341_tft_driver/Src/ili9341_tft_driver.c **** 	return status;
 212:External/ili9341_tft_driver/Src/ili9341_tft_driver.c **** }
 213:External/ili9341_tft_driver/Src/ili9341_tft_driver.c **** 
 214:External/ili9341_tft_driver/Src/ili9341_tft_driver.c **** ili9341_tft_driver_status ili9341_tft_driver_set_pixel(
 215:External/ili9341_tft_driver/Src/ili9341_tft_driver.c **** 	uint16_t x,
 216:External/ili9341_tft_driver/Src/ili9341_tft_driver.c **** 	uint16_t y,
 217:External/ili9341_tft_driver/Src/ili9341_tft_driver.c **** 	uint16_t color
 218:External/ili9341_tft_driver/Src/ili9341_tft_driver.c **** )
 219:External/ili9341_tft_driver/Src/ili9341_tft_driver.c **** {
 220:External/ili9341_tft_driver/Src/ili9341_tft_driver.c **** 	ili9341_draw_area area = (ili9341_draw_area) {
 221:External/ili9341_tft_driver/Src/ili9341_tft_driver.c **** 		.start = x,
 222:External/ili9341_tft_driver/Src/ili9341_tft_driver.c **** 		.end = x,
 223:External/ili9341_tft_driver/Src/ili9341_tft_driver.c **** 		.top = y,
 224:External/ili9341_tft_driver/Src/ili9341_tft_driver.c **** 		.bottom = y
 225:External/ili9341_tft_driver/Src/ili9341_tft_driver.c **** 	};
 226:External/ili9341_tft_driver/Src/ili9341_tft_driver.c **** 	
 227:External/ili9341_tft_driver/Src/ili9341_tft_driver.c **** 	ili9341_tft_driver_status status = ili9341_tft_driver_set_area(&area);
 228:External/ili9341_tft_driver/Src/ili9341_tft_driver.c **** 	status |= io_write_reg(ILI9341_CMD_WRAM);
 229:External/ili9341_tft_driver/Src/ili9341_tft_driver.c **** 	status |= io_write_data(color);
 230:External/ili9341_tft_driver/Src/ili9341_tft_driver.c **** 	
 231:External/ili9341_tft_driver/Src/ili9341_tft_driver.c **** 	return status;
 232:External/ili9341_tft_driver/Src/ili9341_tft_driver.c **** }
 233:External/ili9341_tft_driver/Src/ili9341_tft_driver.c **** 
 234:External/ili9341_tft_driver/Src/ili9341_tft_driver.c **** ili9341_tft_driver_status ili9341_tft_driver_fill_area(
 235:External/ili9341_tft_driver/Src/ili9341_tft_driver.c **** 	ili9341_draw_area *const area,
 236:External/ili9341_tft_driver/Src/ili9341_tft_driver.c **** 	uint16_t color
 237:External/ili9341_tft_driver/Src/ili9341_tft_driver.c **** )
 238:External/ili9341_tft_driver/Src/ili9341_tft_driver.c **** {
 239:External/ili9341_tft_driver/Src/ili9341_tft_driver.c **** 	uint32_t pixels_amount = ili9341_calculate_pixels_amount(area);
 240:External/ili9341_tft_driver/Src/ili9341_tft_driver.c **** 	ili9341_tft_driver_set_area(area);
 241:External/ili9341_tft_driver/Src/ili9341_tft_driver.c **** 	
 242:External/ili9341_tft_driver/Src/ili9341_tft_driver.c **** 	ili9341_tft_driver_status status = io_write_reg(ILI9341_CMD_WRAM);
 243:External/ili9341_tft_driver/Src/ili9341_tft_driver.c **** 	for (uint32_t i = 0; i < pixels_amount; i++)
 244:External/ili9341_tft_driver/Src/ili9341_tft_driver.c **** 		status |= io_write_data(color);
 245:External/ili9341_tft_driver/Src/ili9341_tft_driver.c **** 	
 246:External/ili9341_tft_driver/Src/ili9341_tft_driver.c **** 	return status;
ARM GAS  /tmp/ccS19chs.s 			page 6


 247:External/ili9341_tft_driver/Src/ili9341_tft_driver.c **** }
 248:External/ili9341_tft_driver/Src/ili9341_tft_driver.c **** 
 249:External/ili9341_tft_driver/Src/ili9341_tft_driver.c **** uint16_t ili9341_tft_driver_get_color_from_rgb(
 250:External/ili9341_tft_driver/Src/ili9341_tft_driver.c **** 	uint8_t r,
 251:External/ili9341_tft_driver/Src/ili9341_tft_driver.c **** 	uint8_t g,
 252:External/ili9341_tft_driver/Src/ili9341_tft_driver.c **** 	uint8_t b
 253:External/ili9341_tft_driver/Src/ili9341_tft_driver.c **** )
 254:External/ili9341_tft_driver/Src/ili9341_tft_driver.c **** {
 255:External/ili9341_tft_driver/Src/ili9341_tft_driver.c **** 	return ((r >> 3) << 11) | ((g >> 2) << 5) | (b >> 3);
 256:External/ili9341_tft_driver/Src/ili9341_tft_driver.c **** }
 257:External/ili9341_tft_driver/Src/ili9341_tft_driver.c **** 
 258:External/ili9341_tft_driver/Src/ili9341_tft_driver.c **** ili9341_tft_driver_status ili9341_tft_driver_draw_image(
 259:External/ili9341_tft_driver/Src/ili9341_tft_driver.c **** 	ili9341_draw_area *const area,
 260:External/ili9341_tft_driver/Src/ili9341_tft_driver.c **** 	const uint16_t *const data
 261:External/ili9341_tft_driver/Src/ili9341_tft_driver.c **** )
 262:External/ili9341_tft_driver/Src/ili9341_tft_driver.c **** {
 263:External/ili9341_tft_driver/Src/ili9341_tft_driver.c **** 	uint32_t pixels_amount = ili9341_calculate_pixels_amount(area);
 264:External/ili9341_tft_driver/Src/ili9341_tft_driver.c **** 	ili9341_tft_driver_set_area(area);
 265:External/ili9341_tft_driver/Src/ili9341_tft_driver.c **** 	
 266:External/ili9341_tft_driver/Src/ili9341_tft_driver.c **** 	ili9341_tft_driver_status status = io_write_reg(ILI9341_CMD_WRAM);
 267:External/ili9341_tft_driver/Src/ili9341_tft_driver.c **** 	for (uint32_t i = 0; i < pixels_amount; i++)
 268:External/ili9341_tft_driver/Src/ili9341_tft_driver.c **** 		status |= io_write_data(decolorize(data + i));
 269:External/ili9341_tft_driver/Src/ili9341_tft_driver.c **** 		//status |= io_write_data(data[i]);
 270:External/ili9341_tft_driver/Src/ili9341_tft_driver.c **** 	
 271:External/ili9341_tft_driver/Src/ili9341_tft_driver.c **** 	return status;
 272:External/ili9341_tft_driver/Src/ili9341_tft_driver.c **** }
 273:External/ili9341_tft_driver/Src/ili9341_tft_driver.c **** 
 274:External/ili9341_tft_driver/Src/ili9341_tft_driver.c **** __attribute__((always_inline))
 275:External/ili9341_tft_driver/Src/ili9341_tft_driver.c **** static inline uint16_t decolorize(const uint16_t *pixel)
 276:External/ili9341_tft_driver/Src/ili9341_tft_driver.c **** {
 277:External/ili9341_tft_driver/Src/ili9341_tft_driver.c **** 	uint8_t r = *pixel >> 11;
 278:External/ili9341_tft_driver/Src/ili9341_tft_driver.c **** 	uint8_t g = (*pixel >> 6) & 0x1f; // to 5 digits
 279:External/ili9341_tft_driver/Src/ili9341_tft_driver.c **** 	uint8_t b = *pixel & 0x1f;
 280:External/ili9341_tft_driver/Src/ili9341_tft_driver.c **** 	
 281:External/ili9341_tft_driver/Src/ili9341_tft_driver.c **** 	uint8_t grayscale = FAST_DIVIDE_BY_3(r + g + b);
 282:External/ili9341_tft_driver/Src/ili9341_tft_driver.c **** 
 283:External/ili9341_tft_driver/Src/ili9341_tft_driver.c **** 	return ((uint16_t)grayscale << 11) | ((uint16_t)grayscale << 6) | grayscale;
 284:External/ili9341_tft_driver/Src/ili9341_tft_driver.c **** }
 285:External/ili9341_tft_driver/Src/ili9341_tft_driver.c **** 
 286:External/ili9341_tft_driver/Src/ili9341_tft_driver.c **** static uint32_t ili9341_calculate_pixels_amount(ili9341_draw_area *const area)
 287:External/ili9341_tft_driver/Src/ili9341_tft_driver.c **** {
 288:External/ili9341_tft_driver/Src/ili9341_tft_driver.c **** 	return (area->end - area->start + 1) * (area->bottom - area->top + 1);
 289:External/ili9341_tft_driver/Src/ili9341_tft_driver.c **** }
 290:External/ili9341_tft_driver/Src/ili9341_tft_driver.c **** 
 291:External/ili9341_tft_driver/Src/ili9341_tft_driver.c **** ili9341_tft_driver_status ili9341_tft_driver_clear()
 292:External/ili9341_tft_driver/Src/ili9341_tft_driver.c **** {
 293:External/ili9341_tft_driver/Src/ili9341_tft_driver.c **** 	ili9341_draw_area max_area = ili9341_get_max_area();
 294:External/ili9341_tft_driver/Src/ili9341_tft_driver.c **** 	
 295:External/ili9341_tft_driver/Src/ili9341_tft_driver.c **** 	// For some reason, it doesnt work the first time in non-debug mode
 296:External/ili9341_tft_driver/Src/ili9341_tft_driver.c **** 	ili9341_tft_driver_status status = ili9341_tft_driver_fill_area(&max_area, 0x0);
 297:External/ili9341_tft_driver/Src/ili9341_tft_driver.c **** 	status |= ili9341_tft_driver_fill_area(&max_area, 0x0);
 298:External/ili9341_tft_driver/Src/ili9341_tft_driver.c **** 	
 299:External/ili9341_tft_driver/Src/ili9341_tft_driver.c **** 	return status;
 300:External/ili9341_tft_driver/Src/ili9341_tft_driver.c **** }
 301:External/ili9341_tft_driver/Src/ili9341_tft_driver.c **** 
 302:External/ili9341_tft_driver/Src/ili9341_tft_driver.c **** static ili9341_draw_area ili9341_get_max_area()
 303:External/ili9341_tft_driver/Src/ili9341_tft_driver.c **** {
ARM GAS  /tmp/ccS19chs.s 			page 7


 304:External/ili9341_tft_driver/Src/ili9341_tft_driver.c **** 	return (ili9341_draw_area) {
 305:External/ili9341_tft_driver/Src/ili9341_tft_driver.c **** 		.start = 0,
 306:External/ili9341_tft_driver/Src/ili9341_tft_driver.c **** 		.end = ILI9341_HRES - 1,
 307:External/ili9341_tft_driver/Src/ili9341_tft_driver.c **** 		.top = 0,
 308:External/ili9341_tft_driver/Src/ili9341_tft_driver.c **** 		.bottom = ILI9341_VRES - 1
 309:External/ili9341_tft_driver/Src/ili9341_tft_driver.c **** 	};
 310:External/ili9341_tft_driver/Src/ili9341_tft_driver.c **** }
 311:External/ili9341_tft_driver/Src/ili9341_tft_driver.c **** 
 312:External/ili9341_tft_driver/Src/ili9341_tft_driver.c **** __attribute__((always_inline))
 313:External/ili9341_tft_driver/Src/ili9341_tft_driver.c **** static inline bool is_not_safe_call(void *const function_ptr)
 314:External/ili9341_tft_driver/Src/ili9341_tft_driver.c **** {
 315:External/ili9341_tft_driver/Src/ili9341_tft_driver.c **** 	return io_struct == NULL || function_ptr == NULL;
 316:External/ili9341_tft_driver/Src/ili9341_tft_driver.c **** }
 317:External/ili9341_tft_driver/Src/ili9341_tft_driver.c **** 
 318:External/ili9341_tft_driver/Src/ili9341_tft_driver.c **** static ili9341_tft_driver_status io_init()
 319:External/ili9341_tft_driver/Src/ili9341_tft_driver.c **** {
 320:External/ili9341_tft_driver/Src/ili9341_tft_driver.c **** 	if (is_not_safe_call(io_struct->io_init))
 321:External/ili9341_tft_driver/Src/ili9341_tft_driver.c **** 		return ILI9341_ERROR;
 322:External/ili9341_tft_driver/Src/ili9341_tft_driver.c **** 	
 323:External/ili9341_tft_driver/Src/ili9341_tft_driver.c **** 	io_struct->io_init();
 324:External/ili9341_tft_driver/Src/ili9341_tft_driver.c **** 	
 325:External/ili9341_tft_driver/Src/ili9341_tft_driver.c **** 	return ILI9341_OK;
 326:External/ili9341_tft_driver/Src/ili9341_tft_driver.c **** }
 327:External/ili9341_tft_driver/Src/ili9341_tft_driver.c **** 
 328:External/ili9341_tft_driver/Src/ili9341_tft_driver.c **** __attribute__((always_inline))
 329:External/ili9341_tft_driver/Src/ili9341_tft_driver.c **** static inline ili9341_tft_driver_status io_write_data(uint16_t data)
 330:External/ili9341_tft_driver/Src/ili9341_tft_driver.c **** {
 331:External/ili9341_tft_driver/Src/ili9341_tft_driver.c **** 	if (is_not_safe_call(io_struct->io_write_data))
 332:External/ili9341_tft_driver/Src/ili9341_tft_driver.c **** 		return ILI9341_ERROR;
 333:External/ili9341_tft_driver/Src/ili9341_tft_driver.c **** 	
 334:External/ili9341_tft_driver/Src/ili9341_tft_driver.c **** 	io_struct->io_write_data(data);
 335:External/ili9341_tft_driver/Src/ili9341_tft_driver.c **** 	
 336:External/ili9341_tft_driver/Src/ili9341_tft_driver.c **** 	return ILI9341_OK;
 337:External/ili9341_tft_driver/Src/ili9341_tft_driver.c **** }
 338:External/ili9341_tft_driver/Src/ili9341_tft_driver.c **** 
 339:External/ili9341_tft_driver/Src/ili9341_tft_driver.c **** __attribute__((always_inline))
 340:External/ili9341_tft_driver/Src/ili9341_tft_driver.c **** static inline ili9341_tft_driver_status io_write_reg(uint16_t reg_value)
  41              		.loc 1 340 41 view .LVU2
  42              	.LBB294:
 341:External/ili9341_tft_driver/Src/ili9341_tft_driver.c **** {
 342:External/ili9341_tft_driver/Src/ili9341_tft_driver.c **** 	if (is_not_safe_call(io_struct->io_write_reg))
  43              		.loc 1 342 2 view .LVU3
  44              		.loc 1 342 32 is_stmt 0 view .LVU4
  45 0002 044B     		ldr	r3, .L4
  46 0004 1B68     		ldr	r3, [r3]
  47 0006 9A68     		ldr	r2, [r3, #8]
  48              	.LVL1:
  49              	.LBB295:
  50              	.LBI295:
 313:External/ili9341_tft_driver/Src/ili9341_tft_driver.c **** {
  51              		.loc 1 313 20 is_stmt 1 view .LVU5
  52              	.LBB296:
 315:External/ili9341_tft_driver/Src/ili9341_tft_driver.c **** }
  53              		.loc 1 315 2 view .LVU6
 315:External/ili9341_tft_driver/Src/ili9341_tft_driver.c **** }
  54              		.loc 1 315 27 is_stmt 0 view .LVU7
  55 0008 13B1     		cbz	r3, .L1
ARM GAS  /tmp/ccS19chs.s 			page 8


 315:External/ili9341_tft_driver/Src/ili9341_tft_driver.c **** }
  56              		.loc 1 315 27 discriminator 2 view .LVU8
  57 000a 0AB1     		cbz	r2, .L1
  58              	.LVL2:
 315:External/ili9341_tft_driver/Src/ili9341_tft_driver.c **** }
  59              		.loc 1 315 27 discriminator 2 view .LVU9
  60              	.LBE296:
  61              	.LBE295:
 343:External/ili9341_tft_driver/Src/ili9341_tft_driver.c **** 		return ILI9341_ERROR;
 344:External/ili9341_tft_driver/Src/ili9341_tft_driver.c **** 	
 345:External/ili9341_tft_driver/Src/ili9341_tft_driver.c **** 	io_struct->io_write_reg(reg_value);
  62              		.loc 1 345 2 is_stmt 1 view .LVU10
  63 000c 2920     		movs	r0, #41
  64 000e 9047     		blx	r2
  65              	.LVL3:
 346:External/ili9341_tft_driver/Src/ili9341_tft_driver.c **** 	
 347:External/ili9341_tft_driver/Src/ili9341_tft_driver.c **** 	return ILI9341_OK;
  66              		.loc 1 347 2 view .LVU11
  67              	.L1:
  68              		.loc 1 347 2 is_stmt 0 view .LVU12
  69              	.LBE294:
  70              	.LBE293:
 144:External/ili9341_tft_driver/Src/ili9341_tft_driver.c **** 
  71              		.loc 1 144 1 view .LVU13
  72 0010 08BD     		pop	{r3, pc}
  73              	.L5:
  74 0012 00BF     		.align	2
  75              	.L4:
  76 0014 00000000 		.word	io_struct
  77              		.cfi_endproc
  78              	.LFE4:
  80              		.section	.text.ili9341_is_not_valid_coordinates,"ax",%progbits
  81              		.align	1
  82              		.syntax unified
  83              		.thumb
  84              		.thumb_func
  86              	ili9341_is_not_valid_coordinates:
  87              	.LVL4:
  88              	.LFB8:
 185:External/ili9341_tft_driver/Src/ili9341_tft_driver.c **** 	return area->start > area->end ||
  89              		.loc 1 185 1 is_stmt 1 view -0
  90              		.cfi_startproc
  91              		@ args = 0, pretend = 0, frame = 0
  92              		@ frame_needed = 0, uses_anonymous_args = 0
  93              		@ link register save eliminated.
 186:External/ili9341_tft_driver/Src/ili9341_tft_driver.c **** 		area->end > ILI9341_HRES ||
  94              		.loc 1 186 2 view .LVU15
 186:External/ili9341_tft_driver/Src/ili9341_tft_driver.c **** 		area->end > ILI9341_HRES ||
  95              		.loc 1 186 13 is_stmt 0 view .LVU16
  96 0000 0288     		ldrh	r2, [r0]
 186:External/ili9341_tft_driver/Src/ili9341_tft_driver.c **** 		area->end > ILI9341_HRES ||
  97              		.loc 1 186 27 view .LVU17
  98 0002 4388     		ldrh	r3, [r0, #2]
 188:External/ili9341_tft_driver/Src/ili9341_tft_driver.c **** 		area->bottom > ILI9341_VRES;
  99              		.loc 1 188 28 view .LVU18
 100 0004 9A42     		cmp	r2, r3
 101 0006 0AD8     		bhi	.L8
ARM GAS  /tmp/ccS19chs.s 			page 9


 186:External/ili9341_tft_driver/Src/ili9341_tft_driver.c **** 		area->end > ILI9341_HRES ||
 102              		.loc 1 186 33 view .LVU19
 103 0008 B3F5A07F 		cmp	r3, #320
 104 000c 09D8     		bhi	.L9
 188:External/ili9341_tft_driver/Src/ili9341_tft_driver.c **** 		area->bottom > ILI9341_VRES;
 105              		.loc 1 188 7 view .LVU20
 106 000e 8288     		ldrh	r2, [r0, #4]
 188:External/ili9341_tft_driver/Src/ili9341_tft_driver.c **** 		area->bottom > ILI9341_VRES;
 107              		.loc 1 188 19 view .LVU21
 108 0010 C388     		ldrh	r3, [r0, #6]
 187:External/ili9341_tft_driver/Src/ili9341_tft_driver.c **** 		area->top > area->bottom ||
 109              		.loc 1 187 28 view .LVU22
 110 0012 9A42     		cmp	r2, r3
 111 0014 07D8     		bhi	.L10
 188:External/ili9341_tft_driver/Src/ili9341_tft_driver.c **** 		area->bottom > ILI9341_VRES;
 112              		.loc 1 188 28 discriminator 2 view .LVU23
 113 0016 F02B     		cmp	r3, #240
 114 0018 07D9     		bls	.L11
 188:External/ili9341_tft_driver/Src/ili9341_tft_driver.c **** 		area->bottom > ILI9341_VRES;
 115              		.loc 1 188 28 discriminator 1 view .LVU24
 116 001a 0120     		movs	r0, #1
 117              	.LVL5:
 188:External/ili9341_tft_driver/Src/ili9341_tft_driver.c **** 		area->bottom > ILI9341_VRES;
 118              		.loc 1 188 28 discriminator 1 view .LVU25
 119 001c 7047     		bx	lr
 120              	.LVL6:
 121              	.L8:
 188:External/ili9341_tft_driver/Src/ili9341_tft_driver.c **** 		area->bottom > ILI9341_VRES;
 122              		.loc 1 188 28 discriminator 1 view .LVU26
 123 001e 0120     		movs	r0, #1
 124              	.LVL7:
 188:External/ili9341_tft_driver/Src/ili9341_tft_driver.c **** 		area->bottom > ILI9341_VRES;
 125              		.loc 1 188 28 discriminator 1 view .LVU27
 126 0020 7047     		bx	lr
 127              	.LVL8:
 128              	.L9:
 188:External/ili9341_tft_driver/Src/ili9341_tft_driver.c **** 		area->bottom > ILI9341_VRES;
 129              		.loc 1 188 28 discriminator 1 view .LVU28
 130 0022 0120     		movs	r0, #1
 131              	.LVL9:
 188:External/ili9341_tft_driver/Src/ili9341_tft_driver.c **** 		area->bottom > ILI9341_VRES;
 132              		.loc 1 188 28 discriminator 1 view .LVU29
 133 0024 7047     		bx	lr
 134              	.LVL10:
 135              	.L10:
 188:External/ili9341_tft_driver/Src/ili9341_tft_driver.c **** 		area->bottom > ILI9341_VRES;
 136              		.loc 1 188 28 discriminator 1 view .LVU30
 137 0026 0120     		movs	r0, #1
 138              	.LVL11:
 188:External/ili9341_tft_driver/Src/ili9341_tft_driver.c **** 		area->bottom > ILI9341_VRES;
 139              		.loc 1 188 28 discriminator 1 view .LVU31
 140 0028 7047     		bx	lr
 141              	.LVL12:
 142              	.L11:
 188:External/ili9341_tft_driver/Src/ili9341_tft_driver.c **** 		area->bottom > ILI9341_VRES;
 143              		.loc 1 188 28 discriminator 3 view .LVU32
 144 002a 0020     		movs	r0, #0
ARM GAS  /tmp/ccS19chs.s 			page 10


 145              	.LVL13:
 190:External/ili9341_tft_driver/Src/ili9341_tft_driver.c **** 
 146              		.loc 1 190 1 view .LVU33
 147 002c 7047     		bx	lr
 148              		.cfi_endproc
 149              	.LFE8:
 151              		.section	.text.ili9341_write_x_coordinates,"ax",%progbits
 152              		.align	1
 153              		.syntax unified
 154              		.thumb
 155              		.thumb_func
 157              	ili9341_write_x_coordinates:
 158              	.LVL14:
 159              	.LFB9:
 193:External/ili9341_tft_driver/Src/ili9341_tft_driver.c **** 	ili9341_tft_driver_status status = io_write_reg(ILI9341_CMD_SETX);
 160              		.loc 1 193 1 is_stmt 1 view -0
 161              		.cfi_startproc
 162              		@ args = 0, pretend = 0, frame = 0
 163              		@ frame_needed = 0, uses_anonymous_args = 0
 193:External/ili9341_tft_driver/Src/ili9341_tft_driver.c **** 	ili9341_tft_driver_status status = io_write_reg(ILI9341_CMD_SETX);
 164              		.loc 1 193 1 is_stmt 0 view .LVU35
 165 0000 F8B5     		push	{r3, r4, r5, r6, r7, lr}
 166              	.LCFI1:
 167              		.cfi_def_cfa_offset 24
 168              		.cfi_offset 3, -24
 169              		.cfi_offset 4, -20
 170              		.cfi_offset 5, -16
 171              		.cfi_offset 6, -12
 172              		.cfi_offset 7, -8
 173              		.cfi_offset 14, -4
 174 0002 0646     		mov	r6, r0
 175 0004 0D46     		mov	r5, r1
 194:External/ili9341_tft_driver/Src/ili9341_tft_driver.c ****   status |= io_write_data(x0 >> 8);
 176              		.loc 1 194 2 is_stmt 1 view .LVU36
 177              	.LVL15:
 178              	.LBB297:
 179              	.LBI297:
 340:External/ili9341_tft_driver/Src/ili9341_tft_driver.c **** {
 180              		.loc 1 340 41 view .LVU37
 181              	.LBB298:
 342:External/ili9341_tft_driver/Src/ili9341_tft_driver.c **** 		return ILI9341_ERROR;
 182              		.loc 1 342 2 view .LVU38
 342:External/ili9341_tft_driver/Src/ili9341_tft_driver.c **** 		return ILI9341_ERROR;
 183              		.loc 1 342 32 is_stmt 0 view .LVU39
 184 0006 204B     		ldr	r3, .L29
 185 0008 1B68     		ldr	r3, [r3]
 186 000a 9A68     		ldr	r2, [r3, #8]
 187              	.LVL16:
 188              	.LBB299:
 189              	.LBI299:
 313:External/ili9341_tft_driver/Src/ili9341_tft_driver.c **** {
 190              		.loc 1 313 20 is_stmt 1 view .LVU40
 191              	.LBB300:
 315:External/ili9341_tft_driver/Src/ili9341_tft_driver.c **** }
 192              		.loc 1 315 2 view .LVU41
 315:External/ili9341_tft_driver/Src/ili9341_tft_driver.c **** }
 193              		.loc 1 315 27 is_stmt 0 view .LVU42
ARM GAS  /tmp/ccS19chs.s 			page 11


 194 000c 43B3     		cbz	r3, .L18
 315:External/ili9341_tft_driver/Src/ili9341_tft_driver.c **** }
 195              		.loc 1 315 27 discriminator 2 view .LVU43
 196 000e 4AB3     		cbz	r2, .L19
 197              	.LVL17:
 315:External/ili9341_tft_driver/Src/ili9341_tft_driver.c **** }
 198              		.loc 1 315 27 discriminator 2 view .LVU44
 199              	.LBE300:
 200              	.LBE299:
 345:External/ili9341_tft_driver/Src/ili9341_tft_driver.c **** 	
 201              		.loc 1 345 2 is_stmt 1 view .LVU45
 202 0010 2A20     		movs	r0, #42
 203              	.LVL18:
 345:External/ili9341_tft_driver/Src/ili9341_tft_driver.c **** 	
 204              		.loc 1 345 2 is_stmt 0 view .LVU46
 205 0012 9047     		blx	r2
 206              	.LVL19:
 207              		.loc 1 347 2 is_stmt 1 view .LVU47
 208              		.loc 1 347 9 is_stmt 0 view .LVU48
 209 0014 0027     		movs	r7, #0
 210              	.L13:
 211              	.LVL20:
 212              		.loc 1 347 9 view .LVU49
 213              	.LBE298:
 214              	.LBE297:
 195:External/ili9341_tft_driver/Src/ili9341_tft_driver.c ****   status |= io_write_data(x0 & 0xFF);
 215              		.loc 1 195 3 is_stmt 1 view .LVU50
 195:External/ili9341_tft_driver/Src/ili9341_tft_driver.c ****   status |= io_write_data(x0 & 0xFF);
 216              		.loc 1 195 13 is_stmt 0 view .LVU51
 217 0016 300A     		lsrs	r0, r6, #8
 218              	.LVL21:
 219              	.LBB302:
 220              	.LBI302:
 329:External/ili9341_tft_driver/Src/ili9341_tft_driver.c **** {
 221              		.loc 1 329 41 is_stmt 1 view .LVU52
 222              	.LBB303:
 331:External/ili9341_tft_driver/Src/ili9341_tft_driver.c **** 		return ILI9341_ERROR;
 223              		.loc 1 331 2 view .LVU53
 331:External/ili9341_tft_driver/Src/ili9341_tft_driver.c **** 		return ILI9341_ERROR;
 224              		.loc 1 331 32 is_stmt 0 view .LVU54
 225 0018 1B4B     		ldr	r3, .L29
 226 001a 1B68     		ldr	r3, [r3]
 227 001c 5A68     		ldr	r2, [r3, #4]
 228              	.LVL22:
 229              	.LBB304:
 230              	.LBI304:
 313:External/ili9341_tft_driver/Src/ili9341_tft_driver.c **** {
 231              		.loc 1 313 20 is_stmt 1 view .LVU55
 232              	.LBB305:
 315:External/ili9341_tft_driver/Src/ili9341_tft_driver.c **** }
 233              		.loc 1 315 2 view .LVU56
 315:External/ili9341_tft_driver/Src/ili9341_tft_driver.c **** }
 234              		.loc 1 315 27 is_stmt 0 view .LVU57
 235 001e 1BB3     		cbz	r3, .L20
 315:External/ili9341_tft_driver/Src/ili9341_tft_driver.c **** }
 236              		.loc 1 315 27 discriminator 2 view .LVU58
 237 0020 22B3     		cbz	r2, .L21
ARM GAS  /tmp/ccS19chs.s 			page 12


 238              	.LVL23:
 315:External/ili9341_tft_driver/Src/ili9341_tft_driver.c **** }
 239              		.loc 1 315 27 discriminator 2 view .LVU59
 240              	.LBE305:
 241              	.LBE304:
 334:External/ili9341_tft_driver/Src/ili9341_tft_driver.c **** 	
 242              		.loc 1 334 2 is_stmt 1 view .LVU60
 243 0022 9047     		blx	r2
 244              	.LVL24:
 336:External/ili9341_tft_driver/Src/ili9341_tft_driver.c **** }
 245              		.loc 1 336 2 view .LVU61
 336:External/ili9341_tft_driver/Src/ili9341_tft_driver.c **** }
 246              		.loc 1 336 9 is_stmt 0 view .LVU62
 247 0024 0024     		movs	r4, #0
 248              	.L14:
 249              	.LVL25:
 336:External/ili9341_tft_driver/Src/ili9341_tft_driver.c **** }
 250              		.loc 1 336 9 view .LVU63
 251              	.LBE303:
 252              	.LBE302:
 195:External/ili9341_tft_driver/Src/ili9341_tft_driver.c ****   status |= io_write_data(x0 & 0xFF);
 253              		.loc 1 195 10 discriminator 1 view .LVU64
 254 0026 3C43     		orrs	r4, r4, r7
 255              	.LVL26:
 196:External/ili9341_tft_driver/Src/ili9341_tft_driver.c ****   status |= io_write_data(x1 >> 8);
 256              		.loc 1 196 3 is_stmt 1 view .LVU65
 196:External/ili9341_tft_driver/Src/ili9341_tft_driver.c ****   status |= io_write_data(x1 >> 8);
 257              		.loc 1 196 13 is_stmt 0 view .LVU66
 258 0028 F0B2     		uxtb	r0, r6
 259              	.LVL27:
 260              	.LBB307:
 261              	.LBI307:
 329:External/ili9341_tft_driver/Src/ili9341_tft_driver.c **** {
 262              		.loc 1 329 41 is_stmt 1 view .LVU67
 263              	.LBB308:
 331:External/ili9341_tft_driver/Src/ili9341_tft_driver.c **** 		return ILI9341_ERROR;
 264              		.loc 1 331 2 view .LVU68
 331:External/ili9341_tft_driver/Src/ili9341_tft_driver.c **** 		return ILI9341_ERROR;
 265              		.loc 1 331 32 is_stmt 0 view .LVU69
 266 002a 174B     		ldr	r3, .L29
 267 002c 1B68     		ldr	r3, [r3]
 268 002e 5A68     		ldr	r2, [r3, #4]
 269              	.LVL28:
 270              	.LBB309:
 271              	.LBI309:
 313:External/ili9341_tft_driver/Src/ili9341_tft_driver.c **** {
 272              		.loc 1 313 20 is_stmt 1 view .LVU70
 273              	.LBB310:
 315:External/ili9341_tft_driver/Src/ili9341_tft_driver.c **** }
 274              		.loc 1 315 2 view .LVU71
 315:External/ili9341_tft_driver/Src/ili9341_tft_driver.c **** }
 275              		.loc 1 315 27 is_stmt 0 view .LVU72
 276 0030 F3B1     		cbz	r3, .L22
 315:External/ili9341_tft_driver/Src/ili9341_tft_driver.c **** }
 277              		.loc 1 315 27 discriminator 2 view .LVU73
 278 0032 FAB1     		cbz	r2, .L23
 279              	.LVL29:
ARM GAS  /tmp/ccS19chs.s 			page 13


 315:External/ili9341_tft_driver/Src/ili9341_tft_driver.c **** }
 280              		.loc 1 315 27 discriminator 2 view .LVU74
 281              	.LBE310:
 282              	.LBE309:
 334:External/ili9341_tft_driver/Src/ili9341_tft_driver.c **** 	
 283              		.loc 1 334 2 is_stmt 1 view .LVU75
 284 0034 9047     		blx	r2
 285              	.LVL30:
 336:External/ili9341_tft_driver/Src/ili9341_tft_driver.c **** }
 286              		.loc 1 336 2 view .LVU76
 336:External/ili9341_tft_driver/Src/ili9341_tft_driver.c **** }
 287              		.loc 1 336 9 is_stmt 0 view .LVU77
 288 0036 0023     		movs	r3, #0
 289              	.L15:
 290              	.LVL31:
 336:External/ili9341_tft_driver/Src/ili9341_tft_driver.c **** }
 291              		.loc 1 336 9 view .LVU78
 292              	.LBE308:
 293              	.LBE307:
 196:External/ili9341_tft_driver/Src/ili9341_tft_driver.c ****   status |= io_write_data(x1 >> 8);
 294              		.loc 1 196 10 discriminator 1 view .LVU79
 295 0038 1C43     		orrs	r4, r4, r3
 296              	.LVL32:
 197:External/ili9341_tft_driver/Src/ili9341_tft_driver.c ****   status |= io_write_data(x1 & 0xFF);
 297              		.loc 1 197 3 is_stmt 1 view .LVU80
 197:External/ili9341_tft_driver/Src/ili9341_tft_driver.c ****   status |= io_write_data(x1 & 0xFF);
 298              		.loc 1 197 13 is_stmt 0 view .LVU81
 299 003a 280A     		lsrs	r0, r5, #8
 300              	.LVL33:
 301              	.LBB312:
 302              	.LBI312:
 329:External/ili9341_tft_driver/Src/ili9341_tft_driver.c **** {
 303              		.loc 1 329 41 is_stmt 1 view .LVU82
 304              	.LBB313:
 331:External/ili9341_tft_driver/Src/ili9341_tft_driver.c **** 		return ILI9341_ERROR;
 305              		.loc 1 331 2 view .LVU83
 331:External/ili9341_tft_driver/Src/ili9341_tft_driver.c **** 		return ILI9341_ERROR;
 306              		.loc 1 331 32 is_stmt 0 view .LVU84
 307 003c 124B     		ldr	r3, .L29
 308 003e 1B68     		ldr	r3, [r3]
 309 0040 5A68     		ldr	r2, [r3, #4]
 310              	.LVL34:
 311              	.LBB314:
 312              	.LBI314:
 313:External/ili9341_tft_driver/Src/ili9341_tft_driver.c **** {
 313              		.loc 1 313 20 is_stmt 1 view .LVU85
 314              	.LBB315:
 315:External/ili9341_tft_driver/Src/ili9341_tft_driver.c **** }
 315              		.loc 1 315 2 view .LVU86
 315:External/ili9341_tft_driver/Src/ili9341_tft_driver.c **** }
 316              		.loc 1 315 27 is_stmt 0 view .LVU87
 317 0042 CBB1     		cbz	r3, .L24
 315:External/ili9341_tft_driver/Src/ili9341_tft_driver.c **** }
 318              		.loc 1 315 27 discriminator 2 view .LVU88
 319 0044 D2B1     		cbz	r2, .L25
 320              	.LVL35:
 315:External/ili9341_tft_driver/Src/ili9341_tft_driver.c **** }
ARM GAS  /tmp/ccS19chs.s 			page 14


 321              		.loc 1 315 27 discriminator 2 view .LVU89
 322              	.LBE315:
 323              	.LBE314:
 334:External/ili9341_tft_driver/Src/ili9341_tft_driver.c **** 	
 324              		.loc 1 334 2 is_stmt 1 view .LVU90
 325 0046 9047     		blx	r2
 326              	.LVL36:
 336:External/ili9341_tft_driver/Src/ili9341_tft_driver.c **** }
 327              		.loc 1 336 2 view .LVU91
 336:External/ili9341_tft_driver/Src/ili9341_tft_driver.c **** }
 328              		.loc 1 336 9 is_stmt 0 view .LVU92
 329 0048 0023     		movs	r3, #0
 330              	.L16:
 331              	.LVL37:
 336:External/ili9341_tft_driver/Src/ili9341_tft_driver.c **** }
 332              		.loc 1 336 9 view .LVU93
 333              	.LBE313:
 334              	.LBE312:
 197:External/ili9341_tft_driver/Src/ili9341_tft_driver.c ****   status |= io_write_data(x1 & 0xFF);
 335              		.loc 1 197 10 discriminator 1 view .LVU94
 336 004a 1C43     		orrs	r4, r4, r3
 337              	.LVL38:
 198:External/ili9341_tft_driver/Src/ili9341_tft_driver.c **** 	
 338              		.loc 1 198 3 is_stmt 1 view .LVU95
 198:External/ili9341_tft_driver/Src/ili9341_tft_driver.c **** 	
 339              		.loc 1 198 13 is_stmt 0 view .LVU96
 340 004c E8B2     		uxtb	r0, r5
 341              	.LVL39:
 342              	.LBB317:
 343              	.LBI317:
 329:External/ili9341_tft_driver/Src/ili9341_tft_driver.c **** {
 344              		.loc 1 329 41 is_stmt 1 view .LVU97
 345              	.LBB318:
 331:External/ili9341_tft_driver/Src/ili9341_tft_driver.c **** 		return ILI9341_ERROR;
 346              		.loc 1 331 2 view .LVU98
 331:External/ili9341_tft_driver/Src/ili9341_tft_driver.c **** 		return ILI9341_ERROR;
 347              		.loc 1 331 32 is_stmt 0 view .LVU99
 348 004e 0E4B     		ldr	r3, .L29
 349 0050 1B68     		ldr	r3, [r3]
 350 0052 5A68     		ldr	r2, [r3, #4]
 351              	.LVL40:
 352              	.LBB319:
 353              	.LBI319:
 313:External/ili9341_tft_driver/Src/ili9341_tft_driver.c **** {
 354              		.loc 1 313 20 is_stmt 1 view .LVU100
 355              	.LBB320:
 315:External/ili9341_tft_driver/Src/ili9341_tft_driver.c **** }
 356              		.loc 1 315 2 view .LVU101
 315:External/ili9341_tft_driver/Src/ili9341_tft_driver.c **** }
 357              		.loc 1 315 27 is_stmt 0 view .LVU102
 358 0054 A3B1     		cbz	r3, .L26
 315:External/ili9341_tft_driver/Src/ili9341_tft_driver.c **** }
 359              		.loc 1 315 27 discriminator 2 view .LVU103
 360 0056 AAB1     		cbz	r2, .L27
 361              	.LVL41:
 315:External/ili9341_tft_driver/Src/ili9341_tft_driver.c **** }
 362              		.loc 1 315 27 discriminator 2 view .LVU104
ARM GAS  /tmp/ccS19chs.s 			page 15


 363              	.LBE320:
 364              	.LBE319:
 334:External/ili9341_tft_driver/Src/ili9341_tft_driver.c **** 	
 365              		.loc 1 334 2 is_stmt 1 view .LVU105
 366 0058 9047     		blx	r2
 367              	.LVL42:
 336:External/ili9341_tft_driver/Src/ili9341_tft_driver.c **** }
 368              		.loc 1 336 2 view .LVU106
 336:External/ili9341_tft_driver/Src/ili9341_tft_driver.c **** }
 369              		.loc 1 336 9 is_stmt 0 view .LVU107
 370 005a 0020     		movs	r0, #0
 371              	.L17:
 372              	.LVL43:
 336:External/ili9341_tft_driver/Src/ili9341_tft_driver.c **** }
 373              		.loc 1 336 9 view .LVU108
 374              	.LBE318:
 375              	.LBE317:
 200:External/ili9341_tft_driver/Src/ili9341_tft_driver.c **** }
 376              		.loc 1 200 2 is_stmt 1 view .LVU109
 201:External/ili9341_tft_driver/Src/ili9341_tft_driver.c **** 
 377              		.loc 1 201 1 is_stmt 0 view .LVU110
 378 005c 2043     		orrs	r0, r0, r4
 379              	.LVL44:
 201:External/ili9341_tft_driver/Src/ili9341_tft_driver.c **** 
 380              		.loc 1 201 1 view .LVU111
 381 005e F8BD     		pop	{r3, r4, r5, r6, r7, pc}
 382              	.LVL45:
 383              	.L18:
 384              	.LBB322:
 385              	.LBB301:
 343:External/ili9341_tft_driver/Src/ili9341_tft_driver.c **** 	
 386              		.loc 1 343 10 view .LVU112
 387 0060 0127     		movs	r7, #1
 388 0062 D8E7     		b	.L13
 389              	.L19:
 390 0064 0127     		movs	r7, #1
 391 0066 D6E7     		b	.L13
 392              	.LVL46:
 393              	.L20:
 343:External/ili9341_tft_driver/Src/ili9341_tft_driver.c **** 	
 394              		.loc 1 343 10 view .LVU113
 395              	.LBE301:
 396              	.LBE322:
 397              	.LBB323:
 398              	.LBB306:
 332:External/ili9341_tft_driver/Src/ili9341_tft_driver.c **** 	
 399              		.loc 1 332 10 view .LVU114
 400 0068 0124     		movs	r4, #1
 401 006a DCE7     		b	.L14
 402              	.L21:
 403 006c 0124     		movs	r4, #1
 404 006e DAE7     		b	.L14
 405              	.LVL47:
 406              	.L22:
 332:External/ili9341_tft_driver/Src/ili9341_tft_driver.c **** 	
 407              		.loc 1 332 10 view .LVU115
 408              	.LBE306:
ARM GAS  /tmp/ccS19chs.s 			page 16


 409              	.LBE323:
 410              	.LBB324:
 411              	.LBB311:
 412 0070 0123     		movs	r3, #1
 413 0072 E1E7     		b	.L15
 414              	.L23:
 415 0074 0123     		movs	r3, #1
 416 0076 DFE7     		b	.L15
 417              	.LVL48:
 418              	.L24:
 332:External/ili9341_tft_driver/Src/ili9341_tft_driver.c **** 	
 419              		.loc 1 332 10 view .LVU116
 420              	.LBE311:
 421              	.LBE324:
 422              	.LBB325:
 423              	.LBB316:
 424 0078 0123     		movs	r3, #1
 425 007a E6E7     		b	.L16
 426              	.L25:
 427 007c 0123     		movs	r3, #1
 428 007e E4E7     		b	.L16
 429              	.LVL49:
 430              	.L26:
 332:External/ili9341_tft_driver/Src/ili9341_tft_driver.c **** 	
 431              		.loc 1 332 10 view .LVU117
 432              	.LBE316:
 433              	.LBE325:
 434              	.LBB326:
 435              	.LBB321:
 436 0080 0120     		movs	r0, #1
 437              	.LVL50:
 332:External/ili9341_tft_driver/Src/ili9341_tft_driver.c **** 	
 438              		.loc 1 332 10 view .LVU118
 439 0082 EBE7     		b	.L17
 440              	.LVL51:
 441              	.L27:
 332:External/ili9341_tft_driver/Src/ili9341_tft_driver.c **** 	
 442              		.loc 1 332 10 view .LVU119
 443 0084 0120     		movs	r0, #1
 444              	.LVL52:
 332:External/ili9341_tft_driver/Src/ili9341_tft_driver.c **** 	
 445              		.loc 1 332 10 view .LVU120
 446 0086 E9E7     		b	.L17
 447              	.L30:
 448              		.align	2
 449              	.L29:
 450 0088 00000000 		.word	io_struct
 451              	.LBE321:
 452              	.LBE326:
 453              		.cfi_endproc
 454              	.LFE9:
 456              		.section	.text.ili9341_write_y_coordinates,"ax",%progbits
 457              		.align	1
 458              		.syntax unified
 459              		.thumb
 460              		.thumb_func
 462              	ili9341_write_y_coordinates:
ARM GAS  /tmp/ccS19chs.s 			page 17


 463              	.LVL53:
 464              	.LFB10:
 204:External/ili9341_tft_driver/Src/ili9341_tft_driver.c **** 	ili9341_tft_driver_status status = io_write_reg(ILI9341_CMD_SETY);
 465              		.loc 1 204 1 is_stmt 1 view -0
 466              		.cfi_startproc
 467              		@ args = 0, pretend = 0, frame = 0
 468              		@ frame_needed = 0, uses_anonymous_args = 0
 204:External/ili9341_tft_driver/Src/ili9341_tft_driver.c **** 	ili9341_tft_driver_status status = io_write_reg(ILI9341_CMD_SETY);
 469              		.loc 1 204 1 is_stmt 0 view .LVU122
 470 0000 F8B5     		push	{r3, r4, r5, r6, r7, lr}
 471              	.LCFI2:
 472              		.cfi_def_cfa_offset 24
 473              		.cfi_offset 3, -24
 474              		.cfi_offset 4, -20
 475              		.cfi_offset 5, -16
 476              		.cfi_offset 6, -12
 477              		.cfi_offset 7, -8
 478              		.cfi_offset 14, -4
 479 0002 0646     		mov	r6, r0
 480 0004 0D46     		mov	r5, r1
 205:External/ili9341_tft_driver/Src/ili9341_tft_driver.c ****   status |= io_write_data(y0 >> 8);
 481              		.loc 1 205 2 is_stmt 1 view .LVU123
 482              	.LVL54:
 483              	.LBB327:
 484              	.LBI327:
 340:External/ili9341_tft_driver/Src/ili9341_tft_driver.c **** {
 485              		.loc 1 340 41 view .LVU124
 486              	.LBB328:
 342:External/ili9341_tft_driver/Src/ili9341_tft_driver.c **** 		return ILI9341_ERROR;
 487              		.loc 1 342 2 view .LVU125
 342:External/ili9341_tft_driver/Src/ili9341_tft_driver.c **** 		return ILI9341_ERROR;
 488              		.loc 1 342 32 is_stmt 0 view .LVU126
 489 0006 204B     		ldr	r3, .L48
 490 0008 1B68     		ldr	r3, [r3]
 491 000a 9A68     		ldr	r2, [r3, #8]
 492              	.LVL55:
 493              	.LBB329:
 494              	.LBI329:
 313:External/ili9341_tft_driver/Src/ili9341_tft_driver.c **** {
 495              		.loc 1 313 20 is_stmt 1 view .LVU127
 496              	.LBB330:
 315:External/ili9341_tft_driver/Src/ili9341_tft_driver.c **** }
 497              		.loc 1 315 2 view .LVU128
 315:External/ili9341_tft_driver/Src/ili9341_tft_driver.c **** }
 498              		.loc 1 315 27 is_stmt 0 view .LVU129
 499 000c 43B3     		cbz	r3, .L37
 315:External/ili9341_tft_driver/Src/ili9341_tft_driver.c **** }
 500              		.loc 1 315 27 discriminator 2 view .LVU130
 501 000e 4AB3     		cbz	r2, .L38
 502              	.LVL56:
 315:External/ili9341_tft_driver/Src/ili9341_tft_driver.c **** }
 503              		.loc 1 315 27 discriminator 2 view .LVU131
 504              	.LBE330:
 505              	.LBE329:
 345:External/ili9341_tft_driver/Src/ili9341_tft_driver.c **** 	
 506              		.loc 1 345 2 is_stmt 1 view .LVU132
 507 0010 2B20     		movs	r0, #43
ARM GAS  /tmp/ccS19chs.s 			page 18


 508              	.LVL57:
 345:External/ili9341_tft_driver/Src/ili9341_tft_driver.c **** 	
 509              		.loc 1 345 2 is_stmt 0 view .LVU133
 510 0012 9047     		blx	r2
 511              	.LVL58:
 512              		.loc 1 347 2 is_stmt 1 view .LVU134
 513              		.loc 1 347 9 is_stmt 0 view .LVU135
 514 0014 0027     		movs	r7, #0
 515              	.L32:
 516              	.LVL59:
 517              		.loc 1 347 9 view .LVU136
 518              	.LBE328:
 519              	.LBE327:
 206:External/ili9341_tft_driver/Src/ili9341_tft_driver.c ****   status |= io_write_data(y0 & 0xFF);
 520              		.loc 1 206 3 is_stmt 1 view .LVU137
 206:External/ili9341_tft_driver/Src/ili9341_tft_driver.c ****   status |= io_write_data(y0 & 0xFF);
 521              		.loc 1 206 13 is_stmt 0 view .LVU138
 522 0016 300A     		lsrs	r0, r6, #8
 523              	.LVL60:
 524              	.LBB332:
 525              	.LBI332:
 329:External/ili9341_tft_driver/Src/ili9341_tft_driver.c **** {
 526              		.loc 1 329 41 is_stmt 1 view .LVU139
 527              	.LBB333:
 331:External/ili9341_tft_driver/Src/ili9341_tft_driver.c **** 		return ILI9341_ERROR;
 528              		.loc 1 331 2 view .LVU140
 331:External/ili9341_tft_driver/Src/ili9341_tft_driver.c **** 		return ILI9341_ERROR;
 529              		.loc 1 331 32 is_stmt 0 view .LVU141
 530 0018 1B4B     		ldr	r3, .L48
 531 001a 1B68     		ldr	r3, [r3]
 532 001c 5A68     		ldr	r2, [r3, #4]
 533              	.LVL61:
 534              	.LBB334:
 535              	.LBI334:
 313:External/ili9341_tft_driver/Src/ili9341_tft_driver.c **** {
 536              		.loc 1 313 20 is_stmt 1 view .LVU142
 537              	.LBB335:
 315:External/ili9341_tft_driver/Src/ili9341_tft_driver.c **** }
 538              		.loc 1 315 2 view .LVU143
 315:External/ili9341_tft_driver/Src/ili9341_tft_driver.c **** }
 539              		.loc 1 315 27 is_stmt 0 view .LVU144
 540 001e 1BB3     		cbz	r3, .L39
 315:External/ili9341_tft_driver/Src/ili9341_tft_driver.c **** }
 541              		.loc 1 315 27 discriminator 2 view .LVU145
 542 0020 22B3     		cbz	r2, .L40
 543              	.LVL62:
 315:External/ili9341_tft_driver/Src/ili9341_tft_driver.c **** }
 544              		.loc 1 315 27 discriminator 2 view .LVU146
 545              	.LBE335:
 546              	.LBE334:
 334:External/ili9341_tft_driver/Src/ili9341_tft_driver.c **** 	
 547              		.loc 1 334 2 is_stmt 1 view .LVU147
 548 0022 9047     		blx	r2
 549              	.LVL63:
 336:External/ili9341_tft_driver/Src/ili9341_tft_driver.c **** }
 550              		.loc 1 336 2 view .LVU148
 336:External/ili9341_tft_driver/Src/ili9341_tft_driver.c **** }
ARM GAS  /tmp/ccS19chs.s 			page 19


 551              		.loc 1 336 9 is_stmt 0 view .LVU149
 552 0024 0024     		movs	r4, #0
 553              	.L33:
 554              	.LVL64:
 336:External/ili9341_tft_driver/Src/ili9341_tft_driver.c **** }
 555              		.loc 1 336 9 view .LVU150
 556              	.LBE333:
 557              	.LBE332:
 206:External/ili9341_tft_driver/Src/ili9341_tft_driver.c ****   status |= io_write_data(y0 & 0xFF);
 558              		.loc 1 206 10 discriminator 1 view .LVU151
 559 0026 3C43     		orrs	r4, r4, r7
 560              	.LVL65:
 207:External/ili9341_tft_driver/Src/ili9341_tft_driver.c ****   status |= io_write_data(y1 >> 8);
 561              		.loc 1 207 3 is_stmt 1 view .LVU152
 207:External/ili9341_tft_driver/Src/ili9341_tft_driver.c ****   status |= io_write_data(y1 >> 8);
 562              		.loc 1 207 13 is_stmt 0 view .LVU153
 563 0028 F0B2     		uxtb	r0, r6
 564              	.LVL66:
 565              	.LBB337:
 566              	.LBI337:
 329:External/ili9341_tft_driver/Src/ili9341_tft_driver.c **** {
 567              		.loc 1 329 41 is_stmt 1 view .LVU154
 568              	.LBB338:
 331:External/ili9341_tft_driver/Src/ili9341_tft_driver.c **** 		return ILI9341_ERROR;
 569              		.loc 1 331 2 view .LVU155
 331:External/ili9341_tft_driver/Src/ili9341_tft_driver.c **** 		return ILI9341_ERROR;
 570              		.loc 1 331 32 is_stmt 0 view .LVU156
 571 002a 174B     		ldr	r3, .L48
 572 002c 1B68     		ldr	r3, [r3]
 573 002e 5A68     		ldr	r2, [r3, #4]
 574              	.LVL67:
 575              	.LBB339:
 576              	.LBI339:
 313:External/ili9341_tft_driver/Src/ili9341_tft_driver.c **** {
 577              		.loc 1 313 20 is_stmt 1 view .LVU157
 578              	.LBB340:
 315:External/ili9341_tft_driver/Src/ili9341_tft_driver.c **** }
 579              		.loc 1 315 2 view .LVU158
 315:External/ili9341_tft_driver/Src/ili9341_tft_driver.c **** }
 580              		.loc 1 315 27 is_stmt 0 view .LVU159
 581 0030 F3B1     		cbz	r3, .L41
 315:External/ili9341_tft_driver/Src/ili9341_tft_driver.c **** }
 582              		.loc 1 315 27 discriminator 2 view .LVU160
 583 0032 FAB1     		cbz	r2, .L42
 584              	.LVL68:
 315:External/ili9341_tft_driver/Src/ili9341_tft_driver.c **** }
 585              		.loc 1 315 27 discriminator 2 view .LVU161
 586              	.LBE340:
 587              	.LBE339:
 334:External/ili9341_tft_driver/Src/ili9341_tft_driver.c **** 	
 588              		.loc 1 334 2 is_stmt 1 view .LVU162
 589 0034 9047     		blx	r2
 590              	.LVL69:
 336:External/ili9341_tft_driver/Src/ili9341_tft_driver.c **** }
 591              		.loc 1 336 2 view .LVU163
 336:External/ili9341_tft_driver/Src/ili9341_tft_driver.c **** }
 592              		.loc 1 336 9 is_stmt 0 view .LVU164
ARM GAS  /tmp/ccS19chs.s 			page 20


 593 0036 0023     		movs	r3, #0
 594              	.L34:
 595              	.LVL70:
 336:External/ili9341_tft_driver/Src/ili9341_tft_driver.c **** }
 596              		.loc 1 336 9 view .LVU165
 597              	.LBE338:
 598              	.LBE337:
 207:External/ili9341_tft_driver/Src/ili9341_tft_driver.c ****   status |= io_write_data(y1 >> 8);
 599              		.loc 1 207 10 discriminator 1 view .LVU166
 600 0038 1C43     		orrs	r4, r4, r3
 601              	.LVL71:
 208:External/ili9341_tft_driver/Src/ili9341_tft_driver.c ****   status |= io_write_data(y1 & 0xFF);
 602              		.loc 1 208 3 is_stmt 1 view .LVU167
 208:External/ili9341_tft_driver/Src/ili9341_tft_driver.c ****   status |= io_write_data(y1 & 0xFF);
 603              		.loc 1 208 13 is_stmt 0 view .LVU168
 604 003a 280A     		lsrs	r0, r5, #8
 605              	.LVL72:
 606              	.LBB342:
 607              	.LBI342:
 329:External/ili9341_tft_driver/Src/ili9341_tft_driver.c **** {
 608              		.loc 1 329 41 is_stmt 1 view .LVU169
 609              	.LBB343:
 331:External/ili9341_tft_driver/Src/ili9341_tft_driver.c **** 		return ILI9341_ERROR;
 610              		.loc 1 331 2 view .LVU170
 331:External/ili9341_tft_driver/Src/ili9341_tft_driver.c **** 		return ILI9341_ERROR;
 611              		.loc 1 331 32 is_stmt 0 view .LVU171
 612 003c 124B     		ldr	r3, .L48
 613 003e 1B68     		ldr	r3, [r3]
 614 0040 5A68     		ldr	r2, [r3, #4]
 615              	.LVL73:
 616              	.LBB344:
 617              	.LBI344:
 313:External/ili9341_tft_driver/Src/ili9341_tft_driver.c **** {
 618              		.loc 1 313 20 is_stmt 1 view .LVU172
 619              	.LBB345:
 315:External/ili9341_tft_driver/Src/ili9341_tft_driver.c **** }
 620              		.loc 1 315 2 view .LVU173
 315:External/ili9341_tft_driver/Src/ili9341_tft_driver.c **** }
 621              		.loc 1 315 27 is_stmt 0 view .LVU174
 622 0042 CBB1     		cbz	r3, .L43
 315:External/ili9341_tft_driver/Src/ili9341_tft_driver.c **** }
 623              		.loc 1 315 27 discriminator 2 view .LVU175
 624 0044 D2B1     		cbz	r2, .L44
 625              	.LVL74:
 315:External/ili9341_tft_driver/Src/ili9341_tft_driver.c **** }
 626              		.loc 1 315 27 discriminator 2 view .LVU176
 627              	.LBE345:
 628              	.LBE344:
 334:External/ili9341_tft_driver/Src/ili9341_tft_driver.c **** 	
 629              		.loc 1 334 2 is_stmt 1 view .LVU177
 630 0046 9047     		blx	r2
 631              	.LVL75:
 336:External/ili9341_tft_driver/Src/ili9341_tft_driver.c **** }
 632              		.loc 1 336 2 view .LVU178
 336:External/ili9341_tft_driver/Src/ili9341_tft_driver.c **** }
 633              		.loc 1 336 9 is_stmt 0 view .LVU179
 634 0048 0023     		movs	r3, #0
ARM GAS  /tmp/ccS19chs.s 			page 21


 635              	.L35:
 636              	.LVL76:
 336:External/ili9341_tft_driver/Src/ili9341_tft_driver.c **** }
 637              		.loc 1 336 9 view .LVU180
 638              	.LBE343:
 639              	.LBE342:
 208:External/ili9341_tft_driver/Src/ili9341_tft_driver.c ****   status |= io_write_data(y1 & 0xFF);
 640              		.loc 1 208 10 discriminator 1 view .LVU181
 641 004a 1C43     		orrs	r4, r4, r3
 642              	.LVL77:
 209:External/ili9341_tft_driver/Src/ili9341_tft_driver.c **** 	
 643              		.loc 1 209 3 is_stmt 1 view .LVU182
 209:External/ili9341_tft_driver/Src/ili9341_tft_driver.c **** 	
 644              		.loc 1 209 13 is_stmt 0 view .LVU183
 645 004c E8B2     		uxtb	r0, r5
 646              	.LVL78:
 647              	.LBB347:
 648              	.LBI347:
 329:External/ili9341_tft_driver/Src/ili9341_tft_driver.c **** {
 649              		.loc 1 329 41 is_stmt 1 view .LVU184
 650              	.LBB348:
 331:External/ili9341_tft_driver/Src/ili9341_tft_driver.c **** 		return ILI9341_ERROR;
 651              		.loc 1 331 2 view .LVU185
 331:External/ili9341_tft_driver/Src/ili9341_tft_driver.c **** 		return ILI9341_ERROR;
 652              		.loc 1 331 32 is_stmt 0 view .LVU186
 653 004e 0E4B     		ldr	r3, .L48
 654 0050 1B68     		ldr	r3, [r3]
 655 0052 5A68     		ldr	r2, [r3, #4]
 656              	.LVL79:
 657              	.LBB349:
 658              	.LBI349:
 313:External/ili9341_tft_driver/Src/ili9341_tft_driver.c **** {
 659              		.loc 1 313 20 is_stmt 1 view .LVU187
 660              	.LBB350:
 315:External/ili9341_tft_driver/Src/ili9341_tft_driver.c **** }
 661              		.loc 1 315 2 view .LVU188
 315:External/ili9341_tft_driver/Src/ili9341_tft_driver.c **** }
 662              		.loc 1 315 27 is_stmt 0 view .LVU189
 663 0054 A3B1     		cbz	r3, .L45
 315:External/ili9341_tft_driver/Src/ili9341_tft_driver.c **** }
 664              		.loc 1 315 27 discriminator 2 view .LVU190
 665 0056 AAB1     		cbz	r2, .L46
 666              	.LVL80:
 315:External/ili9341_tft_driver/Src/ili9341_tft_driver.c **** }
 667              		.loc 1 315 27 discriminator 2 view .LVU191
 668              	.LBE350:
 669              	.LBE349:
 334:External/ili9341_tft_driver/Src/ili9341_tft_driver.c **** 	
 670              		.loc 1 334 2 is_stmt 1 view .LVU192
 671 0058 9047     		blx	r2
 672              	.LVL81:
 336:External/ili9341_tft_driver/Src/ili9341_tft_driver.c **** }
 673              		.loc 1 336 2 view .LVU193
 336:External/ili9341_tft_driver/Src/ili9341_tft_driver.c **** }
 674              		.loc 1 336 9 is_stmt 0 view .LVU194
 675 005a 0020     		movs	r0, #0
 676              	.L36:
ARM GAS  /tmp/ccS19chs.s 			page 22


 677              	.LVL82:
 336:External/ili9341_tft_driver/Src/ili9341_tft_driver.c **** }
 678              		.loc 1 336 9 view .LVU195
 679              	.LBE348:
 680              	.LBE347:
 211:External/ili9341_tft_driver/Src/ili9341_tft_driver.c **** }
 681              		.loc 1 211 2 is_stmt 1 view .LVU196
 212:External/ili9341_tft_driver/Src/ili9341_tft_driver.c **** 
 682              		.loc 1 212 1 is_stmt 0 view .LVU197
 683 005c 2043     		orrs	r0, r0, r4
 684              	.LVL83:
 212:External/ili9341_tft_driver/Src/ili9341_tft_driver.c **** 
 685              		.loc 1 212 1 view .LVU198
 686 005e F8BD     		pop	{r3, r4, r5, r6, r7, pc}
 687              	.LVL84:
 688              	.L37:
 689              	.LBB352:
 690              	.LBB331:
 343:External/ili9341_tft_driver/Src/ili9341_tft_driver.c **** 	
 691              		.loc 1 343 10 view .LVU199
 692 0060 0127     		movs	r7, #1
 693 0062 D8E7     		b	.L32
 694              	.L38:
 695 0064 0127     		movs	r7, #1
 696 0066 D6E7     		b	.L32
 697              	.LVL85:
 698              	.L39:
 343:External/ili9341_tft_driver/Src/ili9341_tft_driver.c **** 	
 699              		.loc 1 343 10 view .LVU200
 700              	.LBE331:
 701              	.LBE352:
 702              	.LBB353:
 703              	.LBB336:
 332:External/ili9341_tft_driver/Src/ili9341_tft_driver.c **** 	
 704              		.loc 1 332 10 view .LVU201
 705 0068 0124     		movs	r4, #1
 706 006a DCE7     		b	.L33
 707              	.L40:
 708 006c 0124     		movs	r4, #1
 709 006e DAE7     		b	.L33
 710              	.LVL86:
 711              	.L41:
 332:External/ili9341_tft_driver/Src/ili9341_tft_driver.c **** 	
 712              		.loc 1 332 10 view .LVU202
 713              	.LBE336:
 714              	.LBE353:
 715              	.LBB354:
 716              	.LBB341:
 717 0070 0123     		movs	r3, #1
 718 0072 E1E7     		b	.L34
 719              	.L42:
 720 0074 0123     		movs	r3, #1
 721 0076 DFE7     		b	.L34
 722              	.LVL87:
 723              	.L43:
 332:External/ili9341_tft_driver/Src/ili9341_tft_driver.c **** 	
 724              		.loc 1 332 10 view .LVU203
ARM GAS  /tmp/ccS19chs.s 			page 23


 725              	.LBE341:
 726              	.LBE354:
 727              	.LBB355:
 728              	.LBB346:
 729 0078 0123     		movs	r3, #1
 730 007a E6E7     		b	.L35
 731              	.L44:
 732 007c 0123     		movs	r3, #1
 733 007e E4E7     		b	.L35
 734              	.LVL88:
 735              	.L45:
 332:External/ili9341_tft_driver/Src/ili9341_tft_driver.c **** 	
 736              		.loc 1 332 10 view .LVU204
 737              	.LBE346:
 738              	.LBE355:
 739              	.LBB356:
 740              	.LBB351:
 741 0080 0120     		movs	r0, #1
 742              	.LVL89:
 332:External/ili9341_tft_driver/Src/ili9341_tft_driver.c **** 	
 743              		.loc 1 332 10 view .LVU205
 744 0082 EBE7     		b	.L36
 745              	.LVL90:
 746              	.L46:
 332:External/ili9341_tft_driver/Src/ili9341_tft_driver.c **** 	
 747              		.loc 1 332 10 view .LVU206
 748 0084 0120     		movs	r0, #1
 749              	.LVL91:
 332:External/ili9341_tft_driver/Src/ili9341_tft_driver.c **** 	
 750              		.loc 1 332 10 view .LVU207
 751 0086 E9E7     		b	.L36
 752              	.L49:
 753              		.align	2
 754              	.L48:
 755 0088 00000000 		.word	io_struct
 756              	.LBE351:
 757              	.LBE356:
 758              		.cfi_endproc
 759              	.LFE10:
 761              		.section	.text.ili9341_calculate_pixels_amount,"ax",%progbits
 762              		.align	1
 763              		.syntax unified
 764              		.thumb
 765              		.thumb_func
 767              	ili9341_calculate_pixels_amount:
 768              	.LVL92:
 769              	.LFB16:
 287:External/ili9341_tft_driver/Src/ili9341_tft_driver.c **** 	return (area->end - area->start + 1) * (area->bottom - area->top + 1);
 770              		.loc 1 287 1 is_stmt 1 view -0
 771              		.cfi_startproc
 772              		@ args = 0, pretend = 0, frame = 0
 773              		@ frame_needed = 0, uses_anonymous_args = 0
 774              		@ link register save eliminated.
 288:External/ili9341_tft_driver/Src/ili9341_tft_driver.c **** }
 775              		.loc 1 288 2 view .LVU209
 288:External/ili9341_tft_driver/Src/ili9341_tft_driver.c **** }
 776              		.loc 1 288 14 is_stmt 0 view .LVU210
ARM GAS  /tmp/ccS19chs.s 			page 24


 777 0000 4288     		ldrh	r2, [r0, #2]
 288:External/ili9341_tft_driver/Src/ili9341_tft_driver.c **** }
 778              		.loc 1 288 26 view .LVU211
 779 0002 0388     		ldrh	r3, [r0]
 288:External/ili9341_tft_driver/Src/ili9341_tft_driver.c **** }
 780              		.loc 1 288 20 view .LVU212
 781 0004 D21A     		subs	r2, r2, r3
 288:External/ili9341_tft_driver/Src/ili9341_tft_driver.c **** }
 782              		.loc 1 288 46 view .LVU213
 783 0006 C388     		ldrh	r3, [r0, #6]
 288:External/ili9341_tft_driver/Src/ili9341_tft_driver.c **** }
 784              		.loc 1 288 61 view .LVU214
 785 0008 8188     		ldrh	r1, [r0, #4]
 288:External/ili9341_tft_driver/Src/ili9341_tft_driver.c **** }
 786              		.loc 1 288 55 view .LVU215
 787 000a 581A     		subs	r0, r3, r1
 788              	.LVL93:
 288:External/ili9341_tft_driver/Src/ili9341_tft_driver.c **** }
 789              		.loc 1 288 67 view .LVU216
 790 000c 0130     		adds	r0, r0, #1
 289:External/ili9341_tft_driver/Src/ili9341_tft_driver.c **** 
 791              		.loc 1 289 1 view .LVU217
 792 000e 02FB0000 		mla	r0, r2, r0, r0
 793 0012 7047     		bx	lr
 794              		.cfi_endproc
 795              	.LFE16:
 797              		.section	.text.ili9341_get_max_area,"ax",%progbits
 798              		.align	1
 799              		.syntax unified
 800              		.thumb
 801              		.thumb_func
 803              	ili9341_get_max_area:
 804              	.LVL94:
 805              	.LFB18:
 303:External/ili9341_tft_driver/Src/ili9341_tft_driver.c **** 	return (ili9341_draw_area) {
 806              		.loc 1 303 1 is_stmt 1 view -0
 807              		.cfi_startproc
 808              		@ args = 0, pretend = 0, frame = 0
 809              		@ frame_needed = 0, uses_anonymous_args = 0
 810              		@ link register save eliminated.
 303:External/ili9341_tft_driver/Src/ili9341_tft_driver.c **** 	return (ili9341_draw_area) {
 811              		.loc 1 303 1 is_stmt 0 view .LVU219
 812 0000 0346     		mov	r3, r0
 304:External/ili9341_tft_driver/Src/ili9341_tft_driver.c **** 		.start = 0,
 813              		.loc 1 304 2 is_stmt 1 view .LVU220
 304:External/ili9341_tft_driver/Src/ili9341_tft_driver.c **** 		.start = 0,
 814              		.loc 1 304 9 is_stmt 0 view .LVU221
 815 0002 034A     		ldr	r2, .L52
 816 0004 03CA     		ldmia	r2!, {r0, r1}
 817              	.LVL95:
 304:External/ili9341_tft_driver/Src/ili9341_tft_driver.c **** 		.start = 0,
 818              		.loc 1 304 9 view .LVU222
 819 0006 1860     		str	r0, [r3]	@ unaligned
 820 0008 5960     		str	r1, [r3, #4]	@ unaligned
 310:External/ili9341_tft_driver/Src/ili9341_tft_driver.c **** 
 821              		.loc 1 310 1 view .LVU223
 822 000a 1846     		mov	r0, r3
ARM GAS  /tmp/ccS19chs.s 			page 25


 823 000c 7047     		bx	lr
 824              	.L53:
 825 000e 00BF     		.align	2
 826              	.L52:
 827 0010 00000000 		.word	.LANCHOR0
 828              		.cfi_endproc
 829              	.LFE18:
 831              		.section	.text.io_init,"ax",%progbits
 832              		.align	1
 833              		.syntax unified
 834              		.thumb
 835              		.thumb_func
 837              	io_init:
 838              	.LFB20:
 319:External/ili9341_tft_driver/Src/ili9341_tft_driver.c **** 	if (is_not_safe_call(io_struct->io_init))
 839              		.loc 1 319 1 is_stmt 1 view -0
 840              		.cfi_startproc
 841              		@ args = 0, pretend = 0, frame = 0
 842              		@ frame_needed = 0, uses_anonymous_args = 0
 843 0000 08B5     		push	{r3, lr}
 844              	.LCFI3:
 845              		.cfi_def_cfa_offset 8
 846              		.cfi_offset 3, -8
 847              		.cfi_offset 14, -4
 320:External/ili9341_tft_driver/Src/ili9341_tft_driver.c **** 		return ILI9341_ERROR;
 848              		.loc 1 320 2 view .LVU225
 320:External/ili9341_tft_driver/Src/ili9341_tft_driver.c **** 		return ILI9341_ERROR;
 849              		.loc 1 320 32 is_stmt 0 view .LVU226
 850 0002 064B     		ldr	r3, .L59
 851 0004 1B68     		ldr	r3, [r3]
 852 0006 1A68     		ldr	r2, [r3]
 853              	.LVL96:
 854              	.LBB357:
 855              	.LBI357:
 313:External/ili9341_tft_driver/Src/ili9341_tft_driver.c **** {
 856              		.loc 1 313 20 is_stmt 1 view .LVU227
 857              	.LBB358:
 315:External/ili9341_tft_driver/Src/ili9341_tft_driver.c **** }
 858              		.loc 1 315 2 view .LVU228
 315:External/ili9341_tft_driver/Src/ili9341_tft_driver.c **** }
 859              		.loc 1 315 27 is_stmt 0 view .LVU229
 860 0008 1BB1     		cbz	r3, .L56
 315:External/ili9341_tft_driver/Src/ili9341_tft_driver.c **** }
 861              		.loc 1 315 27 discriminator 2 view .LVU230
 862 000a 22B1     		cbz	r2, .L57
 863              	.LVL97:
 315:External/ili9341_tft_driver/Src/ili9341_tft_driver.c **** }
 864              		.loc 1 315 27 discriminator 2 view .LVU231
 865              	.LBE358:
 866              	.LBE357:
 323:External/ili9341_tft_driver/Src/ili9341_tft_driver.c **** 	
 867              		.loc 1 323 2 is_stmt 1 view .LVU232
 868 000c 9047     		blx	r2
 869              	.LVL98:
 325:External/ili9341_tft_driver/Src/ili9341_tft_driver.c **** }
 870              		.loc 1 325 2 view .LVU233
 325:External/ili9341_tft_driver/Src/ili9341_tft_driver.c **** }
ARM GAS  /tmp/ccS19chs.s 			page 26


 871              		.loc 1 325 9 is_stmt 0 view .LVU234
 872 000e 0020     		movs	r0, #0
 873              	.L55:
 326:External/ili9341_tft_driver/Src/ili9341_tft_driver.c **** 
 874              		.loc 1 326 1 view .LVU235
 875 0010 08BD     		pop	{r3, pc}
 876              	.LVL99:
 877              	.L56:
 321:External/ili9341_tft_driver/Src/ili9341_tft_driver.c **** 	
 878              		.loc 1 321 10 view .LVU236
 879 0012 0120     		movs	r0, #1
 880 0014 FCE7     		b	.L55
 881              	.L57:
 882 0016 0120     		movs	r0, #1
 883 0018 FAE7     		b	.L55
 884              	.L60:
 885 001a 00BF     		.align	2
 886              	.L59:
 887 001c 00000000 		.word	io_struct
 888              		.cfi_endproc
 889              	.LFE20:
 891              		.section	.text.io_delay,"ax",%progbits
 892              		.align	1
 893              		.syntax unified
 894              		.thumb
 895              		.thumb_func
 897              	io_delay:
 898              	.LVL100:
 899              	.LFB24:
 348:External/ili9341_tft_driver/Src/ili9341_tft_driver.c **** }
 349:External/ili9341_tft_driver/Src/ili9341_tft_driver.c **** 
 350:External/ili9341_tft_driver/Src/ili9341_tft_driver.c **** __attribute__((always_inline))
 351:External/ili9341_tft_driver/Src/ili9341_tft_driver.c **** static inline ili9341_tft_driver_status io_read_data(
 352:External/ili9341_tft_driver/Src/ili9341_tft_driver.c **** 	uint8_t data_size,
 353:External/ili9341_tft_driver/Src/ili9341_tft_driver.c **** 	uint16_t *const value
 354:External/ili9341_tft_driver/Src/ili9341_tft_driver.c **** )
 355:External/ili9341_tft_driver/Src/ili9341_tft_driver.c **** {
 356:External/ili9341_tft_driver/Src/ili9341_tft_driver.c **** 	if (is_not_safe_call(io_struct->io_read_data))
 357:External/ili9341_tft_driver/Src/ili9341_tft_driver.c **** 		return ILI9341_ERROR;
 358:External/ili9341_tft_driver/Src/ili9341_tft_driver.c **** 	
 359:External/ili9341_tft_driver/Src/ili9341_tft_driver.c **** 	*value = io_struct->io_read_data(data_size);
 360:External/ili9341_tft_driver/Src/ili9341_tft_driver.c **** 	
 361:External/ili9341_tft_driver/Src/ili9341_tft_driver.c **** 	return ILI9341_OK;
 362:External/ili9341_tft_driver/Src/ili9341_tft_driver.c **** }
 363:External/ili9341_tft_driver/Src/ili9341_tft_driver.c **** 
 364:External/ili9341_tft_driver/Src/ili9341_tft_driver.c **** static ili9341_tft_driver_status io_delay(uint32_t delay) {
 900              		.loc 1 364 59 is_stmt 1 view -0
 901              		.cfi_startproc
 902              		@ args = 0, pretend = 0, frame = 0
 903              		@ frame_needed = 0, uses_anonymous_args = 0
 904              		.loc 1 364 59 is_stmt 0 view .LVU238
 905 0000 08B5     		push	{r3, lr}
 906              	.LCFI4:
 907              		.cfi_def_cfa_offset 8
 908              		.cfi_offset 3, -8
 909              		.cfi_offset 14, -4
 365:External/ili9341_tft_driver/Src/ili9341_tft_driver.c **** 	if (is_not_safe_call(io_struct->io_delay))
ARM GAS  /tmp/ccS19chs.s 			page 27


 910              		.loc 1 365 2 is_stmt 1 view .LVU239
 911              		.loc 1 365 32 is_stmt 0 view .LVU240
 912 0002 064B     		ldr	r3, .L66
 913 0004 1B68     		ldr	r3, [r3]
 914 0006 1A69     		ldr	r2, [r3, #16]
 915              	.LVL101:
 916              	.LBB359:
 917              	.LBI359:
 313:External/ili9341_tft_driver/Src/ili9341_tft_driver.c **** {
 918              		.loc 1 313 20 is_stmt 1 view .LVU241
 919              	.LBB360:
 315:External/ili9341_tft_driver/Src/ili9341_tft_driver.c **** }
 920              		.loc 1 315 2 view .LVU242
 315:External/ili9341_tft_driver/Src/ili9341_tft_driver.c **** }
 921              		.loc 1 315 27 is_stmt 0 view .LVU243
 922 0008 1BB1     		cbz	r3, .L63
 315:External/ili9341_tft_driver/Src/ili9341_tft_driver.c **** }
 923              		.loc 1 315 27 discriminator 2 view .LVU244
 924 000a 22B1     		cbz	r2, .L64
 925              	.LVL102:
 315:External/ili9341_tft_driver/Src/ili9341_tft_driver.c **** }
 926              		.loc 1 315 27 discriminator 2 view .LVU245
 927              	.LBE360:
 928              	.LBE359:
 366:External/ili9341_tft_driver/Src/ili9341_tft_driver.c **** 		return ILI9341_ERROR;
 367:External/ili9341_tft_driver/Src/ili9341_tft_driver.c **** 	
 368:External/ili9341_tft_driver/Src/ili9341_tft_driver.c **** 	io_struct->io_delay(delay);
 929              		.loc 1 368 2 is_stmt 1 view .LVU246
 930 000c 9047     		blx	r2
 931              	.LVL103:
 369:External/ili9341_tft_driver/Src/ili9341_tft_driver.c **** 	
 370:External/ili9341_tft_driver/Src/ili9341_tft_driver.c **** 	return ILI9341_OK;
 932              		.loc 1 370 2 view .LVU247
 933              		.loc 1 370 9 is_stmt 0 view .LVU248
 934 000e 0020     		movs	r0, #0
 935              	.L62:
 371:External/ili9341_tft_driver/Src/ili9341_tft_driver.c **** }
 936              		.loc 1 371 1 view .LVU249
 937 0010 08BD     		pop	{r3, pc}
 938              	.LVL104:
 939              	.L63:
 366:External/ili9341_tft_driver/Src/ili9341_tft_driver.c **** 		return ILI9341_ERROR;
 940              		.loc 1 366 10 view .LVU250
 941 0012 0120     		movs	r0, #1
 942              	.LVL105:
 366:External/ili9341_tft_driver/Src/ili9341_tft_driver.c **** 		return ILI9341_ERROR;
 943              		.loc 1 366 10 view .LVU251
 944 0014 FCE7     		b	.L62
 945              	.LVL106:
 946              	.L64:
 366:External/ili9341_tft_driver/Src/ili9341_tft_driver.c **** 		return ILI9341_ERROR;
 947              		.loc 1 366 10 view .LVU252
 948 0016 0120     		movs	r0, #1
 949              	.LVL107:
 366:External/ili9341_tft_driver/Src/ili9341_tft_driver.c **** 		return ILI9341_ERROR;
 950              		.loc 1 366 10 view .LVU253
 951 0018 FAE7     		b	.L62
ARM GAS  /tmp/ccS19chs.s 			page 28


 952              	.L67:
 953 001a 00BF     		.align	2
 954              	.L66:
 955 001c 00000000 		.word	io_struct
 956              		.cfi_endproc
 957              	.LFE24:
 959              		.section	.text.ili9341_soft_reset,"ax",%progbits
 960              		.align	1
 961              		.syntax unified
 962              		.thumb
 963              		.thumb_func
 965              	ili9341_soft_reset:
 966              	.LFB2:
  83:External/ili9341_tft_driver/Src/ili9341_tft_driver.c **** 	io_write_reg(ILI9341_CMD_RESET);
 967              		.loc 1 83 1 is_stmt 1 view -0
 968              		.cfi_startproc
 969              		@ args = 0, pretend = 0, frame = 0
 970              		@ frame_needed = 0, uses_anonymous_args = 0
 971 0000 08B5     		push	{r3, lr}
 972              	.LCFI5:
 973              		.cfi_def_cfa_offset 8
 974              		.cfi_offset 3, -8
 975              		.cfi_offset 14, -4
  84:External/ili9341_tft_driver/Src/ili9341_tft_driver.c ****   	io_delay(10);
 976              		.loc 1 84 2 view .LVU255
 977              	.LVL108:
 978              	.LBB361:
 979              	.LBI361:
 340:External/ili9341_tft_driver/Src/ili9341_tft_driver.c **** {
 980              		.loc 1 340 41 view .LVU256
 981              	.LBB362:
 342:External/ili9341_tft_driver/Src/ili9341_tft_driver.c **** 		return ILI9341_ERROR;
 982              		.loc 1 342 2 view .LVU257
 342:External/ili9341_tft_driver/Src/ili9341_tft_driver.c **** 		return ILI9341_ERROR;
 983              		.loc 1 342 32 is_stmt 0 view .LVU258
 984 0002 054B     		ldr	r3, .L71
 985 0004 1B68     		ldr	r3, [r3]
 986 0006 9A68     		ldr	r2, [r3, #8]
 987              	.LVL109:
 988              	.LBB363:
 989              	.LBI363:
 313:External/ili9341_tft_driver/Src/ili9341_tft_driver.c **** {
 990              		.loc 1 313 20 is_stmt 1 view .LVU259
 991              	.LBB364:
 315:External/ili9341_tft_driver/Src/ili9341_tft_driver.c **** }
 992              		.loc 1 315 2 view .LVU260
 315:External/ili9341_tft_driver/Src/ili9341_tft_driver.c **** }
 993              		.loc 1 315 27 is_stmt 0 view .LVU261
 994 0008 13B1     		cbz	r3, .L69
 315:External/ili9341_tft_driver/Src/ili9341_tft_driver.c **** }
 995              		.loc 1 315 27 discriminator 2 view .LVU262
 996 000a 0AB1     		cbz	r2, .L69
 997              	.LVL110:
 315:External/ili9341_tft_driver/Src/ili9341_tft_driver.c **** }
 998              		.loc 1 315 27 discriminator 2 view .LVU263
 999              	.LBE364:
 1000              	.LBE363:
ARM GAS  /tmp/ccS19chs.s 			page 29


 345:External/ili9341_tft_driver/Src/ili9341_tft_driver.c **** 	
 1001              		.loc 1 345 2 is_stmt 1 view .LVU264
 1002 000c 0120     		movs	r0, #1
 1003 000e 9047     		blx	r2
 1004              	.LVL111:
 347:External/ili9341_tft_driver/Src/ili9341_tft_driver.c **** }
 1005              		.loc 1 347 2 view .LVU265
 1006              	.L69:
 347:External/ili9341_tft_driver/Src/ili9341_tft_driver.c **** }
 1007              		.loc 1 347 2 is_stmt 0 view .LVU266
 1008              	.LBE362:
 1009              	.LBE361:
  85:External/ili9341_tft_driver/Src/ili9341_tft_driver.c **** }
 1010              		.loc 1 85 4 is_stmt 1 view .LVU267
 1011 0010 0A20     		movs	r0, #10
 1012 0012 FFF7FEFF 		bl	io_delay
 1013              	.LVL112:
  86:External/ili9341_tft_driver/Src/ili9341_tft_driver.c **** 
 1014              		.loc 1 86 1 is_stmt 0 view .LVU268
 1015 0016 08BD     		pop	{r3, pc}
 1016              	.L72:
 1017              		.align	2
 1018              	.L71:
 1019 0018 00000000 		.word	io_struct
 1020              		.cfi_endproc
 1021              	.LFE2:
 1023              		.section	.text.ili9341_send_default_registers,"ax",%progbits
 1024              		.align	1
 1025              		.syntax unified
 1026              		.thumb
 1027              		.thumb_func
 1029              	ili9341_send_default_registers:
 1030              	.LFB3:
  89:External/ili9341_tft_driver/Src/ili9341_tft_driver.c **** 	io_write_reg(ILI9341_CMD_POWER_A);
 1031              		.loc 1 89 1 is_stmt 1 view -0
 1032              		.cfi_startproc
 1033              		@ args = 0, pretend = 0, frame = 0
 1034              		@ frame_needed = 0, uses_anonymous_args = 0
 1035 0000 08B5     		push	{r3, lr}
 1036              	.LCFI6:
 1037              		.cfi_def_cfa_offset 8
 1038              		.cfi_offset 3, -8
 1039              		.cfi_offset 14, -4
  90:External/ili9341_tft_driver/Src/ili9341_tft_driver.c **** 	io_write_data(0x39);
 1040              		.loc 1 90 2 view .LVU270
 1041              	.LVL113:
 1042              	.LBB365:
 1043              	.LBI365:
 340:External/ili9341_tft_driver/Src/ili9341_tft_driver.c **** {
 1044              		.loc 1 340 41 view .LVU271
 1045              	.LBB366:
 342:External/ili9341_tft_driver/Src/ili9341_tft_driver.c **** 		return ILI9341_ERROR;
 1046              		.loc 1 342 2 view .LVU272
 342:External/ili9341_tft_driver/Src/ili9341_tft_driver.c **** 		return ILI9341_ERROR;
 1047              		.loc 1 342 32 is_stmt 0 view .LVU273
 1048 0002 684B     		ldr	r3, .L122
 1049 0004 1B68     		ldr	r3, [r3]
ARM GAS  /tmp/ccS19chs.s 			page 30


 1050 0006 9A68     		ldr	r2, [r3, #8]
 1051              	.LVL114:
 1052              	.LBB367:
 1053              	.LBI367:
 313:External/ili9341_tft_driver/Src/ili9341_tft_driver.c **** {
 1054              		.loc 1 313 20 is_stmt 1 view .LVU274
 1055              	.LBB368:
 315:External/ili9341_tft_driver/Src/ili9341_tft_driver.c **** }
 1056              		.loc 1 315 2 view .LVU275
 315:External/ili9341_tft_driver/Src/ili9341_tft_driver.c **** }
 1057              		.loc 1 315 27 is_stmt 0 view .LVU276
 1058 0008 13B1     		cbz	r3, .L74
 315:External/ili9341_tft_driver/Src/ili9341_tft_driver.c **** }
 1059              		.loc 1 315 27 discriminator 2 view .LVU277
 1060 000a 0AB1     		cbz	r2, .L74
 1061              	.LVL115:
 315:External/ili9341_tft_driver/Src/ili9341_tft_driver.c **** }
 1062              		.loc 1 315 27 discriminator 2 view .LVU278
 1063              	.LBE368:
 1064              	.LBE367:
 345:External/ili9341_tft_driver/Src/ili9341_tft_driver.c **** 	
 1065              		.loc 1 345 2 is_stmt 1 view .LVU279
 1066 000c CB20     		movs	r0, #203
 1067 000e 9047     		blx	r2
 1068              	.LVL116:
 347:External/ili9341_tft_driver/Src/ili9341_tft_driver.c **** }
 1069              		.loc 1 347 2 view .LVU280
 1070              	.L74:
 347:External/ili9341_tft_driver/Src/ili9341_tft_driver.c **** }
 1071              		.loc 1 347 2 is_stmt 0 view .LVU281
 1072              	.LBE366:
 1073              	.LBE365:
  91:External/ili9341_tft_driver/Src/ili9341_tft_driver.c **** 	io_write_data(0x2C);
 1074              		.loc 1 91 2 is_stmt 1 view .LVU282
 1075              	.LBB369:
 1076              	.LBI369:
 329:External/ili9341_tft_driver/Src/ili9341_tft_driver.c **** {
 1077              		.loc 1 329 41 view .LVU283
 1078              	.LBB370:
 331:External/ili9341_tft_driver/Src/ili9341_tft_driver.c **** 		return ILI9341_ERROR;
 1079              		.loc 1 331 2 view .LVU284
 331:External/ili9341_tft_driver/Src/ili9341_tft_driver.c **** 		return ILI9341_ERROR;
 1080              		.loc 1 331 32 is_stmt 0 view .LVU285
 1081 0010 644B     		ldr	r3, .L122
 1082 0012 1B68     		ldr	r3, [r3]
 1083 0014 5A68     		ldr	r2, [r3, #4]
 1084              	.LVL117:
 1085              	.LBB371:
 1086              	.LBI371:
 313:External/ili9341_tft_driver/Src/ili9341_tft_driver.c **** {
 1087              		.loc 1 313 20 is_stmt 1 view .LVU286
 1088              	.LBB372:
 315:External/ili9341_tft_driver/Src/ili9341_tft_driver.c **** }
 1089              		.loc 1 315 2 view .LVU287
 315:External/ili9341_tft_driver/Src/ili9341_tft_driver.c **** }
 1090              		.loc 1 315 27 is_stmt 0 view .LVU288
 1091 0016 13B1     		cbz	r3, .L75
ARM GAS  /tmp/ccS19chs.s 			page 31


 315:External/ili9341_tft_driver/Src/ili9341_tft_driver.c **** }
 1092              		.loc 1 315 27 discriminator 2 view .LVU289
 1093 0018 0AB1     		cbz	r2, .L75
 1094              	.LVL118:
 315:External/ili9341_tft_driver/Src/ili9341_tft_driver.c **** }
 1095              		.loc 1 315 27 discriminator 2 view .LVU290
 1096              	.LBE372:
 1097              	.LBE371:
 334:External/ili9341_tft_driver/Src/ili9341_tft_driver.c **** 	
 1098              		.loc 1 334 2 is_stmt 1 view .LVU291
 1099 001a 3920     		movs	r0, #57
 1100 001c 9047     		blx	r2
 1101              	.LVL119:
 336:External/ili9341_tft_driver/Src/ili9341_tft_driver.c **** }
 1102              		.loc 1 336 2 view .LVU292
 1103              	.L75:
 336:External/ili9341_tft_driver/Src/ili9341_tft_driver.c **** }
 1104              		.loc 1 336 2 is_stmt 0 view .LVU293
 1105              	.LBE370:
 1106              	.LBE369:
  92:External/ili9341_tft_driver/Src/ili9341_tft_driver.c **** 	io_write_data(0x00);
 1107              		.loc 1 92 2 is_stmt 1 view .LVU294
 1108              	.LBB373:
 1109              	.LBI373:
 329:External/ili9341_tft_driver/Src/ili9341_tft_driver.c **** {
 1110              		.loc 1 329 41 view .LVU295
 1111              	.LBB374:
 331:External/ili9341_tft_driver/Src/ili9341_tft_driver.c **** 		return ILI9341_ERROR;
 1112              		.loc 1 331 2 view .LVU296
 331:External/ili9341_tft_driver/Src/ili9341_tft_driver.c **** 		return ILI9341_ERROR;
 1113              		.loc 1 331 32 is_stmt 0 view .LVU297
 1114 001e 614B     		ldr	r3, .L122
 1115 0020 1B68     		ldr	r3, [r3]
 1116 0022 5A68     		ldr	r2, [r3, #4]
 1117              	.LVL120:
 1118              	.LBB375:
 1119              	.LBI375:
 313:External/ili9341_tft_driver/Src/ili9341_tft_driver.c **** {
 1120              		.loc 1 313 20 is_stmt 1 view .LVU298
 1121              	.LBB376:
 315:External/ili9341_tft_driver/Src/ili9341_tft_driver.c **** }
 1122              		.loc 1 315 2 view .LVU299
 315:External/ili9341_tft_driver/Src/ili9341_tft_driver.c **** }
 1123              		.loc 1 315 27 is_stmt 0 view .LVU300
 1124 0024 13B1     		cbz	r3, .L76
 315:External/ili9341_tft_driver/Src/ili9341_tft_driver.c **** }
 1125              		.loc 1 315 27 discriminator 2 view .LVU301
 1126 0026 0AB1     		cbz	r2, .L76
 1127              	.LVL121:
 315:External/ili9341_tft_driver/Src/ili9341_tft_driver.c **** }
 1128              		.loc 1 315 27 discriminator 2 view .LVU302
 1129              	.LBE376:
 1130              	.LBE375:
 334:External/ili9341_tft_driver/Src/ili9341_tft_driver.c **** 	
 1131              		.loc 1 334 2 is_stmt 1 view .LVU303
 1132 0028 2C20     		movs	r0, #44
 1133 002a 9047     		blx	r2
ARM GAS  /tmp/ccS19chs.s 			page 32


 1134              	.LVL122:
 336:External/ili9341_tft_driver/Src/ili9341_tft_driver.c **** }
 1135              		.loc 1 336 2 view .LVU304
 1136              	.L76:
 336:External/ili9341_tft_driver/Src/ili9341_tft_driver.c **** }
 1137              		.loc 1 336 2 is_stmt 0 view .LVU305
 1138              	.LBE374:
 1139              	.LBE373:
  93:External/ili9341_tft_driver/Src/ili9341_tft_driver.c **** 	io_write_data(0x34);
 1140              		.loc 1 93 2 is_stmt 1 view .LVU306
 1141              	.LBB377:
 1142              	.LBI377:
 329:External/ili9341_tft_driver/Src/ili9341_tft_driver.c **** {
 1143              		.loc 1 329 41 view .LVU307
 1144              	.LBB378:
 331:External/ili9341_tft_driver/Src/ili9341_tft_driver.c **** 		return ILI9341_ERROR;
 1145              		.loc 1 331 2 view .LVU308
 331:External/ili9341_tft_driver/Src/ili9341_tft_driver.c **** 		return ILI9341_ERROR;
 1146              		.loc 1 331 32 is_stmt 0 view .LVU309
 1147 002c 5D4B     		ldr	r3, .L122
 1148 002e 1B68     		ldr	r3, [r3]
 1149 0030 5A68     		ldr	r2, [r3, #4]
 1150              	.LVL123:
 1151              	.LBB379:
 1152              	.LBI379:
 313:External/ili9341_tft_driver/Src/ili9341_tft_driver.c **** {
 1153              		.loc 1 313 20 is_stmt 1 view .LVU310
 1154              	.LBB380:
 315:External/ili9341_tft_driver/Src/ili9341_tft_driver.c **** }
 1155              		.loc 1 315 2 view .LVU311
 315:External/ili9341_tft_driver/Src/ili9341_tft_driver.c **** }
 1156              		.loc 1 315 27 is_stmt 0 view .LVU312
 1157 0032 13B1     		cbz	r3, .L77
 315:External/ili9341_tft_driver/Src/ili9341_tft_driver.c **** }
 1158              		.loc 1 315 27 discriminator 2 view .LVU313
 1159 0034 0AB1     		cbz	r2, .L77
 1160              	.LVL124:
 315:External/ili9341_tft_driver/Src/ili9341_tft_driver.c **** }
 1161              		.loc 1 315 27 discriminator 2 view .LVU314
 1162              	.LBE380:
 1163              	.LBE379:
 334:External/ili9341_tft_driver/Src/ili9341_tft_driver.c **** 	
 1164              		.loc 1 334 2 is_stmt 1 view .LVU315
 1165 0036 0020     		movs	r0, #0
 1166 0038 9047     		blx	r2
 1167              	.LVL125:
 336:External/ili9341_tft_driver/Src/ili9341_tft_driver.c **** }
 1168              		.loc 1 336 2 view .LVU316
 1169              	.L77:
 336:External/ili9341_tft_driver/Src/ili9341_tft_driver.c **** }
 1170              		.loc 1 336 2 is_stmt 0 view .LVU317
 1171              	.LBE378:
 1172              	.LBE377:
  94:External/ili9341_tft_driver/Src/ili9341_tft_driver.c **** 	io_write_data(0x02);
 1173              		.loc 1 94 2 is_stmt 1 view .LVU318
 1174              	.LBB381:
 1175              	.LBI381:
ARM GAS  /tmp/ccS19chs.s 			page 33


 329:External/ili9341_tft_driver/Src/ili9341_tft_driver.c **** {
 1176              		.loc 1 329 41 view .LVU319
 1177              	.LBB382:
 331:External/ili9341_tft_driver/Src/ili9341_tft_driver.c **** 		return ILI9341_ERROR;
 1178              		.loc 1 331 2 view .LVU320
 331:External/ili9341_tft_driver/Src/ili9341_tft_driver.c **** 		return ILI9341_ERROR;
 1179              		.loc 1 331 32 is_stmt 0 view .LVU321
 1180 003a 5A4B     		ldr	r3, .L122
 1181 003c 1B68     		ldr	r3, [r3]
 1182 003e 5A68     		ldr	r2, [r3, #4]
 1183              	.LVL126:
 1184              	.LBB383:
 1185              	.LBI383:
 313:External/ili9341_tft_driver/Src/ili9341_tft_driver.c **** {
 1186              		.loc 1 313 20 is_stmt 1 view .LVU322
 1187              	.LBB384:
 315:External/ili9341_tft_driver/Src/ili9341_tft_driver.c **** }
 1188              		.loc 1 315 2 view .LVU323
 315:External/ili9341_tft_driver/Src/ili9341_tft_driver.c **** }
 1189              		.loc 1 315 27 is_stmt 0 view .LVU324
 1190 0040 13B1     		cbz	r3, .L78
 315:External/ili9341_tft_driver/Src/ili9341_tft_driver.c **** }
 1191              		.loc 1 315 27 discriminator 2 view .LVU325
 1192 0042 0AB1     		cbz	r2, .L78
 1193              	.LVL127:
 315:External/ili9341_tft_driver/Src/ili9341_tft_driver.c **** }
 1194              		.loc 1 315 27 discriminator 2 view .LVU326
 1195              	.LBE384:
 1196              	.LBE383:
 334:External/ili9341_tft_driver/Src/ili9341_tft_driver.c **** 	
 1197              		.loc 1 334 2 is_stmt 1 view .LVU327
 1198 0044 3420     		movs	r0, #52
 1199 0046 9047     		blx	r2
 1200              	.LVL128:
 336:External/ili9341_tft_driver/Src/ili9341_tft_driver.c **** }
 1201              		.loc 1 336 2 view .LVU328
 1202              	.L78:
 336:External/ili9341_tft_driver/Src/ili9341_tft_driver.c **** }
 1203              		.loc 1 336 2 is_stmt 0 view .LVU329
 1204              	.LBE382:
 1205              	.LBE381:
  95:External/ili9341_tft_driver/Src/ili9341_tft_driver.c **** 	io_write_reg(ILI9341_CMD_POWER_B);
 1206              		.loc 1 95 2 is_stmt 1 view .LVU330
 1207              	.LBB385:
 1208              	.LBI385:
 329:External/ili9341_tft_driver/Src/ili9341_tft_driver.c **** {
 1209              		.loc 1 329 41 view .LVU331
 1210              	.LBB386:
 331:External/ili9341_tft_driver/Src/ili9341_tft_driver.c **** 		return ILI9341_ERROR;
 1211              		.loc 1 331 2 view .LVU332
 331:External/ili9341_tft_driver/Src/ili9341_tft_driver.c **** 		return ILI9341_ERROR;
 1212              		.loc 1 331 32 is_stmt 0 view .LVU333
 1213 0048 564B     		ldr	r3, .L122
 1214 004a 1B68     		ldr	r3, [r3]
 1215 004c 5A68     		ldr	r2, [r3, #4]
 1216              	.LVL129:
 1217              	.LBB387:
ARM GAS  /tmp/ccS19chs.s 			page 34


 1218              	.LBI387:
 313:External/ili9341_tft_driver/Src/ili9341_tft_driver.c **** {
 1219              		.loc 1 313 20 is_stmt 1 view .LVU334
 1220              	.LBB388:
 315:External/ili9341_tft_driver/Src/ili9341_tft_driver.c **** }
 1221              		.loc 1 315 2 view .LVU335
 315:External/ili9341_tft_driver/Src/ili9341_tft_driver.c **** }
 1222              		.loc 1 315 27 is_stmt 0 view .LVU336
 1223 004e 13B1     		cbz	r3, .L79
 315:External/ili9341_tft_driver/Src/ili9341_tft_driver.c **** }
 1224              		.loc 1 315 27 discriminator 2 view .LVU337
 1225 0050 0AB1     		cbz	r2, .L79
 1226              	.LVL130:
 315:External/ili9341_tft_driver/Src/ili9341_tft_driver.c **** }
 1227              		.loc 1 315 27 discriminator 2 view .LVU338
 1228              	.LBE388:
 1229              	.LBE387:
 334:External/ili9341_tft_driver/Src/ili9341_tft_driver.c **** 	
 1230              		.loc 1 334 2 is_stmt 1 view .LVU339
 1231 0052 0220     		movs	r0, #2
 1232 0054 9047     		blx	r2
 1233              	.LVL131:
 336:External/ili9341_tft_driver/Src/ili9341_tft_driver.c **** }
 1234              		.loc 1 336 2 view .LVU340
 1235              	.L79:
 336:External/ili9341_tft_driver/Src/ili9341_tft_driver.c **** }
 1236              		.loc 1 336 2 is_stmt 0 view .LVU341
 1237              	.LBE386:
 1238              	.LBE385:
  96:External/ili9341_tft_driver/Src/ili9341_tft_driver.c **** 	io_write_data(0x00);
 1239              		.loc 1 96 2 is_stmt 1 view .LVU342
 1240              	.LBB389:
 1241              	.LBI389:
 340:External/ili9341_tft_driver/Src/ili9341_tft_driver.c **** {
 1242              		.loc 1 340 41 view .LVU343
 1243              	.LBB390:
 342:External/ili9341_tft_driver/Src/ili9341_tft_driver.c **** 		return ILI9341_ERROR;
 1244              		.loc 1 342 2 view .LVU344
 342:External/ili9341_tft_driver/Src/ili9341_tft_driver.c **** 		return ILI9341_ERROR;
 1245              		.loc 1 342 32 is_stmt 0 view .LVU345
 1246 0056 534B     		ldr	r3, .L122
 1247 0058 1B68     		ldr	r3, [r3]
 1248 005a 9A68     		ldr	r2, [r3, #8]
 1249              	.LVL132:
 1250              	.LBB391:
 1251              	.LBI391:
 313:External/ili9341_tft_driver/Src/ili9341_tft_driver.c **** {
 1252              		.loc 1 313 20 is_stmt 1 view .LVU346
 1253              	.LBB392:
 315:External/ili9341_tft_driver/Src/ili9341_tft_driver.c **** }
 1254              		.loc 1 315 2 view .LVU347
 315:External/ili9341_tft_driver/Src/ili9341_tft_driver.c **** }
 1255              		.loc 1 315 27 is_stmt 0 view .LVU348
 1256 005c 13B1     		cbz	r3, .L80
 315:External/ili9341_tft_driver/Src/ili9341_tft_driver.c **** }
 1257              		.loc 1 315 27 discriminator 2 view .LVU349
 1258 005e 0AB1     		cbz	r2, .L80
ARM GAS  /tmp/ccS19chs.s 			page 35


 1259              	.LVL133:
 315:External/ili9341_tft_driver/Src/ili9341_tft_driver.c **** }
 1260              		.loc 1 315 27 discriminator 2 view .LVU350
 1261              	.LBE392:
 1262              	.LBE391:
 345:External/ili9341_tft_driver/Src/ili9341_tft_driver.c **** 	
 1263              		.loc 1 345 2 is_stmt 1 view .LVU351
 1264 0060 CF20     		movs	r0, #207
 1265 0062 9047     		blx	r2
 1266              	.LVL134:
 347:External/ili9341_tft_driver/Src/ili9341_tft_driver.c **** }
 1267              		.loc 1 347 2 view .LVU352
 1268              	.L80:
 347:External/ili9341_tft_driver/Src/ili9341_tft_driver.c **** }
 1269              		.loc 1 347 2 is_stmt 0 view .LVU353
 1270              	.LBE390:
 1271              	.LBE389:
  97:External/ili9341_tft_driver/Src/ili9341_tft_driver.c **** 	io_write_data(0xC1);
 1272              		.loc 1 97 2 is_stmt 1 view .LVU354
 1273              	.LBB393:
 1274              	.LBI393:
 329:External/ili9341_tft_driver/Src/ili9341_tft_driver.c **** {
 1275              		.loc 1 329 41 view .LVU355
 1276              	.LBB394:
 331:External/ili9341_tft_driver/Src/ili9341_tft_driver.c **** 		return ILI9341_ERROR;
 1277              		.loc 1 331 2 view .LVU356
 331:External/ili9341_tft_driver/Src/ili9341_tft_driver.c **** 		return ILI9341_ERROR;
 1278              		.loc 1 331 32 is_stmt 0 view .LVU357
 1279 0064 4F4B     		ldr	r3, .L122
 1280 0066 1B68     		ldr	r3, [r3]
 1281 0068 5A68     		ldr	r2, [r3, #4]
 1282              	.LVL135:
 1283              	.LBB395:
 1284              	.LBI395:
 313:External/ili9341_tft_driver/Src/ili9341_tft_driver.c **** {
 1285              		.loc 1 313 20 is_stmt 1 view .LVU358
 1286              	.LBB396:
 315:External/ili9341_tft_driver/Src/ili9341_tft_driver.c **** }
 1287              		.loc 1 315 2 view .LVU359
 315:External/ili9341_tft_driver/Src/ili9341_tft_driver.c **** }
 1288              		.loc 1 315 27 is_stmt 0 view .LVU360
 1289 006a 13B1     		cbz	r3, .L81
 315:External/ili9341_tft_driver/Src/ili9341_tft_driver.c **** }
 1290              		.loc 1 315 27 discriminator 2 view .LVU361
 1291 006c 0AB1     		cbz	r2, .L81
 1292              	.LVL136:
 315:External/ili9341_tft_driver/Src/ili9341_tft_driver.c **** }
 1293              		.loc 1 315 27 discriminator 2 view .LVU362
 1294              	.LBE396:
 1295              	.LBE395:
 334:External/ili9341_tft_driver/Src/ili9341_tft_driver.c **** 	
 1296              		.loc 1 334 2 is_stmt 1 view .LVU363
 1297 006e 0020     		movs	r0, #0
 1298 0070 9047     		blx	r2
 1299              	.LVL137:
 336:External/ili9341_tft_driver/Src/ili9341_tft_driver.c **** }
 1300              		.loc 1 336 2 view .LVU364
ARM GAS  /tmp/ccS19chs.s 			page 36


 1301              	.L81:
 336:External/ili9341_tft_driver/Src/ili9341_tft_driver.c **** }
 1302              		.loc 1 336 2 is_stmt 0 view .LVU365
 1303              	.LBE394:
 1304              	.LBE393:
  98:External/ili9341_tft_driver/Src/ili9341_tft_driver.c **** 	io_write_data(0x30);
 1305              		.loc 1 98 2 is_stmt 1 view .LVU366
 1306              	.LBB397:
 1307              	.LBI397:
 329:External/ili9341_tft_driver/Src/ili9341_tft_driver.c **** {
 1308              		.loc 1 329 41 view .LVU367
 1309              	.LBB398:
 331:External/ili9341_tft_driver/Src/ili9341_tft_driver.c **** 		return ILI9341_ERROR;
 1310              		.loc 1 331 2 view .LVU368
 331:External/ili9341_tft_driver/Src/ili9341_tft_driver.c **** 		return ILI9341_ERROR;
 1311              		.loc 1 331 32 is_stmt 0 view .LVU369
 1312 0072 4C4B     		ldr	r3, .L122
 1313 0074 1B68     		ldr	r3, [r3]
 1314 0076 5A68     		ldr	r2, [r3, #4]
 1315              	.LVL138:
 1316              	.LBB399:
 1317              	.LBI399:
 313:External/ili9341_tft_driver/Src/ili9341_tft_driver.c **** {
 1318              		.loc 1 313 20 is_stmt 1 view .LVU370
 1319              	.LBB400:
 315:External/ili9341_tft_driver/Src/ili9341_tft_driver.c **** }
 1320              		.loc 1 315 2 view .LVU371
 315:External/ili9341_tft_driver/Src/ili9341_tft_driver.c **** }
 1321              		.loc 1 315 27 is_stmt 0 view .LVU372
 1322 0078 13B1     		cbz	r3, .L82
 315:External/ili9341_tft_driver/Src/ili9341_tft_driver.c **** }
 1323              		.loc 1 315 27 discriminator 2 view .LVU373
 1324 007a 0AB1     		cbz	r2, .L82
 1325              	.LVL139:
 315:External/ili9341_tft_driver/Src/ili9341_tft_driver.c **** }
 1326              		.loc 1 315 27 discriminator 2 view .LVU374
 1327              	.LBE400:
 1328              	.LBE399:
 334:External/ili9341_tft_driver/Src/ili9341_tft_driver.c **** 	
 1329              		.loc 1 334 2 is_stmt 1 view .LVU375
 1330 007c C120     		movs	r0, #193
 1331 007e 9047     		blx	r2
 1332              	.LVL140:
 336:External/ili9341_tft_driver/Src/ili9341_tft_driver.c **** }
 1333              		.loc 1 336 2 view .LVU376
 1334              	.L82:
 336:External/ili9341_tft_driver/Src/ili9341_tft_driver.c **** }
 1335              		.loc 1 336 2 is_stmt 0 view .LVU377
 1336              	.LBE398:
 1337              	.LBE397:
  99:External/ili9341_tft_driver/Src/ili9341_tft_driver.c **** 	io_write_reg(ILI9341_CMD_DTCA);
 1338              		.loc 1 99 2 is_stmt 1 view .LVU378
 1339              	.LBB401:
 1340              	.LBI401:
 329:External/ili9341_tft_driver/Src/ili9341_tft_driver.c **** {
 1341              		.loc 1 329 41 view .LVU379
 1342              	.LBB402:
ARM GAS  /tmp/ccS19chs.s 			page 37


 331:External/ili9341_tft_driver/Src/ili9341_tft_driver.c **** 		return ILI9341_ERROR;
 1343              		.loc 1 331 2 view .LVU380
 331:External/ili9341_tft_driver/Src/ili9341_tft_driver.c **** 		return ILI9341_ERROR;
 1344              		.loc 1 331 32 is_stmt 0 view .LVU381
 1345 0080 484B     		ldr	r3, .L122
 1346 0082 1B68     		ldr	r3, [r3]
 1347 0084 5A68     		ldr	r2, [r3, #4]
 1348              	.LVL141:
 1349              	.LBB403:
 1350              	.LBI403:
 313:External/ili9341_tft_driver/Src/ili9341_tft_driver.c **** {
 1351              		.loc 1 313 20 is_stmt 1 view .LVU382
 1352              	.LBB404:
 315:External/ili9341_tft_driver/Src/ili9341_tft_driver.c **** }
 1353              		.loc 1 315 2 view .LVU383
 315:External/ili9341_tft_driver/Src/ili9341_tft_driver.c **** }
 1354              		.loc 1 315 27 is_stmt 0 view .LVU384
 1355 0086 13B1     		cbz	r3, .L83
 315:External/ili9341_tft_driver/Src/ili9341_tft_driver.c **** }
 1356              		.loc 1 315 27 discriminator 2 view .LVU385
 1357 0088 0AB1     		cbz	r2, .L83
 1358              	.LVL142:
 315:External/ili9341_tft_driver/Src/ili9341_tft_driver.c **** }
 1359              		.loc 1 315 27 discriminator 2 view .LVU386
 1360              	.LBE404:
 1361              	.LBE403:
 334:External/ili9341_tft_driver/Src/ili9341_tft_driver.c **** 	
 1362              		.loc 1 334 2 is_stmt 1 view .LVU387
 1363 008a 3020     		movs	r0, #48
 1364 008c 9047     		blx	r2
 1365              	.LVL143:
 336:External/ili9341_tft_driver/Src/ili9341_tft_driver.c **** }
 1366              		.loc 1 336 2 view .LVU388
 1367              	.L83:
 336:External/ili9341_tft_driver/Src/ili9341_tft_driver.c **** }
 1368              		.loc 1 336 2 is_stmt 0 view .LVU389
 1369              	.LBE402:
 1370              	.LBE401:
 100:External/ili9341_tft_driver/Src/ili9341_tft_driver.c **** 	io_write_data(0x85);
 1371              		.loc 1 100 2 is_stmt 1 view .LVU390
 1372              	.LBB405:
 1373              	.LBI405:
 340:External/ili9341_tft_driver/Src/ili9341_tft_driver.c **** {
 1374              		.loc 1 340 41 view .LVU391
 1375              	.LBB406:
 342:External/ili9341_tft_driver/Src/ili9341_tft_driver.c **** 		return ILI9341_ERROR;
 1376              		.loc 1 342 2 view .LVU392
 342:External/ili9341_tft_driver/Src/ili9341_tft_driver.c **** 		return ILI9341_ERROR;
 1377              		.loc 1 342 32 is_stmt 0 view .LVU393
 1378 008e 454B     		ldr	r3, .L122
 1379 0090 1B68     		ldr	r3, [r3]
 1380 0092 9A68     		ldr	r2, [r3, #8]
 1381              	.LVL144:
 1382              	.LBB407:
 1383              	.LBI407:
 313:External/ili9341_tft_driver/Src/ili9341_tft_driver.c **** {
 1384              		.loc 1 313 20 is_stmt 1 view .LVU394
ARM GAS  /tmp/ccS19chs.s 			page 38


 1385              	.LBB408:
 315:External/ili9341_tft_driver/Src/ili9341_tft_driver.c **** }
 1386              		.loc 1 315 2 view .LVU395
 315:External/ili9341_tft_driver/Src/ili9341_tft_driver.c **** }
 1387              		.loc 1 315 27 is_stmt 0 view .LVU396
 1388 0094 13B1     		cbz	r3, .L84
 315:External/ili9341_tft_driver/Src/ili9341_tft_driver.c **** }
 1389              		.loc 1 315 27 discriminator 2 view .LVU397
 1390 0096 0AB1     		cbz	r2, .L84
 1391              	.LVL145:
 315:External/ili9341_tft_driver/Src/ili9341_tft_driver.c **** }
 1392              		.loc 1 315 27 discriminator 2 view .LVU398
 1393              	.LBE408:
 1394              	.LBE407:
 345:External/ili9341_tft_driver/Src/ili9341_tft_driver.c **** 	
 1395              		.loc 1 345 2 is_stmt 1 view .LVU399
 1396 0098 E820     		movs	r0, #232
 1397 009a 9047     		blx	r2
 1398              	.LVL146:
 347:External/ili9341_tft_driver/Src/ili9341_tft_driver.c **** }
 1399              		.loc 1 347 2 view .LVU400
 1400              	.L84:
 347:External/ili9341_tft_driver/Src/ili9341_tft_driver.c **** }
 1401              		.loc 1 347 2 is_stmt 0 view .LVU401
 1402              	.LBE406:
 1403              	.LBE405:
 101:External/ili9341_tft_driver/Src/ili9341_tft_driver.c **** 	io_write_data(0x00);
 1404              		.loc 1 101 2 is_stmt 1 view .LVU402
 1405              	.LBB409:
 1406              	.LBI409:
 329:External/ili9341_tft_driver/Src/ili9341_tft_driver.c **** {
 1407              		.loc 1 329 41 view .LVU403
 1408              	.LBB410:
 331:External/ili9341_tft_driver/Src/ili9341_tft_driver.c **** 		return ILI9341_ERROR;
 1409              		.loc 1 331 2 view .LVU404
 331:External/ili9341_tft_driver/Src/ili9341_tft_driver.c **** 		return ILI9341_ERROR;
 1410              		.loc 1 331 32 is_stmt 0 view .LVU405
 1411 009c 414B     		ldr	r3, .L122
 1412 009e 1B68     		ldr	r3, [r3]
 1413 00a0 5A68     		ldr	r2, [r3, #4]
 1414              	.LVL147:
 1415              	.LBB411:
 1416              	.LBI411:
 313:External/ili9341_tft_driver/Src/ili9341_tft_driver.c **** {
 1417              		.loc 1 313 20 is_stmt 1 view .LVU406
 1418              	.LBB412:
 315:External/ili9341_tft_driver/Src/ili9341_tft_driver.c **** }
 1419              		.loc 1 315 2 view .LVU407
 315:External/ili9341_tft_driver/Src/ili9341_tft_driver.c **** }
 1420              		.loc 1 315 27 is_stmt 0 view .LVU408
 1421 00a2 13B1     		cbz	r3, .L85
 315:External/ili9341_tft_driver/Src/ili9341_tft_driver.c **** }
 1422              		.loc 1 315 27 discriminator 2 view .LVU409
 1423 00a4 0AB1     		cbz	r2, .L85
 1424              	.LVL148:
 315:External/ili9341_tft_driver/Src/ili9341_tft_driver.c **** }
 1425              		.loc 1 315 27 discriminator 2 view .LVU410
ARM GAS  /tmp/ccS19chs.s 			page 39


 1426              	.LBE412:
 1427              	.LBE411:
 334:External/ili9341_tft_driver/Src/ili9341_tft_driver.c **** 	
 1428              		.loc 1 334 2 is_stmt 1 view .LVU411
 1429 00a6 8520     		movs	r0, #133
 1430 00a8 9047     		blx	r2
 1431              	.LVL149:
 336:External/ili9341_tft_driver/Src/ili9341_tft_driver.c **** }
 1432              		.loc 1 336 2 view .LVU412
 1433              	.L85:
 336:External/ili9341_tft_driver/Src/ili9341_tft_driver.c **** }
 1434              		.loc 1 336 2 is_stmt 0 view .LVU413
 1435              	.LBE410:
 1436              	.LBE409:
 102:External/ili9341_tft_driver/Src/ili9341_tft_driver.c **** 	io_write_data(0x78);
 1437              		.loc 1 102 2 is_stmt 1 view .LVU414
 1438              	.LBB413:
 1439              	.LBI413:
 329:External/ili9341_tft_driver/Src/ili9341_tft_driver.c **** {
 1440              		.loc 1 329 41 view .LVU415
 1441              	.LBB414:
 331:External/ili9341_tft_driver/Src/ili9341_tft_driver.c **** 		return ILI9341_ERROR;
 1442              		.loc 1 331 2 view .LVU416
 331:External/ili9341_tft_driver/Src/ili9341_tft_driver.c **** 		return ILI9341_ERROR;
 1443              		.loc 1 331 32 is_stmt 0 view .LVU417
 1444 00aa 3E4B     		ldr	r3, .L122
 1445 00ac 1B68     		ldr	r3, [r3]
 1446 00ae 5A68     		ldr	r2, [r3, #4]
 1447              	.LVL150:
 1448              	.LBB415:
 1449              	.LBI415:
 313:External/ili9341_tft_driver/Src/ili9341_tft_driver.c **** {
 1450              		.loc 1 313 20 is_stmt 1 view .LVU418
 1451              	.LBB416:
 315:External/ili9341_tft_driver/Src/ili9341_tft_driver.c **** }
 1452              		.loc 1 315 2 view .LVU419
 315:External/ili9341_tft_driver/Src/ili9341_tft_driver.c **** }
 1453              		.loc 1 315 27 is_stmt 0 view .LVU420
 1454 00b0 13B1     		cbz	r3, .L86
 315:External/ili9341_tft_driver/Src/ili9341_tft_driver.c **** }
 1455              		.loc 1 315 27 discriminator 2 view .LVU421
 1456 00b2 0AB1     		cbz	r2, .L86
 1457              	.LVL151:
 315:External/ili9341_tft_driver/Src/ili9341_tft_driver.c **** }
 1458              		.loc 1 315 27 discriminator 2 view .LVU422
 1459              	.LBE416:
 1460              	.LBE415:
 334:External/ili9341_tft_driver/Src/ili9341_tft_driver.c **** 	
 1461              		.loc 1 334 2 is_stmt 1 view .LVU423
 1462 00b4 0020     		movs	r0, #0
 1463 00b6 9047     		blx	r2
 1464              	.LVL152:
 336:External/ili9341_tft_driver/Src/ili9341_tft_driver.c **** }
 1465              		.loc 1 336 2 view .LVU424
 1466              	.L86:
 336:External/ili9341_tft_driver/Src/ili9341_tft_driver.c **** }
 1467              		.loc 1 336 2 is_stmt 0 view .LVU425
ARM GAS  /tmp/ccS19chs.s 			page 40


 1468              	.LBE414:
 1469              	.LBE413:
 103:External/ili9341_tft_driver/Src/ili9341_tft_driver.c **** 	io_write_reg(ILI9341_CMD_DTCB);
 1470              		.loc 1 103 2 is_stmt 1 view .LVU426
 1471              	.LBB417:
 1472              	.LBI417:
 329:External/ili9341_tft_driver/Src/ili9341_tft_driver.c **** {
 1473              		.loc 1 329 41 view .LVU427
 1474              	.LBB418:
 331:External/ili9341_tft_driver/Src/ili9341_tft_driver.c **** 		return ILI9341_ERROR;
 1475              		.loc 1 331 2 view .LVU428
 331:External/ili9341_tft_driver/Src/ili9341_tft_driver.c **** 		return ILI9341_ERROR;
 1476              		.loc 1 331 32 is_stmt 0 view .LVU429
 1477 00b8 3A4B     		ldr	r3, .L122
 1478 00ba 1B68     		ldr	r3, [r3]
 1479 00bc 5A68     		ldr	r2, [r3, #4]
 1480              	.LVL153:
 1481              	.LBB419:
 1482              	.LBI419:
 313:External/ili9341_tft_driver/Src/ili9341_tft_driver.c **** {
 1483              		.loc 1 313 20 is_stmt 1 view .LVU430
 1484              	.LBB420:
 315:External/ili9341_tft_driver/Src/ili9341_tft_driver.c **** }
 1485              		.loc 1 315 2 view .LVU431
 315:External/ili9341_tft_driver/Src/ili9341_tft_driver.c **** }
 1486              		.loc 1 315 27 is_stmt 0 view .LVU432
 1487 00be 13B1     		cbz	r3, .L87
 315:External/ili9341_tft_driver/Src/ili9341_tft_driver.c **** }
 1488              		.loc 1 315 27 discriminator 2 view .LVU433
 1489 00c0 0AB1     		cbz	r2, .L87
 1490              	.LVL154:
 315:External/ili9341_tft_driver/Src/ili9341_tft_driver.c **** }
 1491              		.loc 1 315 27 discriminator 2 view .LVU434
 1492              	.LBE420:
 1493              	.LBE419:
 334:External/ili9341_tft_driver/Src/ili9341_tft_driver.c **** 	
 1494              		.loc 1 334 2 is_stmt 1 view .LVU435
 1495 00c2 7820     		movs	r0, #120
 1496 00c4 9047     		blx	r2
 1497              	.LVL155:
 336:External/ili9341_tft_driver/Src/ili9341_tft_driver.c **** }
 1498              		.loc 1 336 2 view .LVU436
 1499              	.L87:
 336:External/ili9341_tft_driver/Src/ili9341_tft_driver.c **** }
 1500              		.loc 1 336 2 is_stmt 0 view .LVU437
 1501              	.LBE418:
 1502              	.LBE417:
 104:External/ili9341_tft_driver/Src/ili9341_tft_driver.c **** 	io_write_data(0x00);
 1503              		.loc 1 104 2 is_stmt 1 view .LVU438
 1504              	.LBB421:
 1505              	.LBI421:
 340:External/ili9341_tft_driver/Src/ili9341_tft_driver.c **** {
 1506              		.loc 1 340 41 view .LVU439
 1507              	.LBB422:
 342:External/ili9341_tft_driver/Src/ili9341_tft_driver.c **** 		return ILI9341_ERROR;
 1508              		.loc 1 342 2 view .LVU440
 342:External/ili9341_tft_driver/Src/ili9341_tft_driver.c **** 		return ILI9341_ERROR;
ARM GAS  /tmp/ccS19chs.s 			page 41


 1509              		.loc 1 342 32 is_stmt 0 view .LVU441
 1510 00c6 374B     		ldr	r3, .L122
 1511 00c8 1B68     		ldr	r3, [r3]
 1512 00ca 9A68     		ldr	r2, [r3, #8]
 1513              	.LVL156:
 1514              	.LBB423:
 1515              	.LBI423:
 313:External/ili9341_tft_driver/Src/ili9341_tft_driver.c **** {
 1516              		.loc 1 313 20 is_stmt 1 view .LVU442
 1517              	.LBB424:
 315:External/ili9341_tft_driver/Src/ili9341_tft_driver.c **** }
 1518              		.loc 1 315 2 view .LVU443
 315:External/ili9341_tft_driver/Src/ili9341_tft_driver.c **** }
 1519              		.loc 1 315 27 is_stmt 0 view .LVU444
 1520 00cc 13B1     		cbz	r3, .L88
 315:External/ili9341_tft_driver/Src/ili9341_tft_driver.c **** }
 1521              		.loc 1 315 27 discriminator 2 view .LVU445
 1522 00ce 0AB1     		cbz	r2, .L88
 1523              	.LVL157:
 315:External/ili9341_tft_driver/Src/ili9341_tft_driver.c **** }
 1524              		.loc 1 315 27 discriminator 2 view .LVU446
 1525              	.LBE424:
 1526              	.LBE423:
 345:External/ili9341_tft_driver/Src/ili9341_tft_driver.c **** 	
 1527              		.loc 1 345 2 is_stmt 1 view .LVU447
 1528 00d0 EA20     		movs	r0, #234
 1529 00d2 9047     		blx	r2
 1530              	.LVL158:
 347:External/ili9341_tft_driver/Src/ili9341_tft_driver.c **** }
 1531              		.loc 1 347 2 view .LVU448
 1532              	.L88:
 347:External/ili9341_tft_driver/Src/ili9341_tft_driver.c **** }
 1533              		.loc 1 347 2 is_stmt 0 view .LVU449
 1534              	.LBE422:
 1535              	.LBE421:
 105:External/ili9341_tft_driver/Src/ili9341_tft_driver.c **** 	io_write_data(0x00);
 1536              		.loc 1 105 2 is_stmt 1 view .LVU450
 1537              	.LBB425:
 1538              	.LBI425:
 329:External/ili9341_tft_driver/Src/ili9341_tft_driver.c **** {
 1539              		.loc 1 329 41 view .LVU451
 1540              	.LBB426:
 331:External/ili9341_tft_driver/Src/ili9341_tft_driver.c **** 		return ILI9341_ERROR;
 1541              		.loc 1 331 2 view .LVU452
 331:External/ili9341_tft_driver/Src/ili9341_tft_driver.c **** 		return ILI9341_ERROR;
 1542              		.loc 1 331 32 is_stmt 0 view .LVU453
 1543 00d4 334B     		ldr	r3, .L122
 1544 00d6 1B68     		ldr	r3, [r3]
 1545 00d8 5A68     		ldr	r2, [r3, #4]
 1546              	.LVL159:
 1547              	.LBB427:
 1548              	.LBI427:
 313:External/ili9341_tft_driver/Src/ili9341_tft_driver.c **** {
 1549              		.loc 1 313 20 is_stmt 1 view .LVU454
 1550              	.LBB428:
 315:External/ili9341_tft_driver/Src/ili9341_tft_driver.c **** }
 1551              		.loc 1 315 2 view .LVU455
ARM GAS  /tmp/ccS19chs.s 			page 42


 315:External/ili9341_tft_driver/Src/ili9341_tft_driver.c **** }
 1552              		.loc 1 315 27 is_stmt 0 view .LVU456
 1553 00da 13B1     		cbz	r3, .L89
 315:External/ili9341_tft_driver/Src/ili9341_tft_driver.c **** }
 1554              		.loc 1 315 27 discriminator 2 view .LVU457
 1555 00dc 0AB1     		cbz	r2, .L89
 1556              	.LVL160:
 315:External/ili9341_tft_driver/Src/ili9341_tft_driver.c **** }
 1557              		.loc 1 315 27 discriminator 2 view .LVU458
 1558              	.LBE428:
 1559              	.LBE427:
 334:External/ili9341_tft_driver/Src/ili9341_tft_driver.c **** 	
 1560              		.loc 1 334 2 is_stmt 1 view .LVU459
 1561 00de 0020     		movs	r0, #0
 1562 00e0 9047     		blx	r2
 1563              	.LVL161:
 336:External/ili9341_tft_driver/Src/ili9341_tft_driver.c **** }
 1564              		.loc 1 336 2 view .LVU460
 1565              	.L89:
 336:External/ili9341_tft_driver/Src/ili9341_tft_driver.c **** }
 1566              		.loc 1 336 2 is_stmt 0 view .LVU461
 1567              	.LBE426:
 1568              	.LBE425:
 106:External/ili9341_tft_driver/Src/ili9341_tft_driver.c **** 	io_write_reg(ILI9341_CMD_POWER_SEQ);
 1569              		.loc 1 106 2 is_stmt 1 view .LVU462
 1570              	.LBB429:
 1571              	.LBI429:
 329:External/ili9341_tft_driver/Src/ili9341_tft_driver.c **** {
 1572              		.loc 1 329 41 view .LVU463
 1573              	.LBB430:
 331:External/ili9341_tft_driver/Src/ili9341_tft_driver.c **** 		return ILI9341_ERROR;
 1574              		.loc 1 331 2 view .LVU464
 331:External/ili9341_tft_driver/Src/ili9341_tft_driver.c **** 		return ILI9341_ERROR;
 1575              		.loc 1 331 32 is_stmt 0 view .LVU465
 1576 00e2 304B     		ldr	r3, .L122
 1577 00e4 1B68     		ldr	r3, [r3]
 1578 00e6 5A68     		ldr	r2, [r3, #4]
 1579              	.LVL162:
 1580              	.LBB431:
 1581              	.LBI431:
 313:External/ili9341_tft_driver/Src/ili9341_tft_driver.c **** {
 1582              		.loc 1 313 20 is_stmt 1 view .LVU466
 1583              	.LBB432:
 315:External/ili9341_tft_driver/Src/ili9341_tft_driver.c **** }
 1584              		.loc 1 315 2 view .LVU467
 315:External/ili9341_tft_driver/Src/ili9341_tft_driver.c **** }
 1585              		.loc 1 315 27 is_stmt 0 view .LVU468
 1586 00e8 13B1     		cbz	r3, .L90
 315:External/ili9341_tft_driver/Src/ili9341_tft_driver.c **** }
 1587              		.loc 1 315 27 discriminator 2 view .LVU469
 1588 00ea 0AB1     		cbz	r2, .L90
 1589              	.LVL163:
 315:External/ili9341_tft_driver/Src/ili9341_tft_driver.c **** }
 1590              		.loc 1 315 27 discriminator 2 view .LVU470
 1591              	.LBE432:
 1592              	.LBE431:
 334:External/ili9341_tft_driver/Src/ili9341_tft_driver.c **** 	
ARM GAS  /tmp/ccS19chs.s 			page 43


 1593              		.loc 1 334 2 is_stmt 1 view .LVU471
 1594 00ec 0020     		movs	r0, #0
 1595 00ee 9047     		blx	r2
 1596              	.LVL164:
 336:External/ili9341_tft_driver/Src/ili9341_tft_driver.c **** }
 1597              		.loc 1 336 2 view .LVU472
 1598              	.L90:
 336:External/ili9341_tft_driver/Src/ili9341_tft_driver.c **** }
 1599              		.loc 1 336 2 is_stmt 0 view .LVU473
 1600              	.LBE430:
 1601              	.LBE429:
 107:External/ili9341_tft_driver/Src/ili9341_tft_driver.c **** 	io_write_data(0x64);
 1602              		.loc 1 107 2 is_stmt 1 view .LVU474
 1603              	.LBB433:
 1604              	.LBI433:
 340:External/ili9341_tft_driver/Src/ili9341_tft_driver.c **** {
 1605              		.loc 1 340 41 view .LVU475
 1606              	.LBB434:
 342:External/ili9341_tft_driver/Src/ili9341_tft_driver.c **** 		return ILI9341_ERROR;
 1607              		.loc 1 342 2 view .LVU476
 342:External/ili9341_tft_driver/Src/ili9341_tft_driver.c **** 		return ILI9341_ERROR;
 1608              		.loc 1 342 32 is_stmt 0 view .LVU477
 1609 00f0 2C4B     		ldr	r3, .L122
 1610 00f2 1B68     		ldr	r3, [r3]
 1611 00f4 9A68     		ldr	r2, [r3, #8]
 1612              	.LVL165:
 1613              	.LBB435:
 1614              	.LBI435:
 313:External/ili9341_tft_driver/Src/ili9341_tft_driver.c **** {
 1615              		.loc 1 313 20 is_stmt 1 view .LVU478
 1616              	.LBB436:
 315:External/ili9341_tft_driver/Src/ili9341_tft_driver.c **** }
 1617              		.loc 1 315 2 view .LVU479
 315:External/ili9341_tft_driver/Src/ili9341_tft_driver.c **** }
 1618              		.loc 1 315 27 is_stmt 0 view .LVU480
 1619 00f6 13B1     		cbz	r3, .L91
 315:External/ili9341_tft_driver/Src/ili9341_tft_driver.c **** }
 1620              		.loc 1 315 27 discriminator 2 view .LVU481
 1621 00f8 0AB1     		cbz	r2, .L91
 1622              	.LVL166:
 315:External/ili9341_tft_driver/Src/ili9341_tft_driver.c **** }
 1623              		.loc 1 315 27 discriminator 2 view .LVU482
 1624              	.LBE436:
 1625              	.LBE435:
 345:External/ili9341_tft_driver/Src/ili9341_tft_driver.c **** 	
 1626              		.loc 1 345 2 is_stmt 1 view .LVU483
 1627 00fa ED20     		movs	r0, #237
 1628 00fc 9047     		blx	r2
 1629              	.LVL167:
 347:External/ili9341_tft_driver/Src/ili9341_tft_driver.c **** }
 1630              		.loc 1 347 2 view .LVU484
 1631              	.L91:
 347:External/ili9341_tft_driver/Src/ili9341_tft_driver.c **** }
 1632              		.loc 1 347 2 is_stmt 0 view .LVU485
 1633              	.LBE434:
 1634              	.LBE433:
 108:External/ili9341_tft_driver/Src/ili9341_tft_driver.c **** 	io_write_data(0x03);
ARM GAS  /tmp/ccS19chs.s 			page 44


 1635              		.loc 1 108 2 is_stmt 1 view .LVU486
 1636              	.LBB437:
 1637              	.LBI437:
 329:External/ili9341_tft_driver/Src/ili9341_tft_driver.c **** {
 1638              		.loc 1 329 41 view .LVU487
 1639              	.LBB438:
 331:External/ili9341_tft_driver/Src/ili9341_tft_driver.c **** 		return ILI9341_ERROR;
 1640              		.loc 1 331 2 view .LVU488
 331:External/ili9341_tft_driver/Src/ili9341_tft_driver.c **** 		return ILI9341_ERROR;
 1641              		.loc 1 331 32 is_stmt 0 view .LVU489
 1642 00fe 294B     		ldr	r3, .L122
 1643 0100 1B68     		ldr	r3, [r3]
 1644 0102 5A68     		ldr	r2, [r3, #4]
 1645              	.LVL168:
 1646              	.LBB439:
 1647              	.LBI439:
 313:External/ili9341_tft_driver/Src/ili9341_tft_driver.c **** {
 1648              		.loc 1 313 20 is_stmt 1 view .LVU490
 1649              	.LBB440:
 315:External/ili9341_tft_driver/Src/ili9341_tft_driver.c **** }
 1650              		.loc 1 315 2 view .LVU491
 315:External/ili9341_tft_driver/Src/ili9341_tft_driver.c **** }
 1651              		.loc 1 315 27 is_stmt 0 view .LVU492
 1652 0104 13B1     		cbz	r3, .L92
 315:External/ili9341_tft_driver/Src/ili9341_tft_driver.c **** }
 1653              		.loc 1 315 27 discriminator 2 view .LVU493
 1654 0106 0AB1     		cbz	r2, .L92
 1655              	.LVL169:
 315:External/ili9341_tft_driver/Src/ili9341_tft_driver.c **** }
 1656              		.loc 1 315 27 discriminator 2 view .LVU494
 1657              	.LBE440:
 1658              	.LBE439:
 334:External/ili9341_tft_driver/Src/ili9341_tft_driver.c **** 	
 1659              		.loc 1 334 2 is_stmt 1 view .LVU495
 1660 0108 6420     		movs	r0, #100
 1661 010a 9047     		blx	r2
 1662              	.LVL170:
 336:External/ili9341_tft_driver/Src/ili9341_tft_driver.c **** }
 1663              		.loc 1 336 2 view .LVU496
 1664              	.L92:
 336:External/ili9341_tft_driver/Src/ili9341_tft_driver.c **** }
 1665              		.loc 1 336 2 is_stmt 0 view .LVU497
 1666              	.LBE438:
 1667              	.LBE437:
 109:External/ili9341_tft_driver/Src/ili9341_tft_driver.c **** 	io_write_data(0x12);
 1668              		.loc 1 109 2 is_stmt 1 view .LVU498
 1669              	.LBB441:
 1670              	.LBI441:
 329:External/ili9341_tft_driver/Src/ili9341_tft_driver.c **** {
 1671              		.loc 1 329 41 view .LVU499
 1672              	.LBB442:
 331:External/ili9341_tft_driver/Src/ili9341_tft_driver.c **** 		return ILI9341_ERROR;
 1673              		.loc 1 331 2 view .LVU500
 331:External/ili9341_tft_driver/Src/ili9341_tft_driver.c **** 		return ILI9341_ERROR;
 1674              		.loc 1 331 32 is_stmt 0 view .LVU501
 1675 010c 254B     		ldr	r3, .L122
 1676 010e 1B68     		ldr	r3, [r3]
ARM GAS  /tmp/ccS19chs.s 			page 45


 1677 0110 5A68     		ldr	r2, [r3, #4]
 1678              	.LVL171:
 1679              	.LBB443:
 1680              	.LBI443:
 313:External/ili9341_tft_driver/Src/ili9341_tft_driver.c **** {
 1681              		.loc 1 313 20 is_stmt 1 view .LVU502
 1682              	.LBB444:
 315:External/ili9341_tft_driver/Src/ili9341_tft_driver.c **** }
 1683              		.loc 1 315 2 view .LVU503
 315:External/ili9341_tft_driver/Src/ili9341_tft_driver.c **** }
 1684              		.loc 1 315 27 is_stmt 0 view .LVU504
 1685 0112 13B1     		cbz	r3, .L93
 315:External/ili9341_tft_driver/Src/ili9341_tft_driver.c **** }
 1686              		.loc 1 315 27 discriminator 2 view .LVU505
 1687 0114 0AB1     		cbz	r2, .L93
 1688              	.LVL172:
 315:External/ili9341_tft_driver/Src/ili9341_tft_driver.c **** }
 1689              		.loc 1 315 27 discriminator 2 view .LVU506
 1690              	.LBE444:
 1691              	.LBE443:
 334:External/ili9341_tft_driver/Src/ili9341_tft_driver.c **** 	
 1692              		.loc 1 334 2 is_stmt 1 view .LVU507
 1693 0116 0320     		movs	r0, #3
 1694 0118 9047     		blx	r2
 1695              	.LVL173:
 336:External/ili9341_tft_driver/Src/ili9341_tft_driver.c **** }
 1696              		.loc 1 336 2 view .LVU508
 1697              	.L93:
 336:External/ili9341_tft_driver/Src/ili9341_tft_driver.c **** }
 1698              		.loc 1 336 2 is_stmt 0 view .LVU509
 1699              	.LBE442:
 1700              	.LBE441:
 110:External/ili9341_tft_driver/Src/ili9341_tft_driver.c **** 	io_write_data(0x81);
 1701              		.loc 1 110 2 is_stmt 1 view .LVU510
 1702              	.LBB445:
 1703              	.LBI445:
 329:External/ili9341_tft_driver/Src/ili9341_tft_driver.c **** {
 1704              		.loc 1 329 41 view .LVU511
 1705              	.LBB446:
 331:External/ili9341_tft_driver/Src/ili9341_tft_driver.c **** 		return ILI9341_ERROR;
 1706              		.loc 1 331 2 view .LVU512
 331:External/ili9341_tft_driver/Src/ili9341_tft_driver.c **** 		return ILI9341_ERROR;
 1707              		.loc 1 331 32 is_stmt 0 view .LVU513
 1708 011a 224B     		ldr	r3, .L122
 1709 011c 1B68     		ldr	r3, [r3]
 1710 011e 5A68     		ldr	r2, [r3, #4]
 1711              	.LVL174:
 1712              	.LBB447:
 1713              	.LBI447:
 313:External/ili9341_tft_driver/Src/ili9341_tft_driver.c **** {
 1714              		.loc 1 313 20 is_stmt 1 view .LVU514
 1715              	.LBB448:
 315:External/ili9341_tft_driver/Src/ili9341_tft_driver.c **** }
 1716              		.loc 1 315 2 view .LVU515
 315:External/ili9341_tft_driver/Src/ili9341_tft_driver.c **** }
 1717              		.loc 1 315 27 is_stmt 0 view .LVU516
 1718 0120 13B1     		cbz	r3, .L94
ARM GAS  /tmp/ccS19chs.s 			page 46


 315:External/ili9341_tft_driver/Src/ili9341_tft_driver.c **** }
 1719              		.loc 1 315 27 discriminator 2 view .LVU517
 1720 0122 0AB1     		cbz	r2, .L94
 1721              	.LVL175:
 315:External/ili9341_tft_driver/Src/ili9341_tft_driver.c **** }
 1722              		.loc 1 315 27 discriminator 2 view .LVU518
 1723              	.LBE448:
 1724              	.LBE447:
 334:External/ili9341_tft_driver/Src/ili9341_tft_driver.c **** 	
 1725              		.loc 1 334 2 is_stmt 1 view .LVU519
 1726 0124 1220     		movs	r0, #18
 1727 0126 9047     		blx	r2
 1728              	.LVL176:
 336:External/ili9341_tft_driver/Src/ili9341_tft_driver.c **** }
 1729              		.loc 1 336 2 view .LVU520
 1730              	.L94:
 336:External/ili9341_tft_driver/Src/ili9341_tft_driver.c **** }
 1731              		.loc 1 336 2 is_stmt 0 view .LVU521
 1732              	.LBE446:
 1733              	.LBE445:
 111:External/ili9341_tft_driver/Src/ili9341_tft_driver.c **** 	io_write_reg(ILI9341_CMD_PRC);
 1734              		.loc 1 111 2 is_stmt 1 view .LVU522
 1735              	.LBB449:
 1736              	.LBI449:
 329:External/ili9341_tft_driver/Src/ili9341_tft_driver.c **** {
 1737              		.loc 1 329 41 view .LVU523
 1738              	.LBB450:
 331:External/ili9341_tft_driver/Src/ili9341_tft_driver.c **** 		return ILI9341_ERROR;
 1739              		.loc 1 331 2 view .LVU524
 331:External/ili9341_tft_driver/Src/ili9341_tft_driver.c **** 		return ILI9341_ERROR;
 1740              		.loc 1 331 32 is_stmt 0 view .LVU525
 1741 0128 1E4B     		ldr	r3, .L122
 1742 012a 1B68     		ldr	r3, [r3]
 1743 012c 5A68     		ldr	r2, [r3, #4]
 1744              	.LVL177:
 1745              	.LBB451:
 1746              	.LBI451:
 313:External/ili9341_tft_driver/Src/ili9341_tft_driver.c **** {
 1747              		.loc 1 313 20 is_stmt 1 view .LVU526
 1748              	.LBB452:
 315:External/ili9341_tft_driver/Src/ili9341_tft_driver.c **** }
 1749              		.loc 1 315 2 view .LVU527
 315:External/ili9341_tft_driver/Src/ili9341_tft_driver.c **** }
 1750              		.loc 1 315 27 is_stmt 0 view .LVU528
 1751 012e 13B1     		cbz	r3, .L95
 315:External/ili9341_tft_driver/Src/ili9341_tft_driver.c **** }
 1752              		.loc 1 315 27 discriminator 2 view .LVU529
 1753 0130 0AB1     		cbz	r2, .L95
 1754              	.LVL178:
 315:External/ili9341_tft_driver/Src/ili9341_tft_driver.c **** }
 1755              		.loc 1 315 27 discriminator 2 view .LVU530
 1756              	.LBE452:
 1757              	.LBE451:
 334:External/ili9341_tft_driver/Src/ili9341_tft_driver.c **** 	
 1758              		.loc 1 334 2 is_stmt 1 view .LVU531
 1759 0132 8120     		movs	r0, #129
 1760 0134 9047     		blx	r2
ARM GAS  /tmp/ccS19chs.s 			page 47


 1761              	.LVL179:
 336:External/ili9341_tft_driver/Src/ili9341_tft_driver.c **** }
 1762              		.loc 1 336 2 view .LVU532
 1763              	.L95:
 336:External/ili9341_tft_driver/Src/ili9341_tft_driver.c **** }
 1764              		.loc 1 336 2 is_stmt 0 view .LVU533
 1765              	.LBE450:
 1766              	.LBE449:
 112:External/ili9341_tft_driver/Src/ili9341_tft_driver.c **** 	io_write_data(0x20);
 1767              		.loc 1 112 2 is_stmt 1 view .LVU534
 1768              	.LBB453:
 1769              	.LBI453:
 340:External/ili9341_tft_driver/Src/ili9341_tft_driver.c **** {
 1770              		.loc 1 340 41 view .LVU535
 1771              	.LBB454:
 342:External/ili9341_tft_driver/Src/ili9341_tft_driver.c **** 		return ILI9341_ERROR;
 1772              		.loc 1 342 2 view .LVU536
 342:External/ili9341_tft_driver/Src/ili9341_tft_driver.c **** 		return ILI9341_ERROR;
 1773              		.loc 1 342 32 is_stmt 0 view .LVU537
 1774 0136 1B4B     		ldr	r3, .L122
 1775 0138 1B68     		ldr	r3, [r3]
 1776 013a 9A68     		ldr	r2, [r3, #8]
 1777              	.LVL180:
 1778              	.LBB455:
 1779              	.LBI455:
 313:External/ili9341_tft_driver/Src/ili9341_tft_driver.c **** {
 1780              		.loc 1 313 20 is_stmt 1 view .LVU538
 1781              	.LBB456:
 315:External/ili9341_tft_driver/Src/ili9341_tft_driver.c **** }
 1782              		.loc 1 315 2 view .LVU539
 315:External/ili9341_tft_driver/Src/ili9341_tft_driver.c **** }
 1783              		.loc 1 315 27 is_stmt 0 view .LVU540
 1784 013c 13B1     		cbz	r3, .L96
 315:External/ili9341_tft_driver/Src/ili9341_tft_driver.c **** }
 1785              		.loc 1 315 27 discriminator 2 view .LVU541
 1786 013e 0AB1     		cbz	r2, .L96
 1787              	.LVL181:
 315:External/ili9341_tft_driver/Src/ili9341_tft_driver.c **** }
 1788              		.loc 1 315 27 discriminator 2 view .LVU542
 1789              	.LBE456:
 1790              	.LBE455:
 345:External/ili9341_tft_driver/Src/ili9341_tft_driver.c **** 	
 1791              		.loc 1 345 2 is_stmt 1 view .LVU543
 1792 0140 F720     		movs	r0, #247
 1793 0142 9047     		blx	r2
 1794              	.LVL182:
 347:External/ili9341_tft_driver/Src/ili9341_tft_driver.c **** }
 1795              		.loc 1 347 2 view .LVU544
 1796              	.L96:
 347:External/ili9341_tft_driver/Src/ili9341_tft_driver.c **** }
 1797              		.loc 1 347 2 is_stmt 0 view .LVU545
 1798              	.LBE454:
 1799              	.LBE453:
 113:External/ili9341_tft_driver/Src/ili9341_tft_driver.c **** 	io_write_reg(ILI9341_CMD_POWER1);
 1800              		.loc 1 113 2 is_stmt 1 view .LVU546
 1801              	.LBB457:
 1802              	.LBI457:
ARM GAS  /tmp/ccS19chs.s 			page 48


 329:External/ili9341_tft_driver/Src/ili9341_tft_driver.c **** {
 1803              		.loc 1 329 41 view .LVU547
 1804              	.LBB458:
 331:External/ili9341_tft_driver/Src/ili9341_tft_driver.c **** 		return ILI9341_ERROR;
 1805              		.loc 1 331 2 view .LVU548
 331:External/ili9341_tft_driver/Src/ili9341_tft_driver.c **** 		return ILI9341_ERROR;
 1806              		.loc 1 331 32 is_stmt 0 view .LVU549
 1807 0144 174B     		ldr	r3, .L122
 1808 0146 1B68     		ldr	r3, [r3]
 1809 0148 5A68     		ldr	r2, [r3, #4]
 1810              	.LVL183:
 1811              	.LBB459:
 1812              	.LBI459:
 313:External/ili9341_tft_driver/Src/ili9341_tft_driver.c **** {
 1813              		.loc 1 313 20 is_stmt 1 view .LVU550
 1814              	.LBB460:
 315:External/ili9341_tft_driver/Src/ili9341_tft_driver.c **** }
 1815              		.loc 1 315 2 view .LVU551
 315:External/ili9341_tft_driver/Src/ili9341_tft_driver.c **** }
 1816              		.loc 1 315 27 is_stmt 0 view .LVU552
 1817 014a 13B1     		cbz	r3, .L97
 315:External/ili9341_tft_driver/Src/ili9341_tft_driver.c **** }
 1818              		.loc 1 315 27 discriminator 2 view .LVU553
 1819 014c 0AB1     		cbz	r2, .L97
 1820              	.LVL184:
 315:External/ili9341_tft_driver/Src/ili9341_tft_driver.c **** }
 1821              		.loc 1 315 27 discriminator 2 view .LVU554
 1822              	.LBE460:
 1823              	.LBE459:
 334:External/ili9341_tft_driver/Src/ili9341_tft_driver.c **** 	
 1824              		.loc 1 334 2 is_stmt 1 view .LVU555
 1825 014e 2020     		movs	r0, #32
 1826 0150 9047     		blx	r2
 1827              	.LVL185:
 336:External/ili9341_tft_driver/Src/ili9341_tft_driver.c **** }
 1828              		.loc 1 336 2 view .LVU556
 1829              	.L97:
 336:External/ili9341_tft_driver/Src/ili9341_tft_driver.c **** }
 1830              		.loc 1 336 2 is_stmt 0 view .LVU557
 1831              	.LBE458:
 1832              	.LBE457:
 114:External/ili9341_tft_driver/Src/ili9341_tft_driver.c **** 	io_write_data(0x23);
 1833              		.loc 1 114 2 is_stmt 1 view .LVU558
 1834              	.LBB461:
 1835              	.LBI461:
 340:External/ili9341_tft_driver/Src/ili9341_tft_driver.c **** {
 1836              		.loc 1 340 41 view .LVU559
 1837              	.LBB462:
 342:External/ili9341_tft_driver/Src/ili9341_tft_driver.c **** 		return ILI9341_ERROR;
 1838              		.loc 1 342 2 view .LVU560
 342:External/ili9341_tft_driver/Src/ili9341_tft_driver.c **** 		return ILI9341_ERROR;
 1839              		.loc 1 342 32 is_stmt 0 view .LVU561
 1840 0152 144B     		ldr	r3, .L122
 1841 0154 1B68     		ldr	r3, [r3]
 1842 0156 9A68     		ldr	r2, [r3, #8]
 1843              	.LVL186:
 1844              	.LBB463:
ARM GAS  /tmp/ccS19chs.s 			page 49


 1845              	.LBI463:
 313:External/ili9341_tft_driver/Src/ili9341_tft_driver.c **** {
 1846              		.loc 1 313 20 is_stmt 1 view .LVU562
 1847              	.LBB464:
 315:External/ili9341_tft_driver/Src/ili9341_tft_driver.c **** }
 1848              		.loc 1 315 2 view .LVU563
 315:External/ili9341_tft_driver/Src/ili9341_tft_driver.c **** }
 1849              		.loc 1 315 27 is_stmt 0 view .LVU564
 1850 0158 13B1     		cbz	r3, .L98
 315:External/ili9341_tft_driver/Src/ili9341_tft_driver.c **** }
 1851              		.loc 1 315 27 discriminator 2 view .LVU565
 1852 015a 0AB1     		cbz	r2, .L98
 1853              	.LVL187:
 315:External/ili9341_tft_driver/Src/ili9341_tft_driver.c **** }
 1854              		.loc 1 315 27 discriminator 2 view .LVU566
 1855              	.LBE464:
 1856              	.LBE463:
 345:External/ili9341_tft_driver/Src/ili9341_tft_driver.c **** 	
 1857              		.loc 1 345 2 is_stmt 1 view .LVU567
 1858 015c C020     		movs	r0, #192
 1859 015e 9047     		blx	r2
 1860              	.LVL188:
 347:External/ili9341_tft_driver/Src/ili9341_tft_driver.c **** }
 1861              		.loc 1 347 2 view .LVU568
 1862              	.L98:
 347:External/ili9341_tft_driver/Src/ili9341_tft_driver.c **** }
 1863              		.loc 1 347 2 is_stmt 0 view .LVU569
 1864              	.LBE462:
 1865              	.LBE461:
 115:External/ili9341_tft_driver/Src/ili9341_tft_driver.c **** 	io_write_reg(ILI9341_CMD_POWER2);
 1866              		.loc 1 115 2 is_stmt 1 view .LVU570
 1867              	.LBB465:
 1868              	.LBI465:
 329:External/ili9341_tft_driver/Src/ili9341_tft_driver.c **** {
 1869              		.loc 1 329 41 view .LVU571
 1870              	.LBB466:
 331:External/ili9341_tft_driver/Src/ili9341_tft_driver.c **** 		return ILI9341_ERROR;
 1871              		.loc 1 331 2 view .LVU572
 331:External/ili9341_tft_driver/Src/ili9341_tft_driver.c **** 		return ILI9341_ERROR;
 1872              		.loc 1 331 32 is_stmt 0 view .LVU573
 1873 0160 104B     		ldr	r3, .L122
 1874 0162 1B68     		ldr	r3, [r3]
 1875 0164 5A68     		ldr	r2, [r3, #4]
 1876              	.LVL189:
 1877              	.LBB467:
 1878              	.LBI467:
 313:External/ili9341_tft_driver/Src/ili9341_tft_driver.c **** {
 1879              		.loc 1 313 20 is_stmt 1 view .LVU574
 1880              	.LBB468:
 315:External/ili9341_tft_driver/Src/ili9341_tft_driver.c **** }
 1881              		.loc 1 315 2 view .LVU575
 315:External/ili9341_tft_driver/Src/ili9341_tft_driver.c **** }
 1882              		.loc 1 315 27 is_stmt 0 view .LVU576
 1883 0166 13B1     		cbz	r3, .L99
 315:External/ili9341_tft_driver/Src/ili9341_tft_driver.c **** }
 1884              		.loc 1 315 27 discriminator 2 view .LVU577
 1885 0168 0AB1     		cbz	r2, .L99
ARM GAS  /tmp/ccS19chs.s 			page 50


 1886              	.LVL190:
 315:External/ili9341_tft_driver/Src/ili9341_tft_driver.c **** }
 1887              		.loc 1 315 27 discriminator 2 view .LVU578
 1888              	.LBE468:
 1889              	.LBE467:
 334:External/ili9341_tft_driver/Src/ili9341_tft_driver.c **** 	
 1890              		.loc 1 334 2 is_stmt 1 view .LVU579
 1891 016a 2320     		movs	r0, #35
 1892 016c 9047     		blx	r2
 1893              	.LVL191:
 336:External/ili9341_tft_driver/Src/ili9341_tft_driver.c **** }
 1894              		.loc 1 336 2 view .LVU580
 1895              	.L99:
 336:External/ili9341_tft_driver/Src/ili9341_tft_driver.c **** }
 1896              		.loc 1 336 2 is_stmt 0 view .LVU581
 1897              	.LBE466:
 1898              	.LBE465:
 116:External/ili9341_tft_driver/Src/ili9341_tft_driver.c **** 	io_write_data(0x10);
 1899              		.loc 1 116 2 is_stmt 1 view .LVU582
 1900              	.LBB469:
 1901              	.LBI469:
 340:External/ili9341_tft_driver/Src/ili9341_tft_driver.c **** {
 1902              		.loc 1 340 41 view .LVU583
 1903              	.LBB470:
 342:External/ili9341_tft_driver/Src/ili9341_tft_driver.c **** 		return ILI9341_ERROR;
 1904              		.loc 1 342 2 view .LVU584
 342:External/ili9341_tft_driver/Src/ili9341_tft_driver.c **** 		return ILI9341_ERROR;
 1905              		.loc 1 342 32 is_stmt 0 view .LVU585
 1906 016e 0D4B     		ldr	r3, .L122
 1907 0170 1B68     		ldr	r3, [r3]
 1908 0172 9A68     		ldr	r2, [r3, #8]
 1909              	.LVL192:
 1910              	.LBB471:
 1911              	.LBI471:
 313:External/ili9341_tft_driver/Src/ili9341_tft_driver.c **** {
 1912              		.loc 1 313 20 is_stmt 1 view .LVU586
 1913              	.LBB472:
 315:External/ili9341_tft_driver/Src/ili9341_tft_driver.c **** }
 1914              		.loc 1 315 2 view .LVU587
 315:External/ili9341_tft_driver/Src/ili9341_tft_driver.c **** }
 1915              		.loc 1 315 27 is_stmt 0 view .LVU588
 1916 0174 13B1     		cbz	r3, .L100
 315:External/ili9341_tft_driver/Src/ili9341_tft_driver.c **** }
 1917              		.loc 1 315 27 discriminator 2 view .LVU589
 1918 0176 0AB1     		cbz	r2, .L100
 1919              	.LVL193:
 315:External/ili9341_tft_driver/Src/ili9341_tft_driver.c **** }
 1920              		.loc 1 315 27 discriminator 2 view .LVU590
 1921              	.LBE472:
 1922              	.LBE471:
 345:External/ili9341_tft_driver/Src/ili9341_tft_driver.c **** 	
 1923              		.loc 1 345 2 is_stmt 1 view .LVU591
 1924 0178 C120     		movs	r0, #193
 1925 017a 9047     		blx	r2
 1926              	.LVL194:
 347:External/ili9341_tft_driver/Src/ili9341_tft_driver.c **** }
 1927              		.loc 1 347 2 view .LVU592
ARM GAS  /tmp/ccS19chs.s 			page 51


 1928              	.L100:
 347:External/ili9341_tft_driver/Src/ili9341_tft_driver.c **** }
 1929              		.loc 1 347 2 is_stmt 0 view .LVU593
 1930              	.LBE470:
 1931              	.LBE469:
 117:External/ili9341_tft_driver/Src/ili9341_tft_driver.c **** 	io_write_reg(ILI9341_CMD_VCOM1);
 1932              		.loc 1 117 2 is_stmt 1 view .LVU594
 1933              	.LBB473:
 1934              	.LBI473:
 329:External/ili9341_tft_driver/Src/ili9341_tft_driver.c **** {
 1935              		.loc 1 329 41 view .LVU595
 1936              	.LBB474:
 331:External/ili9341_tft_driver/Src/ili9341_tft_driver.c **** 		return ILI9341_ERROR;
 1937              		.loc 1 331 2 view .LVU596
 331:External/ili9341_tft_driver/Src/ili9341_tft_driver.c **** 		return ILI9341_ERROR;
 1938              		.loc 1 331 32 is_stmt 0 view .LVU597
 1939 017c 094B     		ldr	r3, .L122
 1940 017e 1B68     		ldr	r3, [r3]
 1941 0180 5A68     		ldr	r2, [r3, #4]
 1942              	.LVL195:
 1943              	.LBB475:
 1944              	.LBI475:
 313:External/ili9341_tft_driver/Src/ili9341_tft_driver.c **** {
 1945              		.loc 1 313 20 is_stmt 1 view .LVU598
 1946              	.LBB476:
 315:External/ili9341_tft_driver/Src/ili9341_tft_driver.c **** }
 1947              		.loc 1 315 2 view .LVU599
 315:External/ili9341_tft_driver/Src/ili9341_tft_driver.c **** }
 1948              		.loc 1 315 27 is_stmt 0 view .LVU600
 1949 0182 13B1     		cbz	r3, .L101
 315:External/ili9341_tft_driver/Src/ili9341_tft_driver.c **** }
 1950              		.loc 1 315 27 discriminator 2 view .LVU601
 1951 0184 0AB1     		cbz	r2, .L101
 1952              	.LVL196:
 315:External/ili9341_tft_driver/Src/ili9341_tft_driver.c **** }
 1953              		.loc 1 315 27 discriminator 2 view .LVU602
 1954              	.LBE476:
 1955              	.LBE475:
 334:External/ili9341_tft_driver/Src/ili9341_tft_driver.c **** 	
 1956              		.loc 1 334 2 is_stmt 1 view .LVU603
 1957 0186 1020     		movs	r0, #16
 1958 0188 9047     		blx	r2
 1959              	.LVL197:
 336:External/ili9341_tft_driver/Src/ili9341_tft_driver.c **** }
 1960              		.loc 1 336 2 view .LVU604
 1961              	.L101:
 336:External/ili9341_tft_driver/Src/ili9341_tft_driver.c **** }
 1962              		.loc 1 336 2 is_stmt 0 view .LVU605
 1963              	.LBE474:
 1964              	.LBE473:
 118:External/ili9341_tft_driver/Src/ili9341_tft_driver.c **** 	io_write_data(0x3E);
 1965              		.loc 1 118 2 is_stmt 1 view .LVU606
 1966              	.LBB477:
 1967              	.LBI477:
 340:External/ili9341_tft_driver/Src/ili9341_tft_driver.c **** {
 1968              		.loc 1 340 41 view .LVU607
 1969              	.LBB478:
ARM GAS  /tmp/ccS19chs.s 			page 52


 342:External/ili9341_tft_driver/Src/ili9341_tft_driver.c **** 		return ILI9341_ERROR;
 1970              		.loc 1 342 2 view .LVU608
 342:External/ili9341_tft_driver/Src/ili9341_tft_driver.c **** 		return ILI9341_ERROR;
 1971              		.loc 1 342 32 is_stmt 0 view .LVU609
 1972 018a 064B     		ldr	r3, .L122
 1973 018c 1B68     		ldr	r3, [r3]
 1974 018e 9A68     		ldr	r2, [r3, #8]
 1975              	.LVL198:
 1976              	.LBB479:
 1977              	.LBI479:
 313:External/ili9341_tft_driver/Src/ili9341_tft_driver.c **** {
 1978              		.loc 1 313 20 is_stmt 1 view .LVU610
 1979              	.LBB480:
 315:External/ili9341_tft_driver/Src/ili9341_tft_driver.c **** }
 1980              		.loc 1 315 2 view .LVU611
 315:External/ili9341_tft_driver/Src/ili9341_tft_driver.c **** }
 1981              		.loc 1 315 27 is_stmt 0 view .LVU612
 1982 0190 13B1     		cbz	r3, .L102
 315:External/ili9341_tft_driver/Src/ili9341_tft_driver.c **** }
 1983              		.loc 1 315 27 discriminator 2 view .LVU613
 1984 0192 0AB1     		cbz	r2, .L102
 1985              	.LVL199:
 315:External/ili9341_tft_driver/Src/ili9341_tft_driver.c **** }
 1986              		.loc 1 315 27 discriminator 2 view .LVU614
 1987              	.LBE480:
 1988              	.LBE479:
 345:External/ili9341_tft_driver/Src/ili9341_tft_driver.c **** 	
 1989              		.loc 1 345 2 is_stmt 1 view .LVU615
 1990 0194 C520     		movs	r0, #197
 1991 0196 9047     		blx	r2
 1992              	.LVL200:
 347:External/ili9341_tft_driver/Src/ili9341_tft_driver.c **** }
 1993              		.loc 1 347 2 view .LVU616
 1994              	.L102:
 347:External/ili9341_tft_driver/Src/ili9341_tft_driver.c **** }
 1995              		.loc 1 347 2 is_stmt 0 view .LVU617
 1996              	.LBE478:
 1997              	.LBE477:
 119:External/ili9341_tft_driver/Src/ili9341_tft_driver.c **** 	io_write_data(0x28);
 1998              		.loc 1 119 2 is_stmt 1 view .LVU618
 1999              	.LBB481:
 2000              	.LBI481:
 329:External/ili9341_tft_driver/Src/ili9341_tft_driver.c **** {
 2001              		.loc 1 329 41 view .LVU619
 2002              	.LBB482:
 331:External/ili9341_tft_driver/Src/ili9341_tft_driver.c **** 		return ILI9341_ERROR;
 2003              		.loc 1 331 2 view .LVU620
 331:External/ili9341_tft_driver/Src/ili9341_tft_driver.c **** 		return ILI9341_ERROR;
 2004              		.loc 1 331 32 is_stmt 0 view .LVU621
 2005 0198 024B     		ldr	r3, .L122
 2006 019a 1B68     		ldr	r3, [r3]
 2007 019c 5A68     		ldr	r2, [r3, #4]
 2008              	.LVL201:
 2009              	.LBB483:
 2010              	.LBI483:
 313:External/ili9341_tft_driver/Src/ili9341_tft_driver.c **** {
 2011              		.loc 1 313 20 is_stmt 1 view .LVU622
ARM GAS  /tmp/ccS19chs.s 			page 53


 2012              	.LBB484:
 315:External/ili9341_tft_driver/Src/ili9341_tft_driver.c **** }
 2013              		.loc 1 315 2 view .LVU623
 315:External/ili9341_tft_driver/Src/ili9341_tft_driver.c **** }
 2014              		.loc 1 315 27 is_stmt 0 view .LVU624
 2015 019e 2BB1     		cbz	r3, .L103
 315:External/ili9341_tft_driver/Src/ili9341_tft_driver.c **** }
 2016              		.loc 1 315 27 discriminator 2 view .LVU625
 2017 01a0 22B1     		cbz	r2, .L103
 2018 01a2 01E0     		b	.L123
 2019              	.L124:
 2020              		.align	2
 2021              	.L122:
 2022 01a4 00000000 		.word	io_struct
 2023              	.L123:
 2024              	.LVL202:
 315:External/ili9341_tft_driver/Src/ili9341_tft_driver.c **** }
 2025              		.loc 1 315 27 discriminator 2 view .LVU626
 2026              	.LBE484:
 2027              	.LBE483:
 334:External/ili9341_tft_driver/Src/ili9341_tft_driver.c **** 	
 2028              		.loc 1 334 2 is_stmt 1 view .LVU627
 2029 01a8 3E20     		movs	r0, #62
 2030 01aa 9047     		blx	r2
 2031              	.LVL203:
 336:External/ili9341_tft_driver/Src/ili9341_tft_driver.c **** }
 2032              		.loc 1 336 2 view .LVU628
 2033              	.L103:
 336:External/ili9341_tft_driver/Src/ili9341_tft_driver.c **** }
 2034              		.loc 1 336 2 is_stmt 0 view .LVU629
 2035              	.LBE482:
 2036              	.LBE481:
 120:External/ili9341_tft_driver/Src/ili9341_tft_driver.c **** 	io_write_reg(ILI9341_CMD_VCOM2);
 2037              		.loc 1 120 2 is_stmt 1 view .LVU630
 2038              	.LBB485:
 2039              	.LBI485:
 329:External/ili9341_tft_driver/Src/ili9341_tft_driver.c **** {
 2040              		.loc 1 329 41 view .LVU631
 2041              	.LBB486:
 331:External/ili9341_tft_driver/Src/ili9341_tft_driver.c **** 		return ILI9341_ERROR;
 2042              		.loc 1 331 2 view .LVU632
 331:External/ili9341_tft_driver/Src/ili9341_tft_driver.c **** 		return ILI9341_ERROR;
 2043              		.loc 1 331 32 is_stmt 0 view .LVU633
 2044 01ac 3D4B     		ldr	r3, .L125
 2045 01ae 1B68     		ldr	r3, [r3]
 2046 01b0 5A68     		ldr	r2, [r3, #4]
 2047              	.LVL204:
 2048              	.LBB487:
 2049              	.LBI487:
 313:External/ili9341_tft_driver/Src/ili9341_tft_driver.c **** {
 2050              		.loc 1 313 20 is_stmt 1 view .LVU634
 2051              	.LBB488:
 315:External/ili9341_tft_driver/Src/ili9341_tft_driver.c **** }
 2052              		.loc 1 315 2 view .LVU635
 315:External/ili9341_tft_driver/Src/ili9341_tft_driver.c **** }
 2053              		.loc 1 315 27 is_stmt 0 view .LVU636
 2054 01b2 13B1     		cbz	r3, .L104
ARM GAS  /tmp/ccS19chs.s 			page 54


 315:External/ili9341_tft_driver/Src/ili9341_tft_driver.c **** }
 2055              		.loc 1 315 27 discriminator 2 view .LVU637
 2056 01b4 0AB1     		cbz	r2, .L104
 2057              	.LVL205:
 315:External/ili9341_tft_driver/Src/ili9341_tft_driver.c **** }
 2058              		.loc 1 315 27 discriminator 2 view .LVU638
 2059              	.LBE488:
 2060              	.LBE487:
 334:External/ili9341_tft_driver/Src/ili9341_tft_driver.c **** 	
 2061              		.loc 1 334 2 is_stmt 1 view .LVU639
 2062 01b6 2820     		movs	r0, #40
 2063 01b8 9047     		blx	r2
 2064              	.LVL206:
 336:External/ili9341_tft_driver/Src/ili9341_tft_driver.c **** }
 2065              		.loc 1 336 2 view .LVU640
 2066              	.L104:
 336:External/ili9341_tft_driver/Src/ili9341_tft_driver.c **** }
 2067              		.loc 1 336 2 is_stmt 0 view .LVU641
 2068              	.LBE486:
 2069              	.LBE485:
 121:External/ili9341_tft_driver/Src/ili9341_tft_driver.c **** 	io_write_data(0x86);
 2070              		.loc 1 121 2 is_stmt 1 view .LVU642
 2071              	.LBB489:
 2072              	.LBI489:
 340:External/ili9341_tft_driver/Src/ili9341_tft_driver.c **** {
 2073              		.loc 1 340 41 view .LVU643
 2074              	.LBB490:
 342:External/ili9341_tft_driver/Src/ili9341_tft_driver.c **** 		return ILI9341_ERROR;
 2075              		.loc 1 342 2 view .LVU644
 342:External/ili9341_tft_driver/Src/ili9341_tft_driver.c **** 		return ILI9341_ERROR;
 2076              		.loc 1 342 32 is_stmt 0 view .LVU645
 2077 01ba 3A4B     		ldr	r3, .L125
 2078 01bc 1B68     		ldr	r3, [r3]
 2079 01be 9A68     		ldr	r2, [r3, #8]
 2080              	.LVL207:
 2081              	.LBB491:
 2082              	.LBI491:
 313:External/ili9341_tft_driver/Src/ili9341_tft_driver.c **** {
 2083              		.loc 1 313 20 is_stmt 1 view .LVU646
 2084              	.LBB492:
 315:External/ili9341_tft_driver/Src/ili9341_tft_driver.c **** }
 2085              		.loc 1 315 2 view .LVU647
 315:External/ili9341_tft_driver/Src/ili9341_tft_driver.c **** }
 2086              		.loc 1 315 27 is_stmt 0 view .LVU648
 2087 01c0 13B1     		cbz	r3, .L105
 315:External/ili9341_tft_driver/Src/ili9341_tft_driver.c **** }
 2088              		.loc 1 315 27 discriminator 2 view .LVU649
 2089 01c2 0AB1     		cbz	r2, .L105
 2090              	.LVL208:
 315:External/ili9341_tft_driver/Src/ili9341_tft_driver.c **** }
 2091              		.loc 1 315 27 discriminator 2 view .LVU650
 2092              	.LBE492:
 2093              	.LBE491:
 345:External/ili9341_tft_driver/Src/ili9341_tft_driver.c **** 	
 2094              		.loc 1 345 2 is_stmt 1 view .LVU651
 2095 01c4 C720     		movs	r0, #199
 2096 01c6 9047     		blx	r2
ARM GAS  /tmp/ccS19chs.s 			page 55


 2097              	.LVL209:
 347:External/ili9341_tft_driver/Src/ili9341_tft_driver.c **** }
 2098              		.loc 1 347 2 view .LVU652
 2099              	.L105:
 347:External/ili9341_tft_driver/Src/ili9341_tft_driver.c **** }
 2100              		.loc 1 347 2 is_stmt 0 view .LVU653
 2101              	.LBE490:
 2102              	.LBE489:
 122:External/ili9341_tft_driver/Src/ili9341_tft_driver.c **** 	io_write_reg(ILI9341_CMD_MAC);
 2103              		.loc 1 122 2 is_stmt 1 view .LVU654
 2104              	.LBB493:
 2105              	.LBI493:
 329:External/ili9341_tft_driver/Src/ili9341_tft_driver.c **** {
 2106              		.loc 1 329 41 view .LVU655
 2107              	.LBB494:
 331:External/ili9341_tft_driver/Src/ili9341_tft_driver.c **** 		return ILI9341_ERROR;
 2108              		.loc 1 331 2 view .LVU656
 331:External/ili9341_tft_driver/Src/ili9341_tft_driver.c **** 		return ILI9341_ERROR;
 2109              		.loc 1 331 32 is_stmt 0 view .LVU657
 2110 01c8 364B     		ldr	r3, .L125
 2111 01ca 1B68     		ldr	r3, [r3]
 2112 01cc 5A68     		ldr	r2, [r3, #4]
 2113              	.LVL210:
 2114              	.LBB495:
 2115              	.LBI495:
 313:External/ili9341_tft_driver/Src/ili9341_tft_driver.c **** {
 2116              		.loc 1 313 20 is_stmt 1 view .LVU658
 2117              	.LBB496:
 315:External/ili9341_tft_driver/Src/ili9341_tft_driver.c **** }
 2118              		.loc 1 315 2 view .LVU659
 315:External/ili9341_tft_driver/Src/ili9341_tft_driver.c **** }
 2119              		.loc 1 315 27 is_stmt 0 view .LVU660
 2120 01ce 13B1     		cbz	r3, .L106
 315:External/ili9341_tft_driver/Src/ili9341_tft_driver.c **** }
 2121              		.loc 1 315 27 discriminator 2 view .LVU661
 2122 01d0 0AB1     		cbz	r2, .L106
 2123              	.LVL211:
 315:External/ili9341_tft_driver/Src/ili9341_tft_driver.c **** }
 2124              		.loc 1 315 27 discriminator 2 view .LVU662
 2125              	.LBE496:
 2126              	.LBE495:
 334:External/ili9341_tft_driver/Src/ili9341_tft_driver.c **** 	
 2127              		.loc 1 334 2 is_stmt 1 view .LVU663
 2128 01d2 8620     		movs	r0, #134
 2129 01d4 9047     		blx	r2
 2130              	.LVL212:
 336:External/ili9341_tft_driver/Src/ili9341_tft_driver.c **** }
 2131              		.loc 1 336 2 view .LVU664
 2132              	.L106:
 336:External/ili9341_tft_driver/Src/ili9341_tft_driver.c **** }
 2133              		.loc 1 336 2 is_stmt 0 view .LVU665
 2134              	.LBE494:
 2135              	.LBE493:
 123:External/ili9341_tft_driver/Src/ili9341_tft_driver.c **** 	io_write_data(0xE8);
 2136              		.loc 1 123 2 is_stmt 1 view .LVU666
 2137              	.LBB497:
 2138              	.LBI497:
ARM GAS  /tmp/ccS19chs.s 			page 56


 340:External/ili9341_tft_driver/Src/ili9341_tft_driver.c **** {
 2139              		.loc 1 340 41 view .LVU667
 2140              	.LBB498:
 342:External/ili9341_tft_driver/Src/ili9341_tft_driver.c **** 		return ILI9341_ERROR;
 2141              		.loc 1 342 2 view .LVU668
 342:External/ili9341_tft_driver/Src/ili9341_tft_driver.c **** 		return ILI9341_ERROR;
 2142              		.loc 1 342 32 is_stmt 0 view .LVU669
 2143 01d6 334B     		ldr	r3, .L125
 2144 01d8 1B68     		ldr	r3, [r3]
 2145 01da 9A68     		ldr	r2, [r3, #8]
 2146              	.LVL213:
 2147              	.LBB499:
 2148              	.LBI499:
 313:External/ili9341_tft_driver/Src/ili9341_tft_driver.c **** {
 2149              		.loc 1 313 20 is_stmt 1 view .LVU670
 2150              	.LBB500:
 315:External/ili9341_tft_driver/Src/ili9341_tft_driver.c **** }
 2151              		.loc 1 315 2 view .LVU671
 315:External/ili9341_tft_driver/Src/ili9341_tft_driver.c **** }
 2152              		.loc 1 315 27 is_stmt 0 view .LVU672
 2153 01dc 13B1     		cbz	r3, .L107
 315:External/ili9341_tft_driver/Src/ili9341_tft_driver.c **** }
 2154              		.loc 1 315 27 discriminator 2 view .LVU673
 2155 01de 0AB1     		cbz	r2, .L107
 2156              	.LVL214:
 315:External/ili9341_tft_driver/Src/ili9341_tft_driver.c **** }
 2157              		.loc 1 315 27 discriminator 2 view .LVU674
 2158              	.LBE500:
 2159              	.LBE499:
 345:External/ili9341_tft_driver/Src/ili9341_tft_driver.c **** 	
 2160              		.loc 1 345 2 is_stmt 1 view .LVU675
 2161 01e0 3620     		movs	r0, #54
 2162 01e2 9047     		blx	r2
 2163              	.LVL215:
 347:External/ili9341_tft_driver/Src/ili9341_tft_driver.c **** }
 2164              		.loc 1 347 2 view .LVU676
 2165              	.L107:
 347:External/ili9341_tft_driver/Src/ili9341_tft_driver.c **** }
 2166              		.loc 1 347 2 is_stmt 0 view .LVU677
 2167              	.LBE498:
 2168              	.LBE497:
 124:External/ili9341_tft_driver/Src/ili9341_tft_driver.c **** 	io_write_reg(ILI9341_CMD_PIXEL_FORMAT);
 2169              		.loc 1 124 2 is_stmt 1 view .LVU678
 2170              	.LBB501:
 2171              	.LBI501:
 329:External/ili9341_tft_driver/Src/ili9341_tft_driver.c **** {
 2172              		.loc 1 329 41 view .LVU679
 2173              	.LBB502:
 331:External/ili9341_tft_driver/Src/ili9341_tft_driver.c **** 		return ILI9341_ERROR;
 2174              		.loc 1 331 2 view .LVU680
 331:External/ili9341_tft_driver/Src/ili9341_tft_driver.c **** 		return ILI9341_ERROR;
 2175              		.loc 1 331 32 is_stmt 0 view .LVU681
 2176 01e4 2F4B     		ldr	r3, .L125
 2177 01e6 1B68     		ldr	r3, [r3]
 2178 01e8 5A68     		ldr	r2, [r3, #4]
 2179              	.LVL216:
 2180              	.LBB503:
ARM GAS  /tmp/ccS19chs.s 			page 57


 2181              	.LBI503:
 313:External/ili9341_tft_driver/Src/ili9341_tft_driver.c **** {
 2182              		.loc 1 313 20 is_stmt 1 view .LVU682
 2183              	.LBB504:
 315:External/ili9341_tft_driver/Src/ili9341_tft_driver.c **** }
 2184              		.loc 1 315 2 view .LVU683
 315:External/ili9341_tft_driver/Src/ili9341_tft_driver.c **** }
 2185              		.loc 1 315 27 is_stmt 0 view .LVU684
 2186 01ea 13B1     		cbz	r3, .L108
 315:External/ili9341_tft_driver/Src/ili9341_tft_driver.c **** }
 2187              		.loc 1 315 27 discriminator 2 view .LVU685
 2188 01ec 0AB1     		cbz	r2, .L108
 2189              	.LVL217:
 315:External/ili9341_tft_driver/Src/ili9341_tft_driver.c **** }
 2190              		.loc 1 315 27 discriminator 2 view .LVU686
 2191              	.LBE504:
 2192              	.LBE503:
 334:External/ili9341_tft_driver/Src/ili9341_tft_driver.c **** 	
 2193              		.loc 1 334 2 is_stmt 1 view .LVU687
 2194 01ee E820     		movs	r0, #232
 2195 01f0 9047     		blx	r2
 2196              	.LVL218:
 336:External/ili9341_tft_driver/Src/ili9341_tft_driver.c **** }
 2197              		.loc 1 336 2 view .LVU688
 2198              	.L108:
 336:External/ili9341_tft_driver/Src/ili9341_tft_driver.c **** }
 2199              		.loc 1 336 2 is_stmt 0 view .LVU689
 2200              	.LBE502:
 2201              	.LBE501:
 125:External/ili9341_tft_driver/Src/ili9341_tft_driver.c **** 	io_write_data(0x55); // 16-bit Parallel RGB Interface
 2202              		.loc 1 125 2 is_stmt 1 view .LVU690
 2203              	.LBB505:
 2204              	.LBI505:
 340:External/ili9341_tft_driver/Src/ili9341_tft_driver.c **** {
 2205              		.loc 1 340 41 view .LVU691
 2206              	.LBB506:
 342:External/ili9341_tft_driver/Src/ili9341_tft_driver.c **** 		return ILI9341_ERROR;
 2207              		.loc 1 342 2 view .LVU692
 342:External/ili9341_tft_driver/Src/ili9341_tft_driver.c **** 		return ILI9341_ERROR;
 2208              		.loc 1 342 32 is_stmt 0 view .LVU693
 2209 01f2 2C4B     		ldr	r3, .L125
 2210 01f4 1B68     		ldr	r3, [r3]
 2211 01f6 9A68     		ldr	r2, [r3, #8]
 2212              	.LVL219:
 2213              	.LBB507:
 2214              	.LBI507:
 313:External/ili9341_tft_driver/Src/ili9341_tft_driver.c **** {
 2215              		.loc 1 313 20 is_stmt 1 view .LVU694
 2216              	.LBB508:
 315:External/ili9341_tft_driver/Src/ili9341_tft_driver.c **** }
 2217              		.loc 1 315 2 view .LVU695
 315:External/ili9341_tft_driver/Src/ili9341_tft_driver.c **** }
 2218              		.loc 1 315 27 is_stmt 0 view .LVU696
 2219 01f8 13B1     		cbz	r3, .L109
 315:External/ili9341_tft_driver/Src/ili9341_tft_driver.c **** }
 2220              		.loc 1 315 27 discriminator 2 view .LVU697
 2221 01fa 0AB1     		cbz	r2, .L109
ARM GAS  /tmp/ccS19chs.s 			page 58


 2222              	.LVL220:
 315:External/ili9341_tft_driver/Src/ili9341_tft_driver.c **** }
 2223              		.loc 1 315 27 discriminator 2 view .LVU698
 2224              	.LBE508:
 2225              	.LBE507:
 345:External/ili9341_tft_driver/Src/ili9341_tft_driver.c **** 	
 2226              		.loc 1 345 2 is_stmt 1 view .LVU699
 2227 01fc 3A20     		movs	r0, #58
 2228 01fe 9047     		blx	r2
 2229              	.LVL221:
 347:External/ili9341_tft_driver/Src/ili9341_tft_driver.c **** }
 2230              		.loc 1 347 2 view .LVU700
 2231              	.L109:
 347:External/ili9341_tft_driver/Src/ili9341_tft_driver.c **** }
 2232              		.loc 1 347 2 is_stmt 0 view .LVU701
 2233              	.LBE506:
 2234              	.LBE505:
 126:External/ili9341_tft_driver/Src/ili9341_tft_driver.c **** 	io_write_reg(ILI9341_CMD_FRC); // (frame control in normal mode)
 2235              		.loc 1 126 2 is_stmt 1 view .LVU702
 2236              	.LBB509:
 2237              	.LBI509:
 329:External/ili9341_tft_driver/Src/ili9341_tft_driver.c **** {
 2238              		.loc 1 329 41 view .LVU703
 2239              	.LBB510:
 331:External/ili9341_tft_driver/Src/ili9341_tft_driver.c **** 		return ILI9341_ERROR;
 2240              		.loc 1 331 2 view .LVU704
 331:External/ili9341_tft_driver/Src/ili9341_tft_driver.c **** 		return ILI9341_ERROR;
 2241              		.loc 1 331 32 is_stmt 0 view .LVU705
 2242 0200 284B     		ldr	r3, .L125
 2243 0202 1B68     		ldr	r3, [r3]
 2244 0204 5A68     		ldr	r2, [r3, #4]
 2245              	.LVL222:
 2246              	.LBB511:
 2247              	.LBI511:
 313:External/ili9341_tft_driver/Src/ili9341_tft_driver.c **** {
 2248              		.loc 1 313 20 is_stmt 1 view .LVU706
 2249              	.LBB512:
 315:External/ili9341_tft_driver/Src/ili9341_tft_driver.c **** }
 2250              		.loc 1 315 2 view .LVU707
 315:External/ili9341_tft_driver/Src/ili9341_tft_driver.c **** }
 2251              		.loc 1 315 27 is_stmt 0 view .LVU708
 2252 0206 13B1     		cbz	r3, .L110
 315:External/ili9341_tft_driver/Src/ili9341_tft_driver.c **** }
 2253              		.loc 1 315 27 discriminator 2 view .LVU709
 2254 0208 0AB1     		cbz	r2, .L110
 2255              	.LVL223:
 315:External/ili9341_tft_driver/Src/ili9341_tft_driver.c **** }
 2256              		.loc 1 315 27 discriminator 2 view .LVU710
 2257              	.LBE512:
 2258              	.LBE511:
 334:External/ili9341_tft_driver/Src/ili9341_tft_driver.c **** 	
 2259              		.loc 1 334 2 is_stmt 1 view .LVU711
 2260 020a 5520     		movs	r0, #85
 2261 020c 9047     		blx	r2
 2262              	.LVL224:
 336:External/ili9341_tft_driver/Src/ili9341_tft_driver.c **** }
 2263              		.loc 1 336 2 view .LVU712
ARM GAS  /tmp/ccS19chs.s 			page 59


 2264              	.L110:
 336:External/ili9341_tft_driver/Src/ili9341_tft_driver.c **** }
 2265              		.loc 1 336 2 is_stmt 0 view .LVU713
 2266              	.LBE510:
 2267              	.LBE509:
 127:External/ili9341_tft_driver/Src/ili9341_tft_driver.c **** 	io_write_data(0x00);
 2268              		.loc 1 127 2 is_stmt 1 view .LVU714
 2269              	.LBB513:
 2270              	.LBI513:
 340:External/ili9341_tft_driver/Src/ili9341_tft_driver.c **** {
 2271              		.loc 1 340 41 view .LVU715
 2272              	.LBB514:
 342:External/ili9341_tft_driver/Src/ili9341_tft_driver.c **** 		return ILI9341_ERROR;
 2273              		.loc 1 342 2 view .LVU716
 342:External/ili9341_tft_driver/Src/ili9341_tft_driver.c **** 		return ILI9341_ERROR;
 2274              		.loc 1 342 32 is_stmt 0 view .LVU717
 2275 020e 254B     		ldr	r3, .L125
 2276 0210 1B68     		ldr	r3, [r3]
 2277 0212 9A68     		ldr	r2, [r3, #8]
 2278              	.LVL225:
 2279              	.LBB515:
 2280              	.LBI515:
 313:External/ili9341_tft_driver/Src/ili9341_tft_driver.c **** {
 2281              		.loc 1 313 20 is_stmt 1 view .LVU718
 2282              	.LBB516:
 315:External/ili9341_tft_driver/Src/ili9341_tft_driver.c **** }
 2283              		.loc 1 315 2 view .LVU719
 315:External/ili9341_tft_driver/Src/ili9341_tft_driver.c **** }
 2284              		.loc 1 315 27 is_stmt 0 view .LVU720
 2285 0214 13B1     		cbz	r3, .L111
 315:External/ili9341_tft_driver/Src/ili9341_tft_driver.c **** }
 2286              		.loc 1 315 27 discriminator 2 view .LVU721
 2287 0216 0AB1     		cbz	r2, .L111
 2288              	.LVL226:
 315:External/ili9341_tft_driver/Src/ili9341_tft_driver.c **** }
 2289              		.loc 1 315 27 discriminator 2 view .LVU722
 2290              	.LBE516:
 2291              	.LBE515:
 345:External/ili9341_tft_driver/Src/ili9341_tft_driver.c **** 	
 2292              		.loc 1 345 2 is_stmt 1 view .LVU723
 2293 0218 B120     		movs	r0, #177
 2294 021a 9047     		blx	r2
 2295              	.LVL227:
 347:External/ili9341_tft_driver/Src/ili9341_tft_driver.c **** }
 2296              		.loc 1 347 2 view .LVU724
 2297              	.L111:
 347:External/ili9341_tft_driver/Src/ili9341_tft_driver.c **** }
 2298              		.loc 1 347 2 is_stmt 0 view .LVU725
 2299              	.LBE514:
 2300              	.LBE513:
 128:External/ili9341_tft_driver/Src/ili9341_tft_driver.c **** 	io_write_data(0x18);
 2301              		.loc 1 128 2 is_stmt 1 view .LVU726
 2302              	.LBB517:
 2303              	.LBI517:
 329:External/ili9341_tft_driver/Src/ili9341_tft_driver.c **** {
 2304              		.loc 1 329 41 view .LVU727
 2305              	.LBB518:
ARM GAS  /tmp/ccS19chs.s 			page 60


 331:External/ili9341_tft_driver/Src/ili9341_tft_driver.c **** 		return ILI9341_ERROR;
 2306              		.loc 1 331 2 view .LVU728
 331:External/ili9341_tft_driver/Src/ili9341_tft_driver.c **** 		return ILI9341_ERROR;
 2307              		.loc 1 331 32 is_stmt 0 view .LVU729
 2308 021c 214B     		ldr	r3, .L125
 2309 021e 1B68     		ldr	r3, [r3]
 2310 0220 5A68     		ldr	r2, [r3, #4]
 2311              	.LVL228:
 2312              	.LBB519:
 2313              	.LBI519:
 313:External/ili9341_tft_driver/Src/ili9341_tft_driver.c **** {
 2314              		.loc 1 313 20 is_stmt 1 view .LVU730
 2315              	.LBB520:
 315:External/ili9341_tft_driver/Src/ili9341_tft_driver.c **** }
 2316              		.loc 1 315 2 view .LVU731
 315:External/ili9341_tft_driver/Src/ili9341_tft_driver.c **** }
 2317              		.loc 1 315 27 is_stmt 0 view .LVU732
 2318 0222 13B1     		cbz	r3, .L112
 315:External/ili9341_tft_driver/Src/ili9341_tft_driver.c **** }
 2319              		.loc 1 315 27 discriminator 2 view .LVU733
 2320 0224 0AB1     		cbz	r2, .L112
 2321              	.LVL229:
 315:External/ili9341_tft_driver/Src/ili9341_tft_driver.c **** }
 2322              		.loc 1 315 27 discriminator 2 view .LVU734
 2323              	.LBE520:
 2324              	.LBE519:
 334:External/ili9341_tft_driver/Src/ili9341_tft_driver.c **** 	
 2325              		.loc 1 334 2 is_stmt 1 view .LVU735
 2326 0226 0020     		movs	r0, #0
 2327 0228 9047     		blx	r2
 2328              	.LVL230:
 336:External/ili9341_tft_driver/Src/ili9341_tft_driver.c **** }
 2329              		.loc 1 336 2 view .LVU736
 2330              	.L112:
 336:External/ili9341_tft_driver/Src/ili9341_tft_driver.c **** }
 2331              		.loc 1 336 2 is_stmt 0 view .LVU737
 2332              	.LBE518:
 2333              	.LBE517:
 129:External/ili9341_tft_driver/Src/ili9341_tft_driver.c **** 	io_write_reg(ILI9341_CMD_DFC);
 2334              		.loc 1 129 2 is_stmt 1 view .LVU738
 2335              	.LBB521:
 2336              	.LBI521:
 329:External/ili9341_tft_driver/Src/ili9341_tft_driver.c **** {
 2337              		.loc 1 329 41 view .LVU739
 2338              	.LBB522:
 331:External/ili9341_tft_driver/Src/ili9341_tft_driver.c **** 		return ILI9341_ERROR;
 2339              		.loc 1 331 2 view .LVU740
 331:External/ili9341_tft_driver/Src/ili9341_tft_driver.c **** 		return ILI9341_ERROR;
 2340              		.loc 1 331 32 is_stmt 0 view .LVU741
 2341 022a 1E4B     		ldr	r3, .L125
 2342 022c 1B68     		ldr	r3, [r3]
 2343 022e 5A68     		ldr	r2, [r3, #4]
 2344              	.LVL231:
 2345              	.LBB523:
 2346              	.LBI523:
 313:External/ili9341_tft_driver/Src/ili9341_tft_driver.c **** {
 2347              		.loc 1 313 20 is_stmt 1 view .LVU742
ARM GAS  /tmp/ccS19chs.s 			page 61


 2348              	.LBB524:
 315:External/ili9341_tft_driver/Src/ili9341_tft_driver.c **** }
 2349              		.loc 1 315 2 view .LVU743
 315:External/ili9341_tft_driver/Src/ili9341_tft_driver.c **** }
 2350              		.loc 1 315 27 is_stmt 0 view .LVU744
 2351 0230 13B1     		cbz	r3, .L113
 315:External/ili9341_tft_driver/Src/ili9341_tft_driver.c **** }
 2352              		.loc 1 315 27 discriminator 2 view .LVU745
 2353 0232 0AB1     		cbz	r2, .L113
 2354              	.LVL232:
 315:External/ili9341_tft_driver/Src/ili9341_tft_driver.c **** }
 2355              		.loc 1 315 27 discriminator 2 view .LVU746
 2356              	.LBE524:
 2357              	.LBE523:
 334:External/ili9341_tft_driver/Src/ili9341_tft_driver.c **** 	
 2358              		.loc 1 334 2 is_stmt 1 view .LVU747
 2359 0234 1820     		movs	r0, #24
 2360 0236 9047     		blx	r2
 2361              	.LVL233:
 336:External/ili9341_tft_driver/Src/ili9341_tft_driver.c **** }
 2362              		.loc 1 336 2 view .LVU748
 2363              	.L113:
 336:External/ili9341_tft_driver/Src/ili9341_tft_driver.c **** }
 2364              		.loc 1 336 2 is_stmt 0 view .LVU749
 2365              	.LBE522:
 2366              	.LBE521:
 130:External/ili9341_tft_driver/Src/ili9341_tft_driver.c **** 	io_write_data(0x08);
 2367              		.loc 1 130 2 is_stmt 1 view .LVU750
 2368              	.LBB525:
 2369              	.LBI525:
 340:External/ili9341_tft_driver/Src/ili9341_tft_driver.c **** {
 2370              		.loc 1 340 41 view .LVU751
 2371              	.LBB526:
 342:External/ili9341_tft_driver/Src/ili9341_tft_driver.c **** 		return ILI9341_ERROR;
 2372              		.loc 1 342 2 view .LVU752
 342:External/ili9341_tft_driver/Src/ili9341_tft_driver.c **** 		return ILI9341_ERROR;
 2373              		.loc 1 342 32 is_stmt 0 view .LVU753
 2374 0238 1A4B     		ldr	r3, .L125
 2375 023a 1B68     		ldr	r3, [r3]
 2376 023c 9A68     		ldr	r2, [r3, #8]
 2377              	.LVL234:
 2378              	.LBB527:
 2379              	.LBI527:
 313:External/ili9341_tft_driver/Src/ili9341_tft_driver.c **** {
 2380              		.loc 1 313 20 is_stmt 1 view .LVU754
 2381              	.LBB528:
 315:External/ili9341_tft_driver/Src/ili9341_tft_driver.c **** }
 2382              		.loc 1 315 2 view .LVU755
 315:External/ili9341_tft_driver/Src/ili9341_tft_driver.c **** }
 2383              		.loc 1 315 27 is_stmt 0 view .LVU756
 2384 023e 13B1     		cbz	r3, .L114
 315:External/ili9341_tft_driver/Src/ili9341_tft_driver.c **** }
 2385              		.loc 1 315 27 discriminator 2 view .LVU757
 2386 0240 0AB1     		cbz	r2, .L114
 2387              	.LVL235:
 315:External/ili9341_tft_driver/Src/ili9341_tft_driver.c **** }
 2388              		.loc 1 315 27 discriminator 2 view .LVU758
ARM GAS  /tmp/ccS19chs.s 			page 62


 2389              	.LBE528:
 2390              	.LBE527:
 345:External/ili9341_tft_driver/Src/ili9341_tft_driver.c **** 	
 2391              		.loc 1 345 2 is_stmt 1 view .LVU759
 2392 0242 B620     		movs	r0, #182
 2393 0244 9047     		blx	r2
 2394              	.LVL236:
 347:External/ili9341_tft_driver/Src/ili9341_tft_driver.c **** }
 2395              		.loc 1 347 2 view .LVU760
 2396              	.L114:
 347:External/ili9341_tft_driver/Src/ili9341_tft_driver.c **** }
 2397              		.loc 1 347 2 is_stmt 0 view .LVU761
 2398              	.LBE526:
 2399              	.LBE525:
 131:External/ili9341_tft_driver/Src/ili9341_tft_driver.c **** 	io_write_data(0x82);
 2400              		.loc 1 131 2 is_stmt 1 view .LVU762
 2401              	.LBB529:
 2402              	.LBI529:
 329:External/ili9341_tft_driver/Src/ili9341_tft_driver.c **** {
 2403              		.loc 1 329 41 view .LVU763
 2404              	.LBB530:
 331:External/ili9341_tft_driver/Src/ili9341_tft_driver.c **** 		return ILI9341_ERROR;
 2405              		.loc 1 331 2 view .LVU764
 331:External/ili9341_tft_driver/Src/ili9341_tft_driver.c **** 		return ILI9341_ERROR;
 2406              		.loc 1 331 32 is_stmt 0 view .LVU765
 2407 0246 174B     		ldr	r3, .L125
 2408 0248 1B68     		ldr	r3, [r3]
 2409 024a 5A68     		ldr	r2, [r3, #4]
 2410              	.LVL237:
 2411              	.LBB531:
 2412              	.LBI531:
 313:External/ili9341_tft_driver/Src/ili9341_tft_driver.c **** {
 2413              		.loc 1 313 20 is_stmt 1 view .LVU766
 2414              	.LBB532:
 315:External/ili9341_tft_driver/Src/ili9341_tft_driver.c **** }
 2415              		.loc 1 315 2 view .LVU767
 315:External/ili9341_tft_driver/Src/ili9341_tft_driver.c **** }
 2416              		.loc 1 315 27 is_stmt 0 view .LVU768
 2417 024c 13B1     		cbz	r3, .L115
 315:External/ili9341_tft_driver/Src/ili9341_tft_driver.c **** }
 2418              		.loc 1 315 27 discriminator 2 view .LVU769
 2419 024e 0AB1     		cbz	r2, .L115
 2420              	.LVL238:
 315:External/ili9341_tft_driver/Src/ili9341_tft_driver.c **** }
 2421              		.loc 1 315 27 discriminator 2 view .LVU770
 2422              	.LBE532:
 2423              	.LBE531:
 334:External/ili9341_tft_driver/Src/ili9341_tft_driver.c **** 	
 2424              		.loc 1 334 2 is_stmt 1 view .LVU771
 2425 0250 0820     		movs	r0, #8
 2426 0252 9047     		blx	r2
 2427              	.LVL239:
 336:External/ili9341_tft_driver/Src/ili9341_tft_driver.c **** }
 2428              		.loc 1 336 2 view .LVU772
 2429              	.L115:
 336:External/ili9341_tft_driver/Src/ili9341_tft_driver.c **** }
 2430              		.loc 1 336 2 is_stmt 0 view .LVU773
ARM GAS  /tmp/ccS19chs.s 			page 63


 2431              	.LBE530:
 2432              	.LBE529:
 132:External/ili9341_tft_driver/Src/ili9341_tft_driver.c **** 	io_write_data(0x27);
 2433              		.loc 1 132 2 is_stmt 1 view .LVU774
 2434              	.LBB533:
 2435              	.LBI533:
 329:External/ili9341_tft_driver/Src/ili9341_tft_driver.c **** {
 2436              		.loc 1 329 41 view .LVU775
 2437              	.LBB534:
 331:External/ili9341_tft_driver/Src/ili9341_tft_driver.c **** 		return ILI9341_ERROR;
 2438              		.loc 1 331 2 view .LVU776
 331:External/ili9341_tft_driver/Src/ili9341_tft_driver.c **** 		return ILI9341_ERROR;
 2439              		.loc 1 331 32 is_stmt 0 view .LVU777
 2440 0254 134B     		ldr	r3, .L125
 2441 0256 1B68     		ldr	r3, [r3]
 2442 0258 5A68     		ldr	r2, [r3, #4]
 2443              	.LVL240:
 2444              	.LBB535:
 2445              	.LBI535:
 313:External/ili9341_tft_driver/Src/ili9341_tft_driver.c **** {
 2446              		.loc 1 313 20 is_stmt 1 view .LVU778
 2447              	.LBB536:
 315:External/ili9341_tft_driver/Src/ili9341_tft_driver.c **** }
 2448              		.loc 1 315 2 view .LVU779
 315:External/ili9341_tft_driver/Src/ili9341_tft_driver.c **** }
 2449              		.loc 1 315 27 is_stmt 0 view .LVU780
 2450 025a 13B1     		cbz	r3, .L116
 315:External/ili9341_tft_driver/Src/ili9341_tft_driver.c **** }
 2451              		.loc 1 315 27 discriminator 2 view .LVU781
 2452 025c 0AB1     		cbz	r2, .L116
 2453              	.LVL241:
 315:External/ili9341_tft_driver/Src/ili9341_tft_driver.c **** }
 2454              		.loc 1 315 27 discriminator 2 view .LVU782
 2455              	.LBE536:
 2456              	.LBE535:
 334:External/ili9341_tft_driver/Src/ili9341_tft_driver.c **** 	
 2457              		.loc 1 334 2 is_stmt 1 view .LVU783
 2458 025e 8220     		movs	r0, #130
 2459 0260 9047     		blx	r2
 2460              	.LVL242:
 336:External/ili9341_tft_driver/Src/ili9341_tft_driver.c **** }
 2461              		.loc 1 336 2 view .LVU784
 2462              	.L116:
 336:External/ili9341_tft_driver/Src/ili9341_tft_driver.c **** }
 2463              		.loc 1 336 2 is_stmt 0 view .LVU785
 2464              	.LBE534:
 2465              	.LBE533:
 133:External/ili9341_tft_driver/Src/ili9341_tft_driver.c **** 	io_write_reg(0xF2);
 2466              		.loc 1 133 2 is_stmt 1 view .LVU786
 2467              	.LBB537:
 2468              	.LBI537:
 329:External/ili9341_tft_driver/Src/ili9341_tft_driver.c **** {
 2469              		.loc 1 329 41 view .LVU787
 2470              	.LBB538:
 331:External/ili9341_tft_driver/Src/ili9341_tft_driver.c **** 		return ILI9341_ERROR;
 2471              		.loc 1 331 2 view .LVU788
 331:External/ili9341_tft_driver/Src/ili9341_tft_driver.c **** 		return ILI9341_ERROR;
ARM GAS  /tmp/ccS19chs.s 			page 64


 2472              		.loc 1 331 32 is_stmt 0 view .LVU789
 2473 0262 104B     		ldr	r3, .L125
 2474 0264 1B68     		ldr	r3, [r3]
 2475 0266 5A68     		ldr	r2, [r3, #4]
 2476              	.LVL243:
 2477              	.LBB539:
 2478              	.LBI539:
 313:External/ili9341_tft_driver/Src/ili9341_tft_driver.c **** {
 2479              		.loc 1 313 20 is_stmt 1 view .LVU790
 2480              	.LBB540:
 315:External/ili9341_tft_driver/Src/ili9341_tft_driver.c **** }
 2481              		.loc 1 315 2 view .LVU791
 315:External/ili9341_tft_driver/Src/ili9341_tft_driver.c **** }
 2482              		.loc 1 315 27 is_stmt 0 view .LVU792
 2483 0268 13B1     		cbz	r3, .L117
 315:External/ili9341_tft_driver/Src/ili9341_tft_driver.c **** }
 2484              		.loc 1 315 27 discriminator 2 view .LVU793
 2485 026a 0AB1     		cbz	r2, .L117
 2486              	.LVL244:
 315:External/ili9341_tft_driver/Src/ili9341_tft_driver.c **** }
 2487              		.loc 1 315 27 discriminator 2 view .LVU794
 2488              	.LBE540:
 2489              	.LBE539:
 334:External/ili9341_tft_driver/Src/ili9341_tft_driver.c **** 	
 2490              		.loc 1 334 2 is_stmt 1 view .LVU795
 2491 026c 2720     		movs	r0, #39
 2492 026e 9047     		blx	r2
 2493              	.LVL245:
 336:External/ili9341_tft_driver/Src/ili9341_tft_driver.c **** }
 2494              		.loc 1 336 2 view .LVU796
 2495              	.L117:
 336:External/ili9341_tft_driver/Src/ili9341_tft_driver.c **** }
 2496              		.loc 1 336 2 is_stmt 0 view .LVU797
 2497              	.LBE538:
 2498              	.LBE537:
 134:External/ili9341_tft_driver/Src/ili9341_tft_driver.c **** 	io_write_data(0x00);
 2499              		.loc 1 134 2 is_stmt 1 view .LVU798
 2500              	.LBB541:
 2501              	.LBI541:
 340:External/ili9341_tft_driver/Src/ili9341_tft_driver.c **** {
 2502              		.loc 1 340 41 view .LVU799
 2503              	.LBB542:
 342:External/ili9341_tft_driver/Src/ili9341_tft_driver.c **** 		return ILI9341_ERROR;
 2504              		.loc 1 342 2 view .LVU800
 342:External/ili9341_tft_driver/Src/ili9341_tft_driver.c **** 		return ILI9341_ERROR;
 2505              		.loc 1 342 32 is_stmt 0 view .LVU801
 2506 0270 0C4B     		ldr	r3, .L125
 2507 0272 1B68     		ldr	r3, [r3]
 2508 0274 9A68     		ldr	r2, [r3, #8]
 2509              	.LVL246:
 2510              	.LBB543:
 2511              	.LBI543:
 313:External/ili9341_tft_driver/Src/ili9341_tft_driver.c **** {
 2512              		.loc 1 313 20 is_stmt 1 view .LVU802
 2513              	.LBB544:
 315:External/ili9341_tft_driver/Src/ili9341_tft_driver.c **** }
 2514              		.loc 1 315 2 view .LVU803
ARM GAS  /tmp/ccS19chs.s 			page 65


 315:External/ili9341_tft_driver/Src/ili9341_tft_driver.c **** }
 2515              		.loc 1 315 27 is_stmt 0 view .LVU804
 2516 0276 13B1     		cbz	r3, .L118
 315:External/ili9341_tft_driver/Src/ili9341_tft_driver.c **** }
 2517              		.loc 1 315 27 discriminator 2 view .LVU805
 2518 0278 0AB1     		cbz	r2, .L118
 2519              	.LVL247:
 315:External/ili9341_tft_driver/Src/ili9341_tft_driver.c **** }
 2520              		.loc 1 315 27 discriminator 2 view .LVU806
 2521              	.LBE544:
 2522              	.LBE543:
 345:External/ili9341_tft_driver/Src/ili9341_tft_driver.c **** 	
 2523              		.loc 1 345 2 is_stmt 1 view .LVU807
 2524 027a F220     		movs	r0, #242
 2525 027c 9047     		blx	r2
 2526              	.LVL248:
 347:External/ili9341_tft_driver/Src/ili9341_tft_driver.c **** }
 2527              		.loc 1 347 2 view .LVU808
 2528              	.L118:
 347:External/ili9341_tft_driver/Src/ili9341_tft_driver.c **** }
 2529              		.loc 1 347 2 is_stmt 0 view .LVU809
 2530              	.LBE542:
 2531              	.LBE541:
 135:External/ili9341_tft_driver/Src/ili9341_tft_driver.c **** 	io_write_reg(ILI9341_CMD_SLEEP_OUT);
 2532              		.loc 1 135 2 is_stmt 1 view .LVU810
 2533              	.LBB545:
 2534              	.LBI545:
 329:External/ili9341_tft_driver/Src/ili9341_tft_driver.c **** {
 2535              		.loc 1 329 41 view .LVU811
 2536              	.LBB546:
 331:External/ili9341_tft_driver/Src/ili9341_tft_driver.c **** 		return ILI9341_ERROR;
 2537              		.loc 1 331 2 view .LVU812
 331:External/ili9341_tft_driver/Src/ili9341_tft_driver.c **** 		return ILI9341_ERROR;
 2538              		.loc 1 331 32 is_stmt 0 view .LVU813
 2539 027e 094B     		ldr	r3, .L125
 2540 0280 1B68     		ldr	r3, [r3]
 2541 0282 5A68     		ldr	r2, [r3, #4]
 2542              	.LVL249:
 2543              	.LBB547:
 2544              	.LBI547:
 313:External/ili9341_tft_driver/Src/ili9341_tft_driver.c **** {
 2545              		.loc 1 313 20 is_stmt 1 view .LVU814
 2546              	.LBB548:
 315:External/ili9341_tft_driver/Src/ili9341_tft_driver.c **** }
 2547              		.loc 1 315 2 view .LVU815
 315:External/ili9341_tft_driver/Src/ili9341_tft_driver.c **** }
 2548              		.loc 1 315 27 is_stmt 0 view .LVU816
 2549 0284 13B1     		cbz	r3, .L119
 315:External/ili9341_tft_driver/Src/ili9341_tft_driver.c **** }
 2550              		.loc 1 315 27 discriminator 2 view .LVU817
 2551 0286 0AB1     		cbz	r2, .L119
 2552              	.LVL250:
 315:External/ili9341_tft_driver/Src/ili9341_tft_driver.c **** }
 2553              		.loc 1 315 27 discriminator 2 view .LVU818
 2554              	.LBE548:
 2555              	.LBE547:
 334:External/ili9341_tft_driver/Src/ili9341_tft_driver.c **** 	
ARM GAS  /tmp/ccS19chs.s 			page 66


 2556              		.loc 1 334 2 is_stmt 1 view .LVU819
 2557 0288 0020     		movs	r0, #0
 2558 028a 9047     		blx	r2
 2559              	.LVL251:
 336:External/ili9341_tft_driver/Src/ili9341_tft_driver.c **** }
 2560              		.loc 1 336 2 view .LVU820
 2561              	.L119:
 336:External/ili9341_tft_driver/Src/ili9341_tft_driver.c **** }
 2562              		.loc 1 336 2 is_stmt 0 view .LVU821
 2563              	.LBE546:
 2564              	.LBE545:
 136:External/ili9341_tft_driver/Src/ili9341_tft_driver.c **** 	
 2565              		.loc 1 136 2 is_stmt 1 view .LVU822
 2566              	.LBB549:
 2567              	.LBI549:
 340:External/ili9341_tft_driver/Src/ili9341_tft_driver.c **** {
 2568              		.loc 1 340 41 view .LVU823
 2569              	.LBB550:
 342:External/ili9341_tft_driver/Src/ili9341_tft_driver.c **** 		return ILI9341_ERROR;
 2570              		.loc 1 342 2 view .LVU824
 342:External/ili9341_tft_driver/Src/ili9341_tft_driver.c **** 		return ILI9341_ERROR;
 2571              		.loc 1 342 32 is_stmt 0 view .LVU825
 2572 028c 054B     		ldr	r3, .L125
 2573 028e 1B68     		ldr	r3, [r3]
 2574 0290 9A68     		ldr	r2, [r3, #8]
 2575              	.LVL252:
 2576              	.LBB551:
 2577              	.LBI551:
 313:External/ili9341_tft_driver/Src/ili9341_tft_driver.c **** {
 2578              		.loc 1 313 20 is_stmt 1 view .LVU826
 2579              	.LBB552:
 315:External/ili9341_tft_driver/Src/ili9341_tft_driver.c **** }
 2580              		.loc 1 315 2 view .LVU827
 315:External/ili9341_tft_driver/Src/ili9341_tft_driver.c **** }
 2581              		.loc 1 315 27 is_stmt 0 view .LVU828
 2582 0292 13B1     		cbz	r3, .L120
 315:External/ili9341_tft_driver/Src/ili9341_tft_driver.c **** }
 2583              		.loc 1 315 27 discriminator 2 view .LVU829
 2584 0294 0AB1     		cbz	r2, .L120
 2585              	.LVL253:
 315:External/ili9341_tft_driver/Src/ili9341_tft_driver.c **** }
 2586              		.loc 1 315 27 discriminator 2 view .LVU830
 2587              	.LBE552:
 2588              	.LBE551:
 345:External/ili9341_tft_driver/Src/ili9341_tft_driver.c **** 	
 2589              		.loc 1 345 2 is_stmt 1 view .LVU831
 2590 0296 1120     		movs	r0, #17
 2591 0298 9047     		blx	r2
 2592              	.LVL254:
 347:External/ili9341_tft_driver/Src/ili9341_tft_driver.c **** }
 2593              		.loc 1 347 2 view .LVU832
 2594              	.L120:
 347:External/ili9341_tft_driver/Src/ili9341_tft_driver.c **** }
 2595              		.loc 1 347 2 is_stmt 0 view .LVU833
 2596              	.LBE550:
 2597              	.LBE549:
 138:External/ili9341_tft_driver/Src/ili9341_tft_driver.c **** }
ARM GAS  /tmp/ccS19chs.s 			page 67


 2598              		.loc 1 138 2 is_stmt 1 view .LVU834
 2599 029a 0A20     		movs	r0, #10
 2600 029c FFF7FEFF 		bl	io_delay
 2601              	.LVL255:
 139:External/ili9341_tft_driver/Src/ili9341_tft_driver.c **** 
 2602              		.loc 1 139 1 is_stmt 0 view .LVU835
 2603 02a0 08BD     		pop	{r3, pc}
 2604              	.L126:
 2605 02a2 00BF     		.align	2
 2606              	.L125:
 2607 02a4 00000000 		.word	io_struct
 2608              		.cfi_endproc
 2609              	.LFE3:
 2611              		.section	.text.io_dummy_read,"ax",%progbits
 2612              		.align	1
 2613              		.syntax unified
 2614              		.thumb
 2615              		.thumb_func
 2617              	io_dummy_read:
 2618              	.LVL256:
 2619              	.LFB25:
 372:External/ili9341_tft_driver/Src/ili9341_tft_driver.c **** 
 373:External/ili9341_tft_driver/Src/ili9341_tft_driver.c **** static ili9341_tft_driver_status io_dummy_read(uint8_t amount)
 374:External/ili9341_tft_driver/Src/ili9341_tft_driver.c **** {
 2620              		.loc 1 374 1 is_stmt 1 view -0
 2621              		.cfi_startproc
 2622              		@ args = 0, pretend = 0, frame = 0
 2623              		@ frame_needed = 0, uses_anonymous_args = 0
 2624              		.loc 1 374 1 is_stmt 0 view .LVU837
 2625 0000 38B5     		push	{r3, r4, r5, lr}
 2626              	.LCFI7:
 2627              		.cfi_def_cfa_offset 16
 2628              		.cfi_offset 3, -16
 2629              		.cfi_offset 4, -12
 2630              		.cfi_offset 5, -8
 2631              		.cfi_offset 14, -4
 375:External/ili9341_tft_driver/Src/ili9341_tft_driver.c **** 	if (is_not_safe_call(io_struct->io_read_data))
 2632              		.loc 1 375 2 is_stmt 1 view .LVU838
 2633              		.loc 1 375 32 is_stmt 0 view .LVU839
 2634 0002 0B4B     		ldr	r3, .L134
 2635 0004 1B68     		ldr	r3, [r3]
 2636 0006 DA68     		ldr	r2, [r3, #12]
 2637              	.LVL257:
 2638              	.LBB553:
 2639              	.LBI553:
 313:External/ili9341_tft_driver/Src/ili9341_tft_driver.c **** {
 2640              		.loc 1 313 20 is_stmt 1 view .LVU840
 2641              	.LBB554:
 315:External/ili9341_tft_driver/Src/ili9341_tft_driver.c **** }
 2642              		.loc 1 315 2 view .LVU841
 315:External/ili9341_tft_driver/Src/ili9341_tft_driver.c **** }
 2643              		.loc 1 315 27 is_stmt 0 view .LVU842
 2644 0008 73B1     		cbz	r3, .L131
 2645 000a 0546     		mov	r5, r0
 315:External/ili9341_tft_driver/Src/ili9341_tft_driver.c **** }
 2646              		.loc 1 315 27 discriminator 2 view .LVU843
 2647 000c 72B1     		cbz	r2, .L132
ARM GAS  /tmp/ccS19chs.s 			page 68


 2648              	.LBE554:
 2649              	.LBE553:
 2650              	.LBB555:
 376:External/ili9341_tft_driver/Src/ili9341_tft_driver.c **** 		return ILI9341_ERROR;
 377:External/ili9341_tft_driver/Src/ili9341_tft_driver.c **** 	
 378:External/ili9341_tft_driver/Src/ili9341_tft_driver.c **** 	for (uint8_t i = 0; i < amount; i++)
 2651              		.loc 1 378 15 view .LVU844
 2652 000e 0024     		movs	r4, #0
 2653 0010 06E0     		b	.L129
 2654              	.LVL258:
 2655              	.L130:
 379:External/ili9341_tft_driver/Src/ili9341_tft_driver.c **** 		(void)io_struct->io_read_data(2);
 2656              		.loc 1 379 3 is_stmt 1 view .LVU845
 2657              		.loc 1 379 18 is_stmt 0 view .LVU846
 2658 0012 074B     		ldr	r3, .L134
 2659 0014 1B68     		ldr	r3, [r3]
 2660 0016 DB68     		ldr	r3, [r3, #12]
 2661              		.loc 1 379 9 view .LVU847
 2662 0018 0220     		movs	r0, #2
 2663 001a 9847     		blx	r3
 2664              	.LVL259:
 378:External/ili9341_tft_driver/Src/ili9341_tft_driver.c **** 		(void)io_struct->io_read_data(2);
 2665              		.loc 1 378 35 is_stmt 1 discriminator 3 view .LVU848
 2666 001c 0134     		adds	r4, r4, #1
 2667              	.LVL260:
 378:External/ili9341_tft_driver/Src/ili9341_tft_driver.c **** 		(void)io_struct->io_read_data(2);
 2668              		.loc 1 378 35 is_stmt 0 discriminator 3 view .LVU849
 2669 001e E4B2     		uxtb	r4, r4
 2670              	.LVL261:
 2671              	.L129:
 378:External/ili9341_tft_driver/Src/ili9341_tft_driver.c **** 		(void)io_struct->io_read_data(2);
 2672              		.loc 1 378 24 is_stmt 1 discriminator 1 view .LVU850
 2673 0020 AC42     		cmp	r4, r5
 2674 0022 F6D3     		bcc	.L130
 2675              	.LBE555:
 380:External/ili9341_tft_driver/Src/ili9341_tft_driver.c **** 	
 381:External/ili9341_tft_driver/Src/ili9341_tft_driver.c **** 	return ILI9341_OK;
 2676              		.loc 1 381 9 is_stmt 0 view .LVU851
 2677 0024 0020     		movs	r0, #0
 2678              	.LVL262:
 2679              	.L128:
 382:External/ili9341_tft_driver/Src/ili9341_tft_driver.c **** }
 2680              		.loc 1 382 1 view .LVU852
 2681 0026 38BD     		pop	{r3, r4, r5, pc}
 2682              	.LVL263:
 2683              	.L131:
 376:External/ili9341_tft_driver/Src/ili9341_tft_driver.c **** 	
 2684              		.loc 1 376 10 view .LVU853
 2685 0028 0120     		movs	r0, #1
 2686              	.LVL264:
 376:External/ili9341_tft_driver/Src/ili9341_tft_driver.c **** 	
 2687              		.loc 1 376 10 view .LVU854
 2688 002a FCE7     		b	.L128
 2689              	.LVL265:
 2690              	.L132:
 376:External/ili9341_tft_driver/Src/ili9341_tft_driver.c **** 	
 2691              		.loc 1 376 10 view .LVU855
ARM GAS  /tmp/ccS19chs.s 			page 69


 2692 002c 0120     		movs	r0, #1
 2693              	.LVL266:
 376:External/ili9341_tft_driver/Src/ili9341_tft_driver.c **** 	
 2694              		.loc 1 376 10 view .LVU856
 2695 002e FAE7     		b	.L128
 2696              	.L135:
 2697              		.align	2
 2698              	.L134:
 2699 0030 00000000 		.word	io_struct
 2700              		.cfi_endproc
 2701              	.LFE25:
 2703              		.section	.text.io_enable_backlight,"ax",%progbits
 2704              		.align	1
 2705              		.syntax unified
 2706              		.thumb
 2707              		.thumb_func
 2709              	io_enable_backlight:
 2710              	.LVL267:
 2711              	.LFB26:
 383:External/ili9341_tft_driver/Src/ili9341_tft_driver.c **** 
 384:External/ili9341_tft_driver/Src/ili9341_tft_driver.c **** static ili9341_tft_driver_status io_enable_backlight(bool is_enabled)
 385:External/ili9341_tft_driver/Src/ili9341_tft_driver.c **** {
 2712              		.loc 1 385 1 is_stmt 1 view -0
 2713              		.cfi_startproc
 2714              		@ args = 0, pretend = 0, frame = 0
 2715              		@ frame_needed = 0, uses_anonymous_args = 0
 2716              		.loc 1 385 1 is_stmt 0 view .LVU858
 2717 0000 08B5     		push	{r3, lr}
 2718              	.LCFI8:
 2719              		.cfi_def_cfa_offset 8
 2720              		.cfi_offset 3, -8
 2721              		.cfi_offset 14, -4
 386:External/ili9341_tft_driver/Src/ili9341_tft_driver.c **** 	if (is_not_safe_call(io_struct->io_enable_backlight))
 2722              		.loc 1 386 2 is_stmt 1 view .LVU859
 2723              		.loc 1 386 32 is_stmt 0 view .LVU860
 2724 0002 064B     		ldr	r3, .L141
 2725 0004 1B68     		ldr	r3, [r3]
 2726 0006 5A69     		ldr	r2, [r3, #20]
 2727              	.LVL268:
 2728              	.LBB556:
 2729              	.LBI556:
 313:External/ili9341_tft_driver/Src/ili9341_tft_driver.c **** {
 2730              		.loc 1 313 20 is_stmt 1 view .LVU861
 2731              	.LBB557:
 315:External/ili9341_tft_driver/Src/ili9341_tft_driver.c **** }
 2732              		.loc 1 315 2 view .LVU862
 315:External/ili9341_tft_driver/Src/ili9341_tft_driver.c **** }
 2733              		.loc 1 315 27 is_stmt 0 view .LVU863
 2734 0008 1BB1     		cbz	r3, .L138
 315:External/ili9341_tft_driver/Src/ili9341_tft_driver.c **** }
 2735              		.loc 1 315 27 discriminator 2 view .LVU864
 2736 000a 22B1     		cbz	r2, .L139
 2737              	.LVL269:
 315:External/ili9341_tft_driver/Src/ili9341_tft_driver.c **** }
 2738              		.loc 1 315 27 discriminator 2 view .LVU865
 2739              	.LBE557:
 2740              	.LBE556:
ARM GAS  /tmp/ccS19chs.s 			page 70


 387:External/ili9341_tft_driver/Src/ili9341_tft_driver.c **** 		return ILI9341_ERROR;
 388:External/ili9341_tft_driver/Src/ili9341_tft_driver.c **** 	
 389:External/ili9341_tft_driver/Src/ili9341_tft_driver.c **** 	io_struct->io_enable_backlight(is_enabled);
 2741              		.loc 1 389 2 is_stmt 1 view .LVU866
 2742 000c 9047     		blx	r2
 2743              	.LVL270:
 390:External/ili9341_tft_driver/Src/ili9341_tft_driver.c **** 	
 391:External/ili9341_tft_driver/Src/ili9341_tft_driver.c **** 	return ILI9341_OK;
 2744              		.loc 1 391 2 view .LVU867
 2745              		.loc 1 391 9 is_stmt 0 view .LVU868
 2746 000e 0020     		movs	r0, #0
 2747              	.L137:
 392:External/ili9341_tft_driver/Src/ili9341_tft_driver.c **** }
 2748              		.loc 1 392 1 view .LVU869
 2749 0010 08BD     		pop	{r3, pc}
 2750              	.LVL271:
 2751              	.L138:
 387:External/ili9341_tft_driver/Src/ili9341_tft_driver.c **** 		return ILI9341_ERROR;
 2752              		.loc 1 387 10 view .LVU870
 2753 0012 0120     		movs	r0, #1
 2754              	.LVL272:
 387:External/ili9341_tft_driver/Src/ili9341_tft_driver.c **** 		return ILI9341_ERROR;
 2755              		.loc 1 387 10 view .LVU871
 2756 0014 FCE7     		b	.L137
 2757              	.LVL273:
 2758              	.L139:
 387:External/ili9341_tft_driver/Src/ili9341_tft_driver.c **** 		return ILI9341_ERROR;
 2759              		.loc 1 387 10 view .LVU872
 2760 0016 0120     		movs	r0, #1
 2761              	.LVL274:
 387:External/ili9341_tft_driver/Src/ili9341_tft_driver.c **** 		return ILI9341_ERROR;
 2762              		.loc 1 387 10 view .LVU873
 2763 0018 FAE7     		b	.L137
 2764              	.L142:
 2765 001a 00BF     		.align	2
 2766              	.L141:
 2767 001c 00000000 		.word	io_struct
 2768              		.cfi_endproc
 2769              	.LFE26:
 2771              		.section	.text.ili9341_tft_driver_destroy,"ax",%progbits
 2772              		.align	1
 2773              		.global	ili9341_tft_driver_destroy
 2774              		.syntax unified
 2775              		.thumb
 2776              		.thumb_func
 2778              	ili9341_tft_driver_destroy:
 2779              	.LFB5:
 147:External/ili9341_tft_driver/Src/ili9341_tft_driver.c **** 	io_struct = NULL;
 2780              		.loc 1 147 1 is_stmt 1 view -0
 2781              		.cfi_startproc
 2782              		@ args = 0, pretend = 0, frame = 0
 2783              		@ frame_needed = 0, uses_anonymous_args = 0
 2784              		@ link register save eliminated.
 148:External/ili9341_tft_driver/Src/ili9341_tft_driver.c **** }
 2785              		.loc 1 148 2 view .LVU875
 148:External/ili9341_tft_driver/Src/ili9341_tft_driver.c **** }
 2786              		.loc 1 148 12 is_stmt 0 view .LVU876
ARM GAS  /tmp/ccS19chs.s 			page 71


 2787 0000 014B     		ldr	r3, .L144
 2788 0002 0022     		movs	r2, #0
 2789 0004 1A60     		str	r2, [r3]
 149:External/ili9341_tft_driver/Src/ili9341_tft_driver.c **** 
 2790              		.loc 1 149 1 view .LVU877
 2791 0006 7047     		bx	lr
 2792              	.L145:
 2793              		.align	2
 2794              	.L144:
 2795 0008 00000000 		.word	io_struct
 2796              		.cfi_endproc
 2797              	.LFE5:
 2799              		.section	.text.ili9341_tft_driver_get_id,"ax",%progbits
 2800              		.align	1
 2801              		.global	ili9341_tft_driver_get_id
 2802              		.syntax unified
 2803              		.thumb
 2804              		.thumb_func
 2806              	ili9341_tft_driver_get_id:
 2807              	.LVL275:
 2808              	.LFB6:
 152:External/ili9341_tft_driver/Src/ili9341_tft_driver.c **** 	uint16_t result = 0;
 2809              		.loc 1 152 1 is_stmt 1 view -0
 2810              		.cfi_startproc
 2811              		@ args = 0, pretend = 0, frame = 0
 2812              		@ frame_needed = 0, uses_anonymous_args = 0
 152:External/ili9341_tft_driver/Src/ili9341_tft_driver.c **** 	uint16_t result = 0;
 2813              		.loc 1 152 1 is_stmt 0 view .LVU879
 2814 0000 38B5     		push	{r3, r4, r5, lr}
 2815              	.LCFI9:
 2816              		.cfi_def_cfa_offset 16
 2817              		.cfi_offset 3, -16
 2818              		.cfi_offset 4, -12
 2819              		.cfi_offset 5, -8
 2820              		.cfi_offset 14, -4
 2821 0002 0546     		mov	r5, r0
 153:External/ili9341_tft_driver/Src/ili9341_tft_driver.c **** 	
 2822              		.loc 1 153 2 is_stmt 1 view .LVU880
 2823              	.LVL276:
 155:External/ili9341_tft_driver/Src/ili9341_tft_driver.c **** 	status |= io_dummy_read(2);
 2824              		.loc 1 155 2 view .LVU881
 2825              	.LBB558:
 2826              	.LBI558:
 340:External/ili9341_tft_driver/Src/ili9341_tft_driver.c **** {
 2827              		.loc 1 340 41 view .LVU882
 2828              	.LBB559:
 342:External/ili9341_tft_driver/Src/ili9341_tft_driver.c **** 		return ILI9341_ERROR;
 2829              		.loc 1 342 2 view .LVU883
 342:External/ili9341_tft_driver/Src/ili9341_tft_driver.c **** 		return ILI9341_ERROR;
 2830              		.loc 1 342 32 is_stmt 0 view .LVU884
 2831 0004 194B     		ldr	r3, .L157
 2832 0006 1B68     		ldr	r3, [r3]
 2833 0008 9A68     		ldr	r2, [r3, #8]
 2834              	.LVL277:
 2835              	.LBB560:
 2836              	.LBI560:
 313:External/ili9341_tft_driver/Src/ili9341_tft_driver.c **** {
ARM GAS  /tmp/ccS19chs.s 			page 72


 2837              		.loc 1 313 20 is_stmt 1 view .LVU885
 2838              	.LBB561:
 315:External/ili9341_tft_driver/Src/ili9341_tft_driver.c **** }
 2839              		.loc 1 315 2 view .LVU886
 315:External/ili9341_tft_driver/Src/ili9341_tft_driver.c **** }
 2840              		.loc 1 315 27 is_stmt 0 view .LVU887
 2841 000a 0BB3     		cbz	r3, .L150
 315:External/ili9341_tft_driver/Src/ili9341_tft_driver.c **** }
 2842              		.loc 1 315 27 discriminator 2 view .LVU888
 2843 000c 12B3     		cbz	r2, .L151
 2844              	.LVL278:
 315:External/ili9341_tft_driver/Src/ili9341_tft_driver.c **** }
 2845              		.loc 1 315 27 discriminator 2 view .LVU889
 2846              	.LBE561:
 2847              	.LBE560:
 345:External/ili9341_tft_driver/Src/ili9341_tft_driver.c **** 	
 2848              		.loc 1 345 2 is_stmt 1 view .LVU890
 2849 000e D320     		movs	r0, #211
 2850              	.LVL279:
 345:External/ili9341_tft_driver/Src/ili9341_tft_driver.c **** 	
 2851              		.loc 1 345 2 is_stmt 0 view .LVU891
 2852 0010 9047     		blx	r2
 2853              	.LVL280:
 347:External/ili9341_tft_driver/Src/ili9341_tft_driver.c **** }
 2854              		.loc 1 347 2 is_stmt 1 view .LVU892
 347:External/ili9341_tft_driver/Src/ili9341_tft_driver.c **** }
 2855              		.loc 1 347 9 is_stmt 0 view .LVU893
 2856 0012 0024     		movs	r4, #0
 2857              	.L147:
 2858              	.LVL281:
 347:External/ili9341_tft_driver/Src/ili9341_tft_driver.c **** }
 2859              		.loc 1 347 9 view .LVU894
 2860              	.LBE559:
 2861              	.LBE558:
 156:External/ili9341_tft_driver/Src/ili9341_tft_driver.c **** 	
 2862              		.loc 1 156 2 is_stmt 1 view .LVU895
 156:External/ili9341_tft_driver/Src/ili9341_tft_driver.c **** 	
 2863              		.loc 1 156 12 is_stmt 0 view .LVU896
 2864 0014 0220     		movs	r0, #2
 2865 0016 FFF7FEFF 		bl	io_dummy_read
 2866              	.LVL282:
 156:External/ili9341_tft_driver/Src/ili9341_tft_driver.c **** 	
 2867              		.loc 1 156 9 discriminator 1 view .LVU897
 2868 001a 0443     		orrs	r4, r4, r0
 2869              	.LVL283:
 156:External/ili9341_tft_driver/Src/ili9341_tft_driver.c **** 	
 2870              		.loc 1 156 9 discriminator 1 view .LVU898
 2871 001c E4B2     		uxtb	r4, r4
 2872              	.LVL284:
 158:External/ili9341_tft_driver/Src/ili9341_tft_driver.c **** 	*value = result << 8;
 2873              		.loc 1 158 2 is_stmt 1 view .LVU899
 2874              	.LBB563:
 2875              	.LBI563:
 351:External/ili9341_tft_driver/Src/ili9341_tft_driver.c **** 	uint8_t data_size,
 2876              		.loc 1 351 41 view .LVU900
 2877              	.LBB564:
 356:External/ili9341_tft_driver/Src/ili9341_tft_driver.c **** 		return ILI9341_ERROR;
ARM GAS  /tmp/ccS19chs.s 			page 73


 2878              		.loc 1 356 2 view .LVU901
 356:External/ili9341_tft_driver/Src/ili9341_tft_driver.c **** 		return ILI9341_ERROR;
 2879              		.loc 1 356 32 is_stmt 0 view .LVU902
 2880 001e 134B     		ldr	r3, .L157
 2881 0020 1B68     		ldr	r3, [r3]
 2882 0022 DA68     		ldr	r2, [r3, #12]
 2883              	.LVL285:
 2884              	.LBB565:
 2885              	.LBI565:
 313:External/ili9341_tft_driver/Src/ili9341_tft_driver.c **** {
 2886              		.loc 1 313 20 is_stmt 1 view .LVU903
 2887              	.LBB566:
 315:External/ili9341_tft_driver/Src/ili9341_tft_driver.c **** }
 2888              		.loc 1 315 2 view .LVU904
 315:External/ili9341_tft_driver/Src/ili9341_tft_driver.c **** }
 2889              		.loc 1 315 27 is_stmt 0 view .LVU905
 2890 0024 C3B1     		cbz	r3, .L152
 315:External/ili9341_tft_driver/Src/ili9341_tft_driver.c **** }
 2891              		.loc 1 315 27 discriminator 2 view .LVU906
 2892 0026 D2B1     		cbz	r2, .L153
 2893              	.LVL286:
 315:External/ili9341_tft_driver/Src/ili9341_tft_driver.c **** }
 2894              		.loc 1 315 27 discriminator 2 view .LVU907
 2895              	.LBE566:
 2896              	.LBE565:
 359:External/ili9341_tft_driver/Src/ili9341_tft_driver.c **** 	
 2897              		.loc 1 359 2 is_stmt 1 view .LVU908
 359:External/ili9341_tft_driver/Src/ili9341_tft_driver.c **** 	
 2898              		.loc 1 359 11 is_stmt 0 view .LVU909
 2899 0028 0220     		movs	r0, #2
 2900 002a 9047     		blx	r2
 2901              	.LVL287:
 361:External/ili9341_tft_driver/Src/ili9341_tft_driver.c **** }
 2902              		.loc 1 361 2 is_stmt 1 view .LVU910
 361:External/ili9341_tft_driver/Src/ili9341_tft_driver.c **** }
 2903              		.loc 1 361 9 is_stmt 0 view .LVU911
 2904 002c 0023     		movs	r3, #0
 2905              	.LVL288:
 2906              	.L148:
 361:External/ili9341_tft_driver/Src/ili9341_tft_driver.c **** }
 2907              		.loc 1 361 9 view .LVU912
 2908              	.LBE564:
 2909              	.LBE563:
 158:External/ili9341_tft_driver/Src/ili9341_tft_driver.c **** 	*value = result << 8;
 2910              		.loc 1 158 9 discriminator 1 view .LVU913
 2911 002e 1C43     		orrs	r4, r4, r3
 2912              	.LVL289:
 159:External/ili9341_tft_driver/Src/ili9341_tft_driver.c **** 	
 2913              		.loc 1 159 2 is_stmt 1 view .LVU914
 159:External/ili9341_tft_driver/Src/ili9341_tft_driver.c **** 	
 2914              		.loc 1 159 18 is_stmt 0 view .LVU915
 2915 0030 0302     		lsls	r3, r0, #8
 159:External/ili9341_tft_driver/Src/ili9341_tft_driver.c **** 	
 2916              		.loc 1 159 9 view .LVU916
 2917 0032 2B80     		strh	r3, [r5]	@ movhi
 161:External/ili9341_tft_driver/Src/ili9341_tft_driver.c **** 	*value |= result;
 2918              		.loc 1 161 2 is_stmt 1 view .LVU917
ARM GAS  /tmp/ccS19chs.s 			page 74


 2919              	.LVL290:
 2920              	.LBB569:
 2921              	.LBI569:
 351:External/ili9341_tft_driver/Src/ili9341_tft_driver.c **** 	uint8_t data_size,
 2922              		.loc 1 351 41 view .LVU918
 2923              	.LBB570:
 356:External/ili9341_tft_driver/Src/ili9341_tft_driver.c **** 		return ILI9341_ERROR;
 2924              		.loc 1 356 2 view .LVU919
 356:External/ili9341_tft_driver/Src/ili9341_tft_driver.c **** 		return ILI9341_ERROR;
 2925              		.loc 1 356 32 is_stmt 0 view .LVU920
 2926 0034 0D4B     		ldr	r3, .L157
 2927 0036 1B68     		ldr	r3, [r3]
 2928 0038 DA68     		ldr	r2, [r3, #12]
 2929              	.LVL291:
 2930              	.LBB571:
 2931              	.LBI571:
 313:External/ili9341_tft_driver/Src/ili9341_tft_driver.c **** {
 2932              		.loc 1 313 20 is_stmt 1 view .LVU921
 2933              	.LBB572:
 315:External/ili9341_tft_driver/Src/ili9341_tft_driver.c **** }
 2934              		.loc 1 315 2 view .LVU922
 315:External/ili9341_tft_driver/Src/ili9341_tft_driver.c **** }
 2935              		.loc 1 315 27 is_stmt 0 view .LVU923
 2936 003a 9BB1     		cbz	r3, .L154
 315:External/ili9341_tft_driver/Src/ili9341_tft_driver.c **** }
 2937              		.loc 1 315 27 discriminator 2 view .LVU924
 2938 003c A2B1     		cbz	r2, .L155
 2939              	.LVL292:
 315:External/ili9341_tft_driver/Src/ili9341_tft_driver.c **** }
 2940              		.loc 1 315 27 discriminator 2 view .LVU925
 2941              	.LBE572:
 2942              	.LBE571:
 359:External/ili9341_tft_driver/Src/ili9341_tft_driver.c **** 	
 2943              		.loc 1 359 2 is_stmt 1 view .LVU926
 359:External/ili9341_tft_driver/Src/ili9341_tft_driver.c **** 	
 2944              		.loc 1 359 11 is_stmt 0 view .LVU927
 2945 003e 0220     		movs	r0, #2
 2946              	.LVL293:
 359:External/ili9341_tft_driver/Src/ili9341_tft_driver.c **** 	
 2947              		.loc 1 359 11 view .LVU928
 2948 0040 9047     		blx	r2
 2949              	.LVL294:
 361:External/ili9341_tft_driver/Src/ili9341_tft_driver.c **** }
 2950              		.loc 1 361 2 is_stmt 1 view .LVU929
 361:External/ili9341_tft_driver/Src/ili9341_tft_driver.c **** }
 2951              		.loc 1 361 9 is_stmt 0 view .LVU930
 2952 0042 0022     		movs	r2, #0
 2953              	.L149:
 2954              	.LVL295:
 361:External/ili9341_tft_driver/Src/ili9341_tft_driver.c **** }
 2955              		.loc 1 361 9 view .LVU931
 2956              	.LBE570:
 2957              	.LBE569:
 162:External/ili9341_tft_driver/Src/ili9341_tft_driver.c **** 	
 2958              		.loc 1 162 2 is_stmt 1 view .LVU932
 2959 0044 2B88     		ldrh	r3, [r5]
 162:External/ili9341_tft_driver/Src/ili9341_tft_driver.c **** 	
ARM GAS  /tmp/ccS19chs.s 			page 75


 2960              		.loc 1 162 9 is_stmt 0 view .LVU933
 2961 0046 0343     		orrs	r3, r3, r0
 2962 0048 2B80     		strh	r3, [r5]	@ movhi
 164:External/ili9341_tft_driver/Src/ili9341_tft_driver.c **** }
 2963              		.loc 1 164 2 is_stmt 1 view .LVU934
 2964              	.LVL296:
 165:External/ili9341_tft_driver/Src/ili9341_tft_driver.c **** 
 2965              		.loc 1 165 1 is_stmt 0 view .LVU935
 2966 004a 44EA0200 		orr	r0, r4, r2
 2967              	.LVL297:
 165:External/ili9341_tft_driver/Src/ili9341_tft_driver.c **** 
 2968              		.loc 1 165 1 view .LVU936
 2969 004e 38BD     		pop	{r3, r4, r5, pc}
 2970              	.LVL298:
 2971              	.L150:
 2972              	.LBB574:
 2973              	.LBB562:
 343:External/ili9341_tft_driver/Src/ili9341_tft_driver.c **** 	
 2974              		.loc 1 343 10 view .LVU937
 2975 0050 0124     		movs	r4, #1
 2976 0052 DFE7     		b	.L147
 2977              	.L151:
 2978 0054 0124     		movs	r4, #1
 2979 0056 DDE7     		b	.L147
 2980              	.LVL299:
 2981              	.L152:
 343:External/ili9341_tft_driver/Src/ili9341_tft_driver.c **** 	
 2982              		.loc 1 343 10 view .LVU938
 2983              	.LBE562:
 2984              	.LBE574:
 153:External/ili9341_tft_driver/Src/ili9341_tft_driver.c **** 	
 2985              		.loc 1 153 11 view .LVU939
 2986 0058 0020     		movs	r0, #0
 2987              	.LBB575:
 2988              	.LBB567:
 357:External/ili9341_tft_driver/Src/ili9341_tft_driver.c **** 	
 2989              		.loc 1 357 10 view .LVU940
 2990 005a 0123     		movs	r3, #1
 2991 005c E7E7     		b	.L148
 2992              	.L153:
 2993              	.LBE567:
 2994              	.LBE575:
 153:External/ili9341_tft_driver/Src/ili9341_tft_driver.c **** 	
 2995              		.loc 1 153 11 view .LVU941
 2996 005e 0020     		movs	r0, #0
 2997              	.LBB576:
 2998              	.LBB568:
 357:External/ili9341_tft_driver/Src/ili9341_tft_driver.c **** 	
 2999              		.loc 1 357 10 view .LVU942
 3000 0060 0123     		movs	r3, #1
 3001 0062 E4E7     		b	.L148
 3002              	.LVL300:
 3003              	.L154:
 357:External/ili9341_tft_driver/Src/ili9341_tft_driver.c **** 	
 3004              		.loc 1 357 10 view .LVU943
 3005              	.LBE568:
 3006              	.LBE576:
ARM GAS  /tmp/ccS19chs.s 			page 76


 3007              	.LBB577:
 3008              	.LBB573:
 3009 0064 0122     		movs	r2, #1
 3010              	.LVL301:
 357:External/ili9341_tft_driver/Src/ili9341_tft_driver.c **** 	
 3011              		.loc 1 357 10 view .LVU944
 3012 0066 EDE7     		b	.L149
 3013              	.LVL302:
 3014              	.L155:
 357:External/ili9341_tft_driver/Src/ili9341_tft_driver.c **** 	
 3015              		.loc 1 357 10 view .LVU945
 3016 0068 0122     		movs	r2, #1
 3017              	.LVL303:
 357:External/ili9341_tft_driver/Src/ili9341_tft_driver.c **** 	
 3018              		.loc 1 357 10 view .LVU946
 3019 006a EBE7     		b	.L149
 3020              	.L158:
 3021              		.align	2
 3022              	.L157:
 3023 006c 00000000 		.word	io_struct
 3024              	.LBE573:
 3025              	.LBE577:
 3026              		.cfi_endproc
 3027              	.LFE6:
 3029              		.section	.text.ili9341_check_link,"ax",%progbits
 3030              		.align	1
 3031              		.syntax unified
 3032              		.thumb
 3033              		.thumb_func
 3035              	ili9341_check_link:
 3036              	.LFB1:
  73:External/ili9341_tft_driver/Src/ili9341_tft_driver.c **** 	uint16_t id = 0;
 3037              		.loc 1 73 1 is_stmt 1 view -0
 3038              		.cfi_startproc
 3039              		@ args = 0, pretend = 0, frame = 8
 3040              		@ frame_needed = 0, uses_anonymous_args = 0
 3041 0000 00B5     		push	{lr}
 3042              	.LCFI10:
 3043              		.cfi_def_cfa_offset 4
 3044              		.cfi_offset 14, -4
 3045 0002 83B0     		sub	sp, sp, #12
 3046              	.LCFI11:
 3047              		.cfi_def_cfa_offset 16
  74:External/ili9341_tft_driver/Src/ili9341_tft_driver.c **** 	
 3048              		.loc 1 74 2 view .LVU948
  74:External/ili9341_tft_driver/Src/ili9341_tft_driver.c **** 	
 3049              		.loc 1 74 11 is_stmt 0 view .LVU949
 3050 0004 0023     		movs	r3, #0
 3051 0006 ADF80630 		strh	r3, [sp, #6]	@ movhi
  76:External/ili9341_tft_driver/Src/ili9341_tft_driver.c **** 	if (status || id != ILI9341_ID)
 3052              		.loc 1 76 2 is_stmt 1 view .LVU950
  76:External/ili9341_tft_driver/Src/ili9341_tft_driver.c **** 	if (status || id != ILI9341_ID)
 3053              		.loc 1 76 37 is_stmt 0 view .LVU951
 3054 000a 0DF10600 		add	r0, sp, #6
 3055 000e FFF7FEFF 		bl	ili9341_tft_driver_get_id
 3056              	.LVL304:
  77:External/ili9341_tft_driver/Src/ili9341_tft_driver.c **** 		return ILI9341_ERROR;
ARM GAS  /tmp/ccS19chs.s 			page 77


 3057              		.loc 1 77 2 is_stmt 1 view .LVU952
  77:External/ili9341_tft_driver/Src/ili9341_tft_driver.c **** 		return ILI9341_ERROR;
 3058              		.loc 1 77 5 is_stmt 0 view .LVU953
 3059 0012 38B9     		cbnz	r0, .L161
  77:External/ili9341_tft_driver/Src/ili9341_tft_driver.c **** 		return ILI9341_ERROR;
 3060              		.loc 1 77 19 discriminator 1 view .LVU954
 3061 0014 BDF80620 		ldrh	r2, [sp, #6]
  77:External/ili9341_tft_driver/Src/ili9341_tft_driver.c **** 		return ILI9341_ERROR;
 3062              		.loc 1 77 13 discriminator 1 view .LVU955
 3063 0018 49F24133 		movw	r3, #37697
 3064 001c 9A42     		cmp	r2, r3
 3065 001e 02D0     		beq	.L160
  78:External/ili9341_tft_driver/Src/ili9341_tft_driver.c **** 	return status;
 3066              		.loc 1 78 10 view .LVU956
 3067 0020 0120     		movs	r0, #1
 3068 0022 00E0     		b	.L160
 3069              	.L161:
 3070 0024 0120     		movs	r0, #1
 3071              	.L160:
  80:External/ili9341_tft_driver/Src/ili9341_tft_driver.c **** 
 3072              		.loc 1 80 1 view .LVU957
 3073 0026 03B0     		add	sp, sp, #12
 3074              	.LCFI12:
 3075              		.cfi_def_cfa_offset 4
 3076              		@ sp needed
 3077 0028 5DF804FB 		ldr	pc, [sp], #4
 3078              		.cfi_endproc
 3079              	.LFE1:
 3081              		.section	.text.ili9341_tft_driver_set_area,"ax",%progbits
 3082              		.align	1
 3083              		.global	ili9341_tft_driver_set_area
 3084              		.syntax unified
 3085              		.thumb
 3086              		.thumb_func
 3088              	ili9341_tft_driver_set_area:
 3089              	.LVL305:
 3090              	.LFB7:
 170:External/ili9341_tft_driver/Src/ili9341_tft_driver.c **** 	if (ili9341_is_not_valid_coordinates(area))
 3091              		.loc 1 170 1 is_stmt 1 view -0
 3092              		.cfi_startproc
 3093              		@ args = 0, pretend = 0, frame = 0
 3094              		@ frame_needed = 0, uses_anonymous_args = 0
 170:External/ili9341_tft_driver/Src/ili9341_tft_driver.c **** 	if (ili9341_is_not_valid_coordinates(area))
 3095              		.loc 1 170 1 is_stmt 0 view .LVU959
 3096 0000 38B5     		push	{r3, r4, r5, lr}
 3097              	.LCFI13:
 3098              		.cfi_def_cfa_offset 16
 3099              		.cfi_offset 3, -16
 3100              		.cfi_offset 4, -12
 3101              		.cfi_offset 5, -8
 3102              		.cfi_offset 14, -4
 3103 0002 0446     		mov	r4, r0
 171:External/ili9341_tft_driver/Src/ili9341_tft_driver.c ****     return ILI9341_ERROR;
 3104              		.loc 1 171 2 is_stmt 1 view .LVU960
 171:External/ili9341_tft_driver/Src/ili9341_tft_driver.c ****     return ILI9341_ERROR;
 3105              		.loc 1 171 6 is_stmt 0 view .LVU961
 3106 0004 FFF7FEFF 		bl	ili9341_is_not_valid_coordinates
ARM GAS  /tmp/ccS19chs.s 			page 78


 3107              	.LVL306:
 171:External/ili9341_tft_driver/Src/ili9341_tft_driver.c ****     return ILI9341_ERROR;
 3108              		.loc 1 171 5 discriminator 1 view .LVU962
 3109 0008 08B1     		cbz	r0, .L168
 172:External/ili9341_tft_driver/Src/ili9341_tft_driver.c **** 	
 3110              		.loc 1 172 12 view .LVU963
 3111 000a 0120     		movs	r0, #1
 3112              	.L165:
 182:External/ili9341_tft_driver/Src/ili9341_tft_driver.c **** 
 3113              		.loc 1 182 1 view .LVU964
 3114 000c 38BD     		pop	{r3, r4, r5, pc}
 3115              	.LVL307:
 3116              	.L168:
 174:External/ili9341_tft_driver/Src/ili9341_tft_driver.c **** 		area->start, area->end
 3117              		.loc 1 174 2 is_stmt 1 view .LVU965
 174:External/ili9341_tft_driver/Src/ili9341_tft_driver.c **** 		area->start, area->end
 3118              		.loc 1 174 37 is_stmt 0 view .LVU966
 3119 000e 6188     		ldrh	r1, [r4, #2]
 3120 0010 2088     		ldrh	r0, [r4]
 3121 0012 FFF7FEFF 		bl	ili9341_write_x_coordinates
 3122              	.LVL308:
 3123 0016 0546     		mov	r5, r0
 3124              	.LVL309:
 177:External/ili9341_tft_driver/Src/ili9341_tft_driver.c **** 		area->top, area->bottom
 3125              		.loc 1 177 2 is_stmt 1 view .LVU967
 177:External/ili9341_tft_driver/Src/ili9341_tft_driver.c **** 		area->top, area->bottom
 3126              		.loc 1 177 12 is_stmt 0 view .LVU968
 3127 0018 E188     		ldrh	r1, [r4, #6]
 3128 001a A088     		ldrh	r0, [r4, #4]
 3129 001c FFF7FEFF 		bl	ili9341_write_y_coordinates
 3130              	.LVL310:
 177:External/ili9341_tft_driver/Src/ili9341_tft_driver.c **** 		area->top, area->bottom
 3131              		.loc 1 177 9 discriminator 1 view .LVU969
 3132 0020 2843     		orrs	r0, r0, r5
 3133 0022 C0B2     		uxtb	r0, r0
 3134              	.LVL311:
 181:External/ili9341_tft_driver/Src/ili9341_tft_driver.c **** }
 3135              		.loc 1 181 2 is_stmt 1 view .LVU970
 181:External/ili9341_tft_driver/Src/ili9341_tft_driver.c **** }
 3136              		.loc 1 181 9 is_stmt 0 view .LVU971
 3137 0024 F2E7     		b	.L165
 3138              		.cfi_endproc
 3139              	.LFE7:
 3141              		.section	.text.ili9341_tft_driver_set_pixel,"ax",%progbits
 3142              		.align	1
 3143              		.global	ili9341_tft_driver_set_pixel
 3144              		.syntax unified
 3145              		.thumb
 3146              		.thumb_func
 3148              	ili9341_tft_driver_set_pixel:
 3149              	.LVL312:
 3150              	.LFB11:
 219:External/ili9341_tft_driver/Src/ili9341_tft_driver.c **** 	ili9341_draw_area area = (ili9341_draw_area) {
 3151              		.loc 1 219 1 is_stmt 1 view -0
 3152              		.cfi_startproc
 3153              		@ args = 0, pretend = 0, frame = 8
 3154              		@ frame_needed = 0, uses_anonymous_args = 0
ARM GAS  /tmp/ccS19chs.s 			page 79


 219:External/ili9341_tft_driver/Src/ili9341_tft_driver.c **** 	ili9341_draw_area area = (ili9341_draw_area) {
 3155              		.loc 1 219 1 is_stmt 0 view .LVU973
 3156 0000 30B5     		push	{r4, r5, lr}
 3157              	.LCFI14:
 3158              		.cfi_def_cfa_offset 12
 3159              		.cfi_offset 4, -12
 3160              		.cfi_offset 5, -8
 3161              		.cfi_offset 14, -4
 3162 0002 83B0     		sub	sp, sp, #12
 3163              	.LCFI15:
 3164              		.cfi_def_cfa_offset 24
 3165 0004 1546     		mov	r5, r2
 220:External/ili9341_tft_driver/Src/ili9341_tft_driver.c **** 		.start = x,
 3166              		.loc 1 220 2 is_stmt 1 view .LVU974
 220:External/ili9341_tft_driver/Src/ili9341_tft_driver.c **** 		.start = x,
 3167              		.loc 1 220 20 is_stmt 0 view .LVU975
 3168 0006 ADF80000 		strh	r0, [sp]	@ movhi
 3169 000a ADF80200 		strh	r0, [sp, #2]	@ movhi
 3170 000e ADF80410 		strh	r1, [sp, #4]	@ movhi
 3171 0012 ADF80610 		strh	r1, [sp, #6]	@ movhi
 227:External/ili9341_tft_driver/Src/ili9341_tft_driver.c **** 	status |= io_write_reg(ILI9341_CMD_WRAM);
 3172              		.loc 1 227 2 is_stmt 1 view .LVU976
 227:External/ili9341_tft_driver/Src/ili9341_tft_driver.c **** 	status |= io_write_reg(ILI9341_CMD_WRAM);
 3173              		.loc 1 227 37 is_stmt 0 view .LVU977
 3174 0016 6846     		mov	r0, sp
 3175              	.LVL313:
 227:External/ili9341_tft_driver/Src/ili9341_tft_driver.c **** 	status |= io_write_reg(ILI9341_CMD_WRAM);
 3176              		.loc 1 227 37 view .LVU978
 3177 0018 FFF7FEFF 		bl	ili9341_tft_driver_set_area
 3178              	.LVL314:
 227:External/ili9341_tft_driver/Src/ili9341_tft_driver.c **** 	status |= io_write_reg(ILI9341_CMD_WRAM);
 3179              		.loc 1 227 37 view .LVU979
 3180 001c 0446     		mov	r4, r0
 3181              	.LVL315:
 228:External/ili9341_tft_driver/Src/ili9341_tft_driver.c **** 	status |= io_write_data(color);
 3182              		.loc 1 228 2 is_stmt 1 view .LVU980
 3183              	.LBB578:
 3184              	.LBI578:
 340:External/ili9341_tft_driver/Src/ili9341_tft_driver.c **** {
 3185              		.loc 1 340 41 view .LVU981
 3186              	.LBB579:
 342:External/ili9341_tft_driver/Src/ili9341_tft_driver.c **** 		return ILI9341_ERROR;
 3187              		.loc 1 342 2 view .LVU982
 342:External/ili9341_tft_driver/Src/ili9341_tft_driver.c **** 		return ILI9341_ERROR;
 3188              		.loc 1 342 32 is_stmt 0 view .LVU983
 3189 001e 0E4B     		ldr	r3, .L177
 3190 0020 1B68     		ldr	r3, [r3]
 3191 0022 9A68     		ldr	r2, [r3, #8]
 3192              	.LVL316:
 3193              	.LBB580:
 3194              	.LBI580:
 313:External/ili9341_tft_driver/Src/ili9341_tft_driver.c **** {
 3195              		.loc 1 313 20 is_stmt 1 view .LVU984
 3196              	.LBB581:
 315:External/ili9341_tft_driver/Src/ili9341_tft_driver.c **** }
 3197              		.loc 1 315 2 view .LVU985
 315:External/ili9341_tft_driver/Src/ili9341_tft_driver.c **** }
ARM GAS  /tmp/ccS19chs.s 			page 80


 3198              		.loc 1 315 27 is_stmt 0 view .LVU986
 3199 0024 83B1     		cbz	r3, .L172
 315:External/ili9341_tft_driver/Src/ili9341_tft_driver.c **** }
 3200              		.loc 1 315 27 discriminator 2 view .LVU987
 3201 0026 8AB1     		cbz	r2, .L173
 3202              	.LVL317:
 315:External/ili9341_tft_driver/Src/ili9341_tft_driver.c **** }
 3203              		.loc 1 315 27 discriminator 2 view .LVU988
 3204              	.LBE581:
 3205              	.LBE580:
 345:External/ili9341_tft_driver/Src/ili9341_tft_driver.c **** 	
 3206              		.loc 1 345 2 is_stmt 1 view .LVU989
 3207 0028 2C20     		movs	r0, #44
 3208 002a 9047     		blx	r2
 3209              	.LVL318:
 347:External/ili9341_tft_driver/Src/ili9341_tft_driver.c **** }
 3210              		.loc 1 347 2 view .LVU990
 347:External/ili9341_tft_driver/Src/ili9341_tft_driver.c **** }
 3211              		.loc 1 347 9 is_stmt 0 view .LVU991
 3212 002c 0023     		movs	r3, #0
 3213              	.L170:
 3214              	.LVL319:
 347:External/ili9341_tft_driver/Src/ili9341_tft_driver.c **** }
 3215              		.loc 1 347 9 view .LVU992
 3216              	.LBE579:
 3217              	.LBE578:
 228:External/ili9341_tft_driver/Src/ili9341_tft_driver.c **** 	status |= io_write_data(color);
 3218              		.loc 1 228 9 discriminator 1 view .LVU993
 3219 002e 1C43     		orrs	r4, r4, r3
 3220              	.LVL320:
 228:External/ili9341_tft_driver/Src/ili9341_tft_driver.c **** 	status |= io_write_data(color);
 3221              		.loc 1 228 9 discriminator 1 view .LVU994
 3222 0030 E4B2     		uxtb	r4, r4
 3223              	.LVL321:
 229:External/ili9341_tft_driver/Src/ili9341_tft_driver.c **** 	
 3224              		.loc 1 229 2 is_stmt 1 view .LVU995
 3225              	.LBB583:
 3226              	.LBI583:
 329:External/ili9341_tft_driver/Src/ili9341_tft_driver.c **** {
 3227              		.loc 1 329 41 view .LVU996
 3228              	.LBB584:
 331:External/ili9341_tft_driver/Src/ili9341_tft_driver.c **** 		return ILI9341_ERROR;
 3229              		.loc 1 331 2 view .LVU997
 331:External/ili9341_tft_driver/Src/ili9341_tft_driver.c **** 		return ILI9341_ERROR;
 3230              		.loc 1 331 32 is_stmt 0 view .LVU998
 3231 0032 094B     		ldr	r3, .L177
 3232 0034 1B68     		ldr	r3, [r3]
 3233 0036 5A68     		ldr	r2, [r3, #4]
 3234              	.LVL322:
 3235              	.LBB585:
 3236              	.LBI585:
 313:External/ili9341_tft_driver/Src/ili9341_tft_driver.c **** {
 3237              		.loc 1 313 20 is_stmt 1 view .LVU999
 3238              	.LBB586:
 315:External/ili9341_tft_driver/Src/ili9341_tft_driver.c **** }
 3239              		.loc 1 315 2 view .LVU1000
 315:External/ili9341_tft_driver/Src/ili9341_tft_driver.c **** }
ARM GAS  /tmp/ccS19chs.s 			page 81


 3240              		.loc 1 315 27 is_stmt 0 view .LVU1001
 3241 0038 53B1     		cbz	r3, .L174
 315:External/ili9341_tft_driver/Src/ili9341_tft_driver.c **** }
 3242              		.loc 1 315 27 discriminator 2 view .LVU1002
 3243 003a 5AB1     		cbz	r2, .L175
 3244              	.LVL323:
 315:External/ili9341_tft_driver/Src/ili9341_tft_driver.c **** }
 3245              		.loc 1 315 27 discriminator 2 view .LVU1003
 3246              	.LBE586:
 3247              	.LBE585:
 334:External/ili9341_tft_driver/Src/ili9341_tft_driver.c **** 	
 3248              		.loc 1 334 2 is_stmt 1 view .LVU1004
 3249 003c 2846     		mov	r0, r5
 3250 003e 9047     		blx	r2
 3251              	.LVL324:
 336:External/ili9341_tft_driver/Src/ili9341_tft_driver.c **** }
 3252              		.loc 1 336 2 view .LVU1005
 336:External/ili9341_tft_driver/Src/ili9341_tft_driver.c **** }
 3253              		.loc 1 336 9 is_stmt 0 view .LVU1006
 3254 0040 0020     		movs	r0, #0
 3255              	.L171:
 3256              	.LVL325:
 336:External/ili9341_tft_driver/Src/ili9341_tft_driver.c **** }
 3257              		.loc 1 336 9 view .LVU1007
 3258              	.LBE584:
 3259              	.LBE583:
 231:External/ili9341_tft_driver/Src/ili9341_tft_driver.c **** }
 3260              		.loc 1 231 2 is_stmt 1 view .LVU1008
 232:External/ili9341_tft_driver/Src/ili9341_tft_driver.c **** 
 3261              		.loc 1 232 1 is_stmt 0 view .LVU1009
 3262 0042 2043     		orrs	r0, r0, r4
 3263              	.LVL326:
 232:External/ili9341_tft_driver/Src/ili9341_tft_driver.c **** 
 3264              		.loc 1 232 1 view .LVU1010
 3265 0044 03B0     		add	sp, sp, #12
 3266              	.LCFI16:
 3267              		.cfi_remember_state
 3268              		.cfi_def_cfa_offset 12
 3269              		@ sp needed
 3270 0046 30BD     		pop	{r4, r5, pc}
 3271              	.LVL327:
 3272              	.L172:
 3273              	.LCFI17:
 3274              		.cfi_restore_state
 3275              	.LBB588:
 3276              	.LBB582:
 343:External/ili9341_tft_driver/Src/ili9341_tft_driver.c **** 	
 3277              		.loc 1 343 10 view .LVU1011
 3278 0048 0123     		movs	r3, #1
 3279 004a F0E7     		b	.L170
 3280              	.L173:
 3281 004c 0123     		movs	r3, #1
 3282 004e EEE7     		b	.L170
 3283              	.LVL328:
 3284              	.L174:
 343:External/ili9341_tft_driver/Src/ili9341_tft_driver.c **** 	
 3285              		.loc 1 343 10 view .LVU1012
ARM GAS  /tmp/ccS19chs.s 			page 82


 3286              	.LBE582:
 3287              	.LBE588:
 3288              	.LBB589:
 3289              	.LBB587:
 332:External/ili9341_tft_driver/Src/ili9341_tft_driver.c **** 	
 3290              		.loc 1 332 10 view .LVU1013
 3291 0050 0120     		movs	r0, #1
 3292 0052 F6E7     		b	.L171
 3293              	.L175:
 3294 0054 0120     		movs	r0, #1
 3295 0056 F4E7     		b	.L171
 3296              	.L178:
 3297              		.align	2
 3298              	.L177:
 3299 0058 00000000 		.word	io_struct
 3300              	.LBE587:
 3301              	.LBE589:
 3302              		.cfi_endproc
 3303              	.LFE11:
 3305              		.section	.text.ili9341_tft_driver_fill_area,"ax",%progbits
 3306              		.align	1
 3307              		.global	ili9341_tft_driver_fill_area
 3308              		.syntax unified
 3309              		.thumb
 3310              		.thumb_func
 3312              	ili9341_tft_driver_fill_area:
 3313              	.LVL329:
 3314              	.LFB12:
 238:External/ili9341_tft_driver/Src/ili9341_tft_driver.c **** 	uint32_t pixels_amount = ili9341_calculate_pixels_amount(area);
 3315              		.loc 1 238 1 is_stmt 1 view -0
 3316              		.cfi_startproc
 3317              		@ args = 0, pretend = 0, frame = 0
 3318              		@ frame_needed = 0, uses_anonymous_args = 0
 238:External/ili9341_tft_driver/Src/ili9341_tft_driver.c **** 	uint32_t pixels_amount = ili9341_calculate_pixels_amount(area);
 3319              		.loc 1 238 1 is_stmt 0 view .LVU1015
 3320 0000 F8B5     		push	{r3, r4, r5, r6, r7, lr}
 3321              	.LCFI18:
 3322              		.cfi_def_cfa_offset 24
 3323              		.cfi_offset 3, -24
 3324              		.cfi_offset 4, -20
 3325              		.cfi_offset 5, -16
 3326              		.cfi_offset 6, -12
 3327              		.cfi_offset 7, -8
 3328              		.cfi_offset 14, -4
 3329 0002 0446     		mov	r4, r0
 3330 0004 0F46     		mov	r7, r1
 239:External/ili9341_tft_driver/Src/ili9341_tft_driver.c **** 	ili9341_tft_driver_set_area(area);
 3331              		.loc 1 239 2 is_stmt 1 view .LVU1016
 239:External/ili9341_tft_driver/Src/ili9341_tft_driver.c **** 	ili9341_tft_driver_set_area(area);
 3332              		.loc 1 239 27 is_stmt 0 view .LVU1017
 3333 0006 FFF7FEFF 		bl	ili9341_calculate_pixels_amount
 3334              	.LVL330:
 239:External/ili9341_tft_driver/Src/ili9341_tft_driver.c **** 	ili9341_tft_driver_set_area(area);
 3335              		.loc 1 239 27 view .LVU1018
 3336 000a 0646     		mov	r6, r0
 3337              	.LVL331:
 240:External/ili9341_tft_driver/Src/ili9341_tft_driver.c **** 	
ARM GAS  /tmp/ccS19chs.s 			page 83


 3338              		.loc 1 240 2 is_stmt 1 view .LVU1019
 3339 000c 2046     		mov	r0, r4
 3340              	.LVL332:
 240:External/ili9341_tft_driver/Src/ili9341_tft_driver.c **** 	
 3341              		.loc 1 240 2 is_stmt 0 view .LVU1020
 3342 000e FFF7FEFF 		bl	ili9341_tft_driver_set_area
 3343              	.LVL333:
 242:External/ili9341_tft_driver/Src/ili9341_tft_driver.c **** 	for (uint32_t i = 0; i < pixels_amount; i++)
 3344              		.loc 1 242 2 is_stmt 1 view .LVU1021
 3345              	.LBB590:
 3346              	.LBI590:
 340:External/ili9341_tft_driver/Src/ili9341_tft_driver.c **** {
 3347              		.loc 1 340 41 view .LVU1022
 3348              	.LBB591:
 342:External/ili9341_tft_driver/Src/ili9341_tft_driver.c **** 		return ILI9341_ERROR;
 3349              		.loc 1 342 2 view .LVU1023
 342:External/ili9341_tft_driver/Src/ili9341_tft_driver.c **** 		return ILI9341_ERROR;
 3350              		.loc 1 342 32 is_stmt 0 view .LVU1024
 3351 0012 104B     		ldr	r3, .L190
 3352 0014 1B68     		ldr	r3, [r3]
 3353 0016 9A68     		ldr	r2, [r3, #8]
 3354              	.LVL334:
 3355              	.LBB592:
 3356              	.LBI592:
 313:External/ili9341_tft_driver/Src/ili9341_tft_driver.c **** {
 3357              		.loc 1 313 20 is_stmt 1 view .LVU1025
 3358              	.LBB593:
 315:External/ili9341_tft_driver/Src/ili9341_tft_driver.c **** }
 3359              		.loc 1 315 2 view .LVU1026
 315:External/ili9341_tft_driver/Src/ili9341_tft_driver.c **** }
 3360              		.loc 1 315 27 is_stmt 0 view .LVU1027
 3361 0018 2BB1     		cbz	r3, .L184
 315:External/ili9341_tft_driver/Src/ili9341_tft_driver.c **** }
 3362              		.loc 1 315 27 discriminator 2 view .LVU1028
 3363 001a 32B1     		cbz	r2, .L185
 3364              	.LVL335:
 315:External/ili9341_tft_driver/Src/ili9341_tft_driver.c **** }
 3365              		.loc 1 315 27 discriminator 2 view .LVU1029
 3366              	.LBE593:
 3367              	.LBE592:
 345:External/ili9341_tft_driver/Src/ili9341_tft_driver.c **** 	
 3368              		.loc 1 345 2 is_stmt 1 view .LVU1030
 3369 001c 2C20     		movs	r0, #44
 3370 001e 9047     		blx	r2
 3371              	.LVL336:
 347:External/ili9341_tft_driver/Src/ili9341_tft_driver.c **** }
 3372              		.loc 1 347 2 view .LVU1031
 347:External/ili9341_tft_driver/Src/ili9341_tft_driver.c **** }
 3373              		.loc 1 347 9 is_stmt 0 view .LVU1032
 3374 0020 0025     		movs	r5, #0
 3375              	.L180:
 3376              	.LBE591:
 3377              	.LBE590:
 3378              	.LBB595:
 3379              	.LBB596:
 3380              	.LBB597:
 336:External/ili9341_tft_driver/Src/ili9341_tft_driver.c **** }
ARM GAS  /tmp/ccS19chs.s 			page 84


 3381              		.loc 1 336 9 view .LVU1033
 3382 0022 0024     		movs	r4, #0
 3383              	.LVL337:
 336:External/ili9341_tft_driver/Src/ili9341_tft_driver.c **** }
 3384              		.loc 1 336 9 view .LVU1034
 3385 0024 06E0     		b	.L181
 3386              	.LVL338:
 3387              	.L184:
 336:External/ili9341_tft_driver/Src/ili9341_tft_driver.c **** }
 3388              		.loc 1 336 9 view .LVU1035
 3389              	.LBE597:
 3390              	.LBE596:
 3391              	.LBE595:
 3392              	.LBB604:
 3393              	.LBB594:
 343:External/ili9341_tft_driver/Src/ili9341_tft_driver.c **** 	
 3394              		.loc 1 343 10 view .LVU1036
 3395 0026 0125     		movs	r5, #1
 3396 0028 FBE7     		b	.L180
 3397              	.L185:
 3398 002a 0125     		movs	r5, #1
 3399 002c F9E7     		b	.L180
 3400              	.LVL339:
 3401              	.L186:
 343:External/ili9341_tft_driver/Src/ili9341_tft_driver.c **** 	
 3402              		.loc 1 343 10 view .LVU1037
 3403              	.LBE594:
 3404              	.LBE604:
 3405              	.LBB605:
 3406              	.LBB602:
 3407              	.LBB600:
 332:External/ili9341_tft_driver/Src/ili9341_tft_driver.c **** 	
 3408              		.loc 1 332 10 view .LVU1038
 3409 002e 0123     		movs	r3, #1
 3410              	.LVL340:
 3411              	.L182:
 332:External/ili9341_tft_driver/Src/ili9341_tft_driver.c **** 	
 3412              		.loc 1 332 10 view .LVU1039
 3413              	.LBE600:
 3414              	.LBE602:
 244:External/ili9341_tft_driver/Src/ili9341_tft_driver.c **** 	
 3415              		.loc 1 244 10 discriminator 1 view .LVU1040
 3416 0030 1D43     		orrs	r5, r5, r3
 3417              	.LVL341:
 243:External/ili9341_tft_driver/Src/ili9341_tft_driver.c **** 		status |= io_write_data(color);
 3418              		.loc 1 243 43 is_stmt 1 discriminator 3 view .LVU1041
 3419 0032 0134     		adds	r4, r4, #1
 3420              	.LVL342:
 3421              	.L181:
 243:External/ili9341_tft_driver/Src/ili9341_tft_driver.c **** 		status |= io_write_data(color);
 3422              		.loc 1 243 25 discriminator 1 view .LVU1042
 3423 0034 B442     		cmp	r4, r6
 3424 0036 0BD2     		bcs	.L189
 244:External/ili9341_tft_driver/Src/ili9341_tft_driver.c **** 	
 3425              		.loc 1 244 3 view .LVU1043
 3426              	.LVL343:
 3427              	.LBB603:
ARM GAS  /tmp/ccS19chs.s 			page 85


 3428              	.LBI596:
 329:External/ili9341_tft_driver/Src/ili9341_tft_driver.c **** {
 3429              		.loc 1 329 41 view .LVU1044
 3430              	.LBB601:
 331:External/ili9341_tft_driver/Src/ili9341_tft_driver.c **** 		return ILI9341_ERROR;
 3431              		.loc 1 331 2 view .LVU1045
 331:External/ili9341_tft_driver/Src/ili9341_tft_driver.c **** 		return ILI9341_ERROR;
 3432              		.loc 1 331 32 is_stmt 0 view .LVU1046
 3433 0038 064B     		ldr	r3, .L190
 3434 003a 1B68     		ldr	r3, [r3]
 3435 003c 5A68     		ldr	r2, [r3, #4]
 3436              	.LVL344:
 3437              	.LBB598:
 3438              	.LBI598:
 313:External/ili9341_tft_driver/Src/ili9341_tft_driver.c **** {
 3439              		.loc 1 313 20 is_stmt 1 view .LVU1047
 3440              	.LBB599:
 315:External/ili9341_tft_driver/Src/ili9341_tft_driver.c **** }
 3441              		.loc 1 315 2 view .LVU1048
 315:External/ili9341_tft_driver/Src/ili9341_tft_driver.c **** }
 3442              		.loc 1 315 27 is_stmt 0 view .LVU1049
 3443 003e 002B     		cmp	r3, #0
 3444 0040 F5D0     		beq	.L186
 315:External/ili9341_tft_driver/Src/ili9341_tft_driver.c **** }
 3445              		.loc 1 315 27 discriminator 2 view .LVU1050
 3446 0042 1AB1     		cbz	r2, .L187
 3447              	.LVL345:
 315:External/ili9341_tft_driver/Src/ili9341_tft_driver.c **** }
 3448              		.loc 1 315 27 discriminator 2 view .LVU1051
 3449              	.LBE599:
 3450              	.LBE598:
 334:External/ili9341_tft_driver/Src/ili9341_tft_driver.c **** 	
 3451              		.loc 1 334 2 is_stmt 1 view .LVU1052
 3452 0044 3846     		mov	r0, r7
 3453 0046 9047     		blx	r2
 3454              	.LVL346:
 336:External/ili9341_tft_driver/Src/ili9341_tft_driver.c **** }
 3455              		.loc 1 336 2 view .LVU1053
 336:External/ili9341_tft_driver/Src/ili9341_tft_driver.c **** }
 3456              		.loc 1 336 9 is_stmt 0 view .LVU1054
 3457 0048 0023     		movs	r3, #0
 3458 004a F1E7     		b	.L182
 3459              	.LVL347:
 3460              	.L187:
 332:External/ili9341_tft_driver/Src/ili9341_tft_driver.c **** 	
 3461              		.loc 1 332 10 view .LVU1055
 3462 004c 0123     		movs	r3, #1
 3463 004e EFE7     		b	.L182
 3464              	.LVL348:
 3465              	.L189:
 332:External/ili9341_tft_driver/Src/ili9341_tft_driver.c **** 	
 3466              		.loc 1 332 10 view .LVU1056
 3467              	.LBE601:
 3468              	.LBE603:
 3469              	.LBE605:
 246:External/ili9341_tft_driver/Src/ili9341_tft_driver.c **** }
 3470              		.loc 1 246 2 is_stmt 1 view .LVU1057
ARM GAS  /tmp/ccS19chs.s 			page 86


 247:External/ili9341_tft_driver/Src/ili9341_tft_driver.c **** 
 3471              		.loc 1 247 1 is_stmt 0 view .LVU1058
 3472 0050 2846     		mov	r0, r5
 3473 0052 F8BD     		pop	{r3, r4, r5, r6, r7, pc}
 3474              	.LVL349:
 3475              	.L191:
 247:External/ili9341_tft_driver/Src/ili9341_tft_driver.c **** 
 3476              		.loc 1 247 1 view .LVU1059
 3477              		.align	2
 3478              	.L190:
 3479 0054 00000000 		.word	io_struct
 3480              		.cfi_endproc
 3481              	.LFE12:
 3483              		.section	.text.ili9341_tft_driver_get_color_from_rgb,"ax",%progbits
 3484              		.align	1
 3485              		.global	ili9341_tft_driver_get_color_from_rgb
 3486              		.syntax unified
 3487              		.thumb
 3488              		.thumb_func
 3490              	ili9341_tft_driver_get_color_from_rgb:
 3491              	.LVL350:
 3492              	.LFB13:
 254:External/ili9341_tft_driver/Src/ili9341_tft_driver.c **** 	return ((r >> 3) << 11) | ((g >> 2) << 5) | (b >> 3);
 3493              		.loc 1 254 1 is_stmt 1 view -0
 3494              		.cfi_startproc
 3495              		@ args = 0, pretend = 0, frame = 0
 3496              		@ frame_needed = 0, uses_anonymous_args = 0
 3497              		@ link register save eliminated.
 255:External/ili9341_tft_driver/Src/ili9341_tft_driver.c **** }
 3498              		.loc 1 255 2 view .LVU1061
 255:External/ili9341_tft_driver/Src/ili9341_tft_driver.c **** }
 3499              		.loc 1 255 26 is_stmt 0 view .LVU1062
 3500 0000 C308     		lsrs	r3, r0, #3
 3501 0002 8808     		lsrs	r0, r1, #2
 3502              	.LVL351:
 255:External/ili9341_tft_driver/Src/ili9341_tft_driver.c **** }
 3503              		.loc 1 255 26 view .LVU1063
 3504 0004 4001     		lsls	r0, r0, #5
 3505 0006 40EAC320 		orr	r0, r0, r3, lsl #11
 3506 000a 00B2     		sxth	r0, r0
 255:External/ili9341_tft_driver/Src/ili9341_tft_driver.c **** }
 3507              		.loc 1 255 44 view .LVU1064
 3508 000c 40EAD200 		orr	r0, r0, r2, lsr #3
 256:External/ili9341_tft_driver/Src/ili9341_tft_driver.c **** 
 3509              		.loc 1 256 1 view .LVU1065
 3510 0010 80B2     		uxth	r0, r0
 3511 0012 7047     		bx	lr
 3512              		.cfi_endproc
 3513              	.LFE13:
 3515              		.section	.text.ili9341_tft_driver_draw_image,"ax",%progbits
 3516              		.align	1
 3517              		.global	ili9341_tft_driver_draw_image
 3518              		.syntax unified
 3519              		.thumb
 3520              		.thumb_func
 3522              	ili9341_tft_driver_draw_image:
 3523              	.LVL352:
ARM GAS  /tmp/ccS19chs.s 			page 87


 3524              	.LFB14:
 262:External/ili9341_tft_driver/Src/ili9341_tft_driver.c **** 	uint32_t pixels_amount = ili9341_calculate_pixels_amount(area);
 3525              		.loc 1 262 1 is_stmt 1 view -0
 3526              		.cfi_startproc
 3527              		@ args = 0, pretend = 0, frame = 0
 3528              		@ frame_needed = 0, uses_anonymous_args = 0
 262:External/ili9341_tft_driver/Src/ili9341_tft_driver.c **** 	uint32_t pixels_amount = ili9341_calculate_pixels_amount(area);
 3529              		.loc 1 262 1 is_stmt 0 view .LVU1067
 3530 0000 F8B5     		push	{r3, r4, r5, r6, r7, lr}
 3531              	.LCFI19:
 3532              		.cfi_def_cfa_offset 24
 3533              		.cfi_offset 3, -24
 3534              		.cfi_offset 4, -20
 3535              		.cfi_offset 5, -16
 3536              		.cfi_offset 6, -12
 3537              		.cfi_offset 7, -8
 3538              		.cfi_offset 14, -4
 3539 0002 0446     		mov	r4, r0
 3540 0004 0F46     		mov	r7, r1
 263:External/ili9341_tft_driver/Src/ili9341_tft_driver.c **** 	ili9341_tft_driver_set_area(area);
 3541              		.loc 1 263 2 is_stmt 1 view .LVU1068
 263:External/ili9341_tft_driver/Src/ili9341_tft_driver.c **** 	ili9341_tft_driver_set_area(area);
 3542              		.loc 1 263 27 is_stmt 0 view .LVU1069
 3543 0006 FFF7FEFF 		bl	ili9341_calculate_pixels_amount
 3544              	.LVL353:
 263:External/ili9341_tft_driver/Src/ili9341_tft_driver.c **** 	ili9341_tft_driver_set_area(area);
 3545              		.loc 1 263 27 view .LVU1070
 3546 000a 0646     		mov	r6, r0
 3547              	.LVL354:
 264:External/ili9341_tft_driver/Src/ili9341_tft_driver.c **** 	
 3548              		.loc 1 264 2 is_stmt 1 view .LVU1071
 3549 000c 2046     		mov	r0, r4
 3550              	.LVL355:
 264:External/ili9341_tft_driver/Src/ili9341_tft_driver.c **** 	
