ARM GAS  /tmp/cc7f15XE.s 			page 1


   1              		.cpu cortex-m4
   2              		.arch armv7e-m
   3              		.fpu fpv4-sp-d16
   4              		.eabi_attribute 27, 1
   5              		.eabi_attribute 28, 1
   6              		.eabi_attribute 20, 1
   7              		.eabi_attribute 21, 1
   8              		.eabi_attribute 23, 3
   9              		.eabi_attribute 24, 1
  10              		.eabi_attribute 25, 1
  11              		.eabi_attribute 26, 1
  12              		.eabi_attribute 30, 1
  13              		.eabi_attribute 34, 1
  14              		.eabi_attribute 18, 4
  15              		.file	"lbp_feature.c"
  16              		.text
  17              	.Ltext0:
  18              		.cfi_sections	.debug_frame
  19              		.file 1 "External/LBPFeature/Src/lbp_feature.c"
  20              		.section	.text.lbp_feature_generate_scaled_rectangles,"ax",%progbits
  21              		.align	1
  22              		.syntax unified
  23              		.thumb
  24              		.thumb_func
  26              	lbp_feature_generate_scaled_rectangles:
  27              	.LVL0:
  28              	.LFB3:
   1:External/LBPFeature/Src/lbp_feature.c **** #include "lbp_feature.h"
   2:External/LBPFeature/Src/lbp_feature.c **** #include <stdlib.h>
   3:External/LBPFeature/Src/lbp_feature.c **** 
   4:External/LBPFeature/Src/lbp_feature.c **** // Static variables ----------------------------------------------------------
   5:External/LBPFeature/Src/lbp_feature.c **** 
   6:External/LBPFeature/Src/lbp_feature.c **** static lbp_feature_integral_image_handler integral_image_handler;
   7:External/LBPFeature/Src/lbp_feature.c **** 
   8:External/LBPFeature/Src/lbp_feature.c **** // Defines -------------------------------------------------------------------
   9:External/LBPFeature/Src/lbp_feature.c **** 
  10:External/LBPFeature/Src/lbp_feature.c **** #define GET_RECT_WITH_OFFSET(rect, offset_x, offset_y) \
  11:External/LBPFeature/Src/lbp_feature.c ****   (lbp_feature_rectangle) { \
  12:External/LBPFeature/Src/lbp_feature.c ****     .x = rect.x + offset_x, \
  13:External/LBPFeature/Src/lbp_feature.c ****     .y = rect.y + offset_y, \
  14:External/LBPFeature/Src/lbp_feature.c ****     .width = rect.width, \
  15:External/LBPFeature/Src/lbp_feature.c ****     .height = rect.height \
  16:External/LBPFeature/Src/lbp_feature.c ****   }
  17:External/LBPFeature/Src/lbp_feature.c **** 
  18:External/LBPFeature/Src/lbp_feature.c **** // Static prototypes ---------------------------------------------------------
  19:External/LBPFeature/Src/lbp_feature.c **** 
  20:External/LBPFeature/Src/lbp_feature.c **** static void lbp_feature_generate_scaled_rectangles(
  21:External/LBPFeature/Src/lbp_feature.c ****   lbp_feature *const self,
  22:External/LBPFeature/Src/lbp_feature.c ****   lbp_feature_rectangle *const scaled_rectangles,
  23:External/LBPFeature/Src/lbp_feature.c ****   const float scale
  24:External/LBPFeature/Src/lbp_feature.c **** );
  25:External/LBPFeature/Src/lbp_feature.c **** static uint8_t lbp_feature_get_score(
  26:External/LBPFeature/Src/lbp_feature.c ****   const lbp_feature_rectangle *const scaled_rectangles,
  27:External/LBPFeature/Src/lbp_feature.c ****   const lbp_feature_arguments *const arguments
  28:External/LBPFeature/Src/lbp_feature.c **** );
  29:External/LBPFeature/Src/lbp_feature.c **** __attribute__((always_inline))
  30:External/LBPFeature/Src/lbp_feature.c **** static inline uint8_t lbp_feature_get_lbp_value(
ARM GAS  /tmp/cc7f15XE.s 			page 2


  31:External/LBPFeature/Src/lbp_feature.c ****   const lbp_feature_rectangle *const scaled_rectangles,
  32:External/LBPFeature/Src/lbp_feature.c ****   uint8_t rectangle_index,
  33:External/LBPFeature/Src/lbp_feature.c ****   const lbp_feature_arguments *const arguments,
  34:External/LBPFeature/Src/lbp_feature.c ****   const uint16_t center_value,
  35:External/LBPFeature/Src/lbp_feature.c ****   const uint8_t success_value
  36:External/LBPFeature/Src/lbp_feature.c **** );
  37:External/LBPFeature/Src/lbp_feature.c **** 
  38:External/LBPFeature/Src/lbp_feature.c **** // Implementations -----------------------------------------------------------
  39:External/LBPFeature/Src/lbp_feature.c **** 
  40:External/LBPFeature/Src/lbp_feature.c **** void lbp_feature_set_integral_image_handler(
  41:External/LBPFeature/Src/lbp_feature.c ****   lbp_feature_integral_image_handler handler
  42:External/LBPFeature/Src/lbp_feature.c **** )
  43:External/LBPFeature/Src/lbp_feature.c **** {
  44:External/LBPFeature/Src/lbp_feature.c ****   integral_image_handler = handler;
  45:External/LBPFeature/Src/lbp_feature.c **** }
  46:External/LBPFeature/Src/lbp_feature.c **** 
  47:External/LBPFeature/Src/lbp_feature.c **** void lbp_feature_reset_integral_image_handler()
  48:External/LBPFeature/Src/lbp_feature.c **** {
  49:External/LBPFeature/Src/lbp_feature.c ****   integral_image_handler = (lbp_feature_integral_image_handler){ 0 };
  50:External/LBPFeature/Src/lbp_feature.c **** }
  51:External/LBPFeature/Src/lbp_feature.c **** 
  52:External/LBPFeature/Src/lbp_feature.c **** float lbp_feature_calculate_vote(
  53:External/LBPFeature/Src/lbp_feature.c ****   lbp_feature *const self,
  54:External/LBPFeature/Src/lbp_feature.c ****   const lbp_feature_arguments *const arguments
  55:External/LBPFeature/Src/lbp_feature.c **** )
  56:External/LBPFeature/Src/lbp_feature.c **** {
  57:External/LBPFeature/Src/lbp_feature.c ****   static lbp_feature_rectangle scaled_rectangles[LBP_FEATURE_RECTANGLES_AMOUNT];
  58:External/LBPFeature/Src/lbp_feature.c ****   lbp_feature_generate_scaled_rectangles(
  59:External/LBPFeature/Src/lbp_feature.c ****     self,
  60:External/LBPFeature/Src/lbp_feature.c ****     (lbp_feature_rectangle*)scaled_rectangles,
  61:External/LBPFeature/Src/lbp_feature.c ****     arguments->scale
  62:External/LBPFeature/Src/lbp_feature.c ****   );
  63:External/LBPFeature/Src/lbp_feature.c **** 
  64:External/LBPFeature/Src/lbp_feature.c ****   uint8_t score = lbp_feature_get_score(
  65:External/LBPFeature/Src/lbp_feature.c ****     (lbp_feature_rectangle*)scaled_rectangles,
  66:External/LBPFeature/Src/lbp_feature.c ****     arguments
  67:External/LBPFeature/Src/lbp_feature.c ****   );
  68:External/LBPFeature/Src/lbp_feature.c **** 
  69:External/LBPFeature/Src/lbp_feature.c ****   return (self->masks[score >> 5] & (1 << (score & 31))) ?
  70:External/LBPFeature/Src/lbp_feature.c ****     self->right_value : self->left_value;
  71:External/LBPFeature/Src/lbp_feature.c **** }
  72:External/LBPFeature/Src/lbp_feature.c **** 
  73:External/LBPFeature/Src/lbp_feature.c **** static void lbp_feature_generate_scaled_rectangles(
  74:External/LBPFeature/Src/lbp_feature.c ****   lbp_feature *const self,
  75:External/LBPFeature/Src/lbp_feature.c ****   lbp_feature_rectangle *const scaled_rectangles,
  76:External/LBPFeature/Src/lbp_feature.c ****   const float scale
  77:External/LBPFeature/Src/lbp_feature.c **** )
  78:External/LBPFeature/Src/lbp_feature.c **** {
  29              		.loc 1 78 1 view -0
  30              		.cfi_startproc
  31              		@ args = 0, pretend = 0, frame = 8
  32              		@ frame_needed = 0, uses_anonymous_args = 0
  33              		@ link register save eliminated.
  79:External/LBPFeature/Src/lbp_feature.c ****   for (uint8_t i = 0; i < LBP_FEATURE_RECTANGLES_AMOUNT; i++)
  34              		.loc 1 79 3 view .LVU1
  35              	.LBB18:
  36              		.loc 1 79 8 view .LVU2
ARM GAS  /tmp/cc7f15XE.s 			page 3


  37              		.loc 1 79 16 is_stmt 0 view .LVU3
  38 0000 0023     		movs	r3, #0
  39              	.LVL1:
  40              		.loc 1 79 25 is_stmt 1 discriminator 1 view .LVU4
  41 0002 082B     		cmp	r3, #8
  42 0004 43D8     		bhi	.L7
  43              	.LBE18:
  78:External/LBPFeature/Src/lbp_feature.c ****   for (uint8_t i = 0; i < LBP_FEATURE_RECTANGLES_AMOUNT; i++)
  44              		.loc 1 78 1 is_stmt 0 view .LVU5
  45 0006 82B0     		sub	sp, sp, #8
  46              	.LCFI0:
  47              		.cfi_def_cfa_offset 8
  48              	.L3:
  49              	.LBB20:
  50              	.LBB19:
  80:External/LBPFeature/Src/lbp_feature.c ****   {
  81:External/LBPFeature/Src/lbp_feature.c ****     lbp_feature_rectangle current_rectangle = self->rectangles[i];
  51              		.loc 1 81 5 is_stmt 1 view .LVU6
  52              		.loc 1 81 27 is_stmt 0 view .LVU7
  53 0008 50F82320 		ldr	r2, [r0, r3, lsl #2]
  54 000c 0192     		str	r2, [sp, #4]
  82:External/LBPFeature/Src/lbp_feature.c **** 
  83:External/LBPFeature/Src/lbp_feature.c ****     scaled_rectangles[i] = (lbp_feature_rectangle) {
  55              		.loc 1 83 5 is_stmt 1 view .LVU8
  56              		.loc 1 83 22 is_stmt 0 view .LVU9
  57 000e 01EB830C 		add	ip, r1, r3, lsl #2
  84:External/LBPFeature/Src/lbp_feature.c ****       .x = current_rectangle.x * scale,
  58              		.loc 1 84 29 view .LVU10
  59 0012 9DF80420 		ldrb	r2, [sp, #4]	@ zero_extendqisi2
  60 0016 06EE102A 		vmov	s12, r2	@ int
  61              		.loc 1 84 32 view .LVU11
  62 001a B8EEC66A 		vcvt.f32.s32	s12, s12
  63 001e 26EE006A 		vmul.f32	s12, s12, s0
  85:External/LBPFeature/Src/lbp_feature.c ****       .y = current_rectangle.y * scale,
  64              		.loc 1 85 29 view .LVU12
  65 0022 9DF80520 		ldrb	r2, [sp, #5]	@ zero_extendqisi2
  66 0026 06EE902A 		vmov	s13, r2	@ int
  67              		.loc 1 85 32 view .LVU13
  68 002a F8EEE66A 		vcvt.f32.s32	s13, s13
  69 002e 66EE806A 		vmul.f32	s13, s13, s0
  86:External/LBPFeature/Src/lbp_feature.c ****       .width = current_rectangle.width * scale,
  70              		.loc 1 86 33 view .LVU14
  71 0032 9DF80620 		ldrb	r2, [sp, #6]	@ zero_extendqisi2
  72 0036 07EE102A 		vmov	s14, r2	@ int
  73              		.loc 1 86 40 view .LVU15
  74 003a B8EEC77A 		vcvt.f32.s32	s14, s14
  75 003e 27EE007A 		vmul.f32	s14, s14, s0
  87:External/LBPFeature/Src/lbp_feature.c ****       .height = current_rectangle.height * scale
  76              		.loc 1 87 34 view .LVU16
  77 0042 9DF80720 		ldrb	r2, [sp, #7]	@ zero_extendqisi2
  78 0046 07EE902A 		vmov	s15, r2	@ int
  79              		.loc 1 87 42 view .LVU17
  80 004a F8EEE77A 		vcvt.f32.s32	s15, s15
  81 004e 67EE807A 		vmul.f32	s15, s15, s0
  83:External/LBPFeature/Src/lbp_feature.c ****       .x = current_rectangle.x * scale,
  82              		.loc 1 83 26 view .LVU18
  83 0052 BCEEC66A 		vcvt.u32.f32	s12, s12
ARM GAS  /tmp/cc7f15XE.s 			page 4


  84 0056 16EE102A 		vmov	r2, s12	@ int
  85 005a 01F82320 		strb	r2, [r1, r3, lsl #2]
  86 005e FCEEE66A 		vcvt.u32.f32	s13, s13
  87 0062 16EE902A 		vmov	r2, s13	@ int
  88 0066 8CF80120 		strb	r2, [ip, #1]
  89 006a BCEEC77A 		vcvt.u32.f32	s14, s14
  90 006e 17EE102A 		vmov	r2, s14	@ int
  91 0072 8CF80220 		strb	r2, [ip, #2]
  92 0076 FCEEE77A 		vcvt.u32.f32	s15, s15
  93 007a 17EE902A 		vmov	r2, s15	@ int
  94 007e 8CF80320 		strb	r2, [ip, #3]
  95              	.LBE19:
  79:External/LBPFeature/Src/lbp_feature.c ****   {
  96              		.loc 1 79 59 is_stmt 1 discriminator 3 view .LVU19
  97 0082 0133     		adds	r3, r3, #1
  98              	.LVL2:
  79:External/LBPFeature/Src/lbp_feature.c ****   {
  99              		.loc 1 79 59 is_stmt 0 discriminator 3 view .LVU20
 100 0084 DBB2     		uxtb	r3, r3
 101              	.LVL3:
  79:External/LBPFeature/Src/lbp_feature.c ****   {
 102              		.loc 1 79 25 is_stmt 1 discriminator 1 view .LVU21
 103 0086 082B     		cmp	r3, #8
 104 0088 BED9     		bls	.L3
 105              	.LBE20:
  88:External/LBPFeature/Src/lbp_feature.c ****     };
  89:External/LBPFeature/Src/lbp_feature.c ****   }
  90:External/LBPFeature/Src/lbp_feature.c **** }
 106              		.loc 1 90 1 is_stmt 0 view .LVU22
 107 008a 02B0     		add	sp, sp, #8
 108              	.LCFI1:
 109              		.cfi_def_cfa_offset 0
 110              		@ sp needed
 111 008c 7047     		bx	lr
 112              	.L7:
 113              		.loc 1 90 1 view .LVU23
 114 008e 7047     		bx	lr
 115              		.cfi_endproc
 116              	.LFE3:
 118              		.section	.text.lbp_feature_get_score,"ax",%progbits
 119              		.align	1
 120              		.syntax unified
 121              		.thumb
 122              		.thumb_func
 124              	lbp_feature_get_score:
 125              	.LVL4:
 126              	.LFB4:
  91:External/LBPFeature/Src/lbp_feature.c **** 
  92:External/LBPFeature/Src/lbp_feature.c **** static uint8_t lbp_feature_get_score(
  93:External/LBPFeature/Src/lbp_feature.c ****   const lbp_feature_rectangle *const scaled_rectangles,
  94:External/LBPFeature/Src/lbp_feature.c ****   const lbp_feature_arguments *const arguments
  95:External/LBPFeature/Src/lbp_feature.c **** )
  96:External/LBPFeature/Src/lbp_feature.c **** {
 127              		.loc 1 96 1 is_stmt 1 view -0
 128              		.cfi_startproc
 129              		@ args = 0, pretend = 0, frame = 8
 130              		@ frame_needed = 0, uses_anonymous_args = 0
ARM GAS  /tmp/cc7f15XE.s 			page 5


 131              		.loc 1 96 1 is_stmt 0 view .LVU25
 132 0000 2DE9F041 		push	{r4, r5, r6, r7, r8, lr}
 133              	.LCFI2:
 134              		.cfi_def_cfa_offset 24
 135              		.cfi_offset 4, -24
 136              		.cfi_offset 5, -20
 137              		.cfi_offset 6, -16
 138              		.cfi_offset 7, -12
 139              		.cfi_offset 8, -8
 140              		.cfi_offset 14, -4
 141 0004 82B0     		sub	sp, sp, #8
 142              	.LCFI3:
 143              		.cfi_def_cfa_offset 32
 144 0006 0446     		mov	r4, r0
 145 0008 0D46     		mov	r5, r1
  97:External/LBPFeature/Src/lbp_feature.c ****   uint8_t score = 0;
 146              		.loc 1 97 3 is_stmt 1 view .LVU26
 147              	.LVL5:
  98:External/LBPFeature/Src/lbp_feature.c ****   
  99:External/LBPFeature/Src/lbp_feature.c ****   lbp_feature_rectangle center_rect = GET_RECT_WITH_OFFSET(
 148              		.loc 1 99 3 view .LVU27
 149              		.loc 1 99 39 is_stmt 0 view .LVU28
 150 000a 037C     		ldrb	r3, [r0, #16]	@ zero_extendqisi2
 151 000c 0A78     		ldrb	r2, [r1]	@ zero_extendqisi2
 152 000e 1344     		add	r3, r3, r2
 153              		.loc 1 99 25 view .LVU29
 154 0010 8DF80430 		strb	r3, [sp, #4]
 155              		.loc 1 99 39 view .LVU30
 156 0014 437C     		ldrb	r3, [r0, #17]	@ zero_extendqisi2
 157 0016 4A78     		ldrb	r2, [r1, #1]	@ zero_extendqisi2
 158 0018 1344     		add	r3, r3, r2
 159              		.loc 1 99 25 view .LVU31
 160 001a 8DF80530 		strb	r3, [sp, #5]
 161              		.loc 1 99 39 view .LVU32
 162 001e 837C     		ldrb	r3, [r0, #18]	@ zero_extendqisi2
 163              		.loc 1 99 25 view .LVU33
 164 0020 8DF80630 		strb	r3, [sp, #6]
 165              		.loc 1 99 39 view .LVU34
 166 0024 C37C     		ldrb	r3, [r0, #19]	@ zero_extendqisi2
 167              		.loc 1 99 25 view .LVU35
 168 0026 8DF80730 		strb	r3, [sp, #7]
 100:External/LBPFeature/Src/lbp_feature.c ****     scaled_rectangles[LBP_FEATURE_RECT_CENTER],
 101:External/LBPFeature/Src/lbp_feature.c ****     arguments->offset_x,
 102:External/LBPFeature/Src/lbp_feature.c ****     arguments->offset_y
 103:External/LBPFeature/Src/lbp_feature.c ****   );
 104:External/LBPFeature/Src/lbp_feature.c ****   uint16_t center_value = integral_image_handler.get_rectangle_summarize(
 169              		.loc 1 104 3 is_stmt 1 view .LVU36
 170              		.loc 1 104 49 is_stmt 0 view .LVU37
 171 002a 704E     		ldr	r6, .L26
 172 002c 3368     		ldr	r3, [r6]
 173              		.loc 1 104 27 view .LVU38
 174 002e 01A8     		add	r0, sp, #4
 175              	.LVL6:
 176              		.loc 1 104 27 view .LVU39
 177 0030 9847     		blx	r3
 178              	.LVL7:
 179              		.loc 1 104 27 view .LVU40
ARM GAS  /tmp/cc7f15XE.s 			page 6


 180 0032 0746     		mov	r7, r0
 181              	.LVL8:
 105:External/LBPFeature/Src/lbp_feature.c ****     &center_rect
 106:External/LBPFeature/Src/lbp_feature.c ****   );
 107:External/LBPFeature/Src/lbp_feature.c **** 
 108:External/LBPFeature/Src/lbp_feature.c ****   score |= lbp_feature_get_lbp_value(
 182              		.loc 1 108 3 is_stmt 1 view .LVU41
 183              	.LBB21:
 184              	.LBI21:
 109:External/LBPFeature/Src/lbp_feature.c ****     scaled_rectangles,
 110:External/LBPFeature/Src/lbp_feature.c ****     LBP_FEATURE_RECT_UP_LEFT,
 111:External/LBPFeature/Src/lbp_feature.c ****     arguments,
 112:External/LBPFeature/Src/lbp_feature.c ****     center_value,
 113:External/LBPFeature/Src/lbp_feature.c ****     128U
 114:External/LBPFeature/Src/lbp_feature.c ****   );
 115:External/LBPFeature/Src/lbp_feature.c ****   score |= lbp_feature_get_lbp_value(
 116:External/LBPFeature/Src/lbp_feature.c ****     scaled_rectangles,
 117:External/LBPFeature/Src/lbp_feature.c ****     LBP_FEATURE_RECT_UP_CENTER,
 118:External/LBPFeature/Src/lbp_feature.c ****     arguments,
 119:External/LBPFeature/Src/lbp_feature.c ****     center_value,
 120:External/LBPFeature/Src/lbp_feature.c ****     64U
 121:External/LBPFeature/Src/lbp_feature.c ****   );
 122:External/LBPFeature/Src/lbp_feature.c ****   score |= lbp_feature_get_lbp_value(
 123:External/LBPFeature/Src/lbp_feature.c ****     scaled_rectangles,
 124:External/LBPFeature/Src/lbp_feature.c ****     LBP_FEATURE_RECT_UP_RIGHT,
 125:External/LBPFeature/Src/lbp_feature.c ****     arguments,
 126:External/LBPFeature/Src/lbp_feature.c ****     center_value,
 127:External/LBPFeature/Src/lbp_feature.c ****     32U
 128:External/LBPFeature/Src/lbp_feature.c ****   );
 129:External/LBPFeature/Src/lbp_feature.c **** 
 130:External/LBPFeature/Src/lbp_feature.c ****   score |= lbp_feature_get_lbp_value(
 131:External/LBPFeature/Src/lbp_feature.c ****     scaled_rectangles,
 132:External/LBPFeature/Src/lbp_feature.c ****     LBP_FEATURE_RECT_LEFT,
 133:External/LBPFeature/Src/lbp_feature.c ****     arguments,
 134:External/LBPFeature/Src/lbp_feature.c ****     center_value,
 135:External/LBPFeature/Src/lbp_feature.c ****     1U
 136:External/LBPFeature/Src/lbp_feature.c ****   );
 137:External/LBPFeature/Src/lbp_feature.c ****   score |= lbp_feature_get_lbp_value(
 138:External/LBPFeature/Src/lbp_feature.c ****     scaled_rectangles,
 139:External/LBPFeature/Src/lbp_feature.c ****     LBP_FEATURE_RECT_RIGHT,
 140:External/LBPFeature/Src/lbp_feature.c ****     arguments,
 141:External/LBPFeature/Src/lbp_feature.c ****     center_value,
 142:External/LBPFeature/Src/lbp_feature.c ****     16U
 143:External/LBPFeature/Src/lbp_feature.c ****   );
 144:External/LBPFeature/Src/lbp_feature.c **** 
 145:External/LBPFeature/Src/lbp_feature.c ****   score |= lbp_feature_get_lbp_value(
 146:External/LBPFeature/Src/lbp_feature.c ****     scaled_rectangles,
 147:External/LBPFeature/Src/lbp_feature.c ****     LBP_FEATURE_RECT_DOWN_LEFT,
 148:External/LBPFeature/Src/lbp_feature.c ****     arguments,
 149:External/LBPFeature/Src/lbp_feature.c ****     center_value,
 150:External/LBPFeature/Src/lbp_feature.c ****     2U
 151:External/LBPFeature/Src/lbp_feature.c ****   );
 152:External/LBPFeature/Src/lbp_feature.c ****   score |= lbp_feature_get_lbp_value(
 153:External/LBPFeature/Src/lbp_feature.c ****     scaled_rectangles,
 154:External/LBPFeature/Src/lbp_feature.c ****     LBP_FEATURE_RECT_DOWN_CENTER,
 155:External/LBPFeature/Src/lbp_feature.c ****     arguments,
 156:External/LBPFeature/Src/lbp_feature.c ****     center_value,
ARM GAS  /tmp/cc7f15XE.s 			page 7


 157:External/LBPFeature/Src/lbp_feature.c ****     4U
 158:External/LBPFeature/Src/lbp_feature.c ****   );
 159:External/LBPFeature/Src/lbp_feature.c ****   score |= lbp_feature_get_lbp_value(
 160:External/LBPFeature/Src/lbp_feature.c ****     scaled_rectangles,
 161:External/LBPFeature/Src/lbp_feature.c ****     LBP_FEATURE_RECT_DOWN_RIGHT,
 162:External/LBPFeature/Src/lbp_feature.c ****     arguments,
 163:External/LBPFeature/Src/lbp_feature.c ****     center_value,
 164:External/LBPFeature/Src/lbp_feature.c ****     8U
 165:External/LBPFeature/Src/lbp_feature.c ****   );
 166:External/LBPFeature/Src/lbp_feature.c **** 
 167:External/LBPFeature/Src/lbp_feature.c ****   return score;
 168:External/LBPFeature/Src/lbp_feature.c **** }
 169:External/LBPFeature/Src/lbp_feature.c **** 
 170:External/LBPFeature/Src/lbp_feature.c **** __attribute__((always_inline))
 171:External/LBPFeature/Src/lbp_feature.c **** static inline uint8_t lbp_feature_get_lbp_value(
 185              		.loc 1 171 23 view .LVU42
 186              	.LBB22:
 172:External/LBPFeature/Src/lbp_feature.c ****   const lbp_feature_rectangle *const scaled_rectangles,
 173:External/LBPFeature/Src/lbp_feature.c ****   uint8_t rectangle_index,
 174:External/LBPFeature/Src/lbp_feature.c ****   const lbp_feature_arguments *const arguments,
 175:External/LBPFeature/Src/lbp_feature.c ****   const uint16_t center_value,
 176:External/LBPFeature/Src/lbp_feature.c ****   const uint8_t success_value
 177:External/LBPFeature/Src/lbp_feature.c **** )
 178:External/LBPFeature/Src/lbp_feature.c **** {
 179:External/LBPFeature/Src/lbp_feature.c ****   lbp_feature_rectangle rect_position = GET_RECT_WITH_OFFSET(
 187              		.loc 1 179 3 view .LVU43
 188              		.loc 1 179 41 is_stmt 0 view .LVU44
 189 0034 2378     		ldrb	r3, [r4]	@ zero_extendqisi2
 190 0036 2A78     		ldrb	r2, [r5]	@ zero_extendqisi2
 191 0038 1344     		add	r3, r3, r2
 192              		.loc 1 179 25 view .LVU45
 193 003a 8DF80030 		strb	r3, [sp]
 194              		.loc 1 179 41 view .LVU46
 195 003e 6378     		ldrb	r3, [r4, #1]	@ zero_extendqisi2
 196 0040 6A78     		ldrb	r2, [r5, #1]	@ zero_extendqisi2
 197 0042 1344     		add	r3, r3, r2
 198              		.loc 1 179 25 view .LVU47
 199 0044 8DF80130 		strb	r3, [sp, #1]
 200              		.loc 1 179 41 view .LVU48
 201 0048 A378     		ldrb	r3, [r4, #2]	@ zero_extendqisi2
 202              		.loc 1 179 25 view .LVU49
 203 004a 8DF80230 		strb	r3, [sp, #2]
 204              		.loc 1 179 41 view .LVU50
 205 004e E378     		ldrb	r3, [r4, #3]	@ zero_extendqisi2
 206              		.loc 1 179 25 view .LVU51
 207 0050 8DF80330 		strb	r3, [sp, #3]
 180:External/LBPFeature/Src/lbp_feature.c ****     scaled_rectangles[rectangle_index],
 181:External/LBPFeature/Src/lbp_feature.c ****     arguments->offset_x,
 182:External/LBPFeature/Src/lbp_feature.c ****     arguments->offset_y
 183:External/LBPFeature/Src/lbp_feature.c ****   );
 184:External/LBPFeature/Src/lbp_feature.c **** 
 185:External/LBPFeature/Src/lbp_feature.c ****   if (
 208              		.loc 1 185 3 is_stmt 1 view .LVU52
 186:External/LBPFeature/Src/lbp_feature.c ****     integral_image_handler.get_rectangle_summarize(&rect_position) >=
 209              		.loc 1 186 27 is_stmt 0 view .LVU53
 210 0054 3368     		ldr	r3, [r6]
 211              		.loc 1 186 5 view .LVU54
ARM GAS  /tmp/cc7f15XE.s 			page 8


 212 0056 6846     		mov	r0, sp
 213 0058 9847     		blx	r3
 214              	.LVL9:
 185:External/LBPFeature/Src/lbp_feature.c ****     integral_image_handler.get_rectangle_summarize(&rect_position) >=
 215              		.loc 1 185 6 view .LVU55
 216 005a 8742     		cmp	r7, r0
 217 005c 00F2B480 		bhi	.L17
 187:External/LBPFeature/Src/lbp_feature.c ****       center_value
 188:External/LBPFeature/Src/lbp_feature.c ****   )
 189:External/LBPFeature/Src/lbp_feature.c ****     return success_value;
 218              		.loc 1 189 12 view .LVU56
 219 0060 4FF08008 		mov	r8, #128
 220              	.L9:
 221              	.LVL10:
 222              		.loc 1 189 12 view .LVU57
 223              	.LBE22:
 224              	.LBE21:
 115:External/LBPFeature/Src/lbp_feature.c ****     scaled_rectangles,
 225              		.loc 1 115 3 is_stmt 1 view .LVU58
 226              	.LBB24:
 227              	.LBI24:
 171:External/LBPFeature/Src/lbp_feature.c ****   const lbp_feature_rectangle *const scaled_rectangles,
 228              		.loc 1 171 23 view .LVU59
 229              	.LBB25:
 179:External/LBPFeature/Src/lbp_feature.c ****     scaled_rectangles[rectangle_index],
 230              		.loc 1 179 3 view .LVU60
 179:External/LBPFeature/Src/lbp_feature.c ****     scaled_rectangles[rectangle_index],
 231              		.loc 1 179 41 is_stmt 0 view .LVU61
 232 0064 2379     		ldrb	r3, [r4, #4]	@ zero_extendqisi2
 233 0066 2A78     		ldrb	r2, [r5]	@ zero_extendqisi2
 234 0068 1344     		add	r3, r3, r2
 179:External/LBPFeature/Src/lbp_feature.c ****     scaled_rectangles[rectangle_index],
 235              		.loc 1 179 25 view .LVU62
 236 006a 8DF80030 		strb	r3, [sp]
 179:External/LBPFeature/Src/lbp_feature.c ****     scaled_rectangles[rectangle_index],
 237              		.loc 1 179 41 view .LVU63
 238 006e 6379     		ldrb	r3, [r4, #5]	@ zero_extendqisi2
 239 0070 6A78     		ldrb	r2, [r5, #1]	@ zero_extendqisi2
 240 0072 1344     		add	r3, r3, r2
 179:External/LBPFeature/Src/lbp_feature.c ****     scaled_rectangles[rectangle_index],
 241              		.loc 1 179 25 view .LVU64
 242 0074 8DF80130 		strb	r3, [sp, #1]
 179:External/LBPFeature/Src/lbp_feature.c ****     scaled_rectangles[rectangle_index],
 243              		.loc 1 179 41 view .LVU65
 244 0078 A379     		ldrb	r3, [r4, #6]	@ zero_extendqisi2
 179:External/LBPFeature/Src/lbp_feature.c ****     scaled_rectangles[rectangle_index],
 245              		.loc 1 179 25 view .LVU66
 246 007a 8DF80230 		strb	r3, [sp, #2]
 179:External/LBPFeature/Src/lbp_feature.c ****     scaled_rectangles[rectangle_index],
 247              		.loc 1 179 41 view .LVU67
 248 007e E379     		ldrb	r3, [r4, #7]	@ zero_extendqisi2
 179:External/LBPFeature/Src/lbp_feature.c ****     scaled_rectangles[rectangle_index],
 249              		.loc 1 179 25 view .LVU68
 250 0080 8DF80330 		strb	r3, [sp, #3]
 185:External/LBPFeature/Src/lbp_feature.c ****     integral_image_handler.get_rectangle_summarize(&rect_position) >=
 251              		.loc 1 185 3 is_stmt 1 view .LVU69
 186:External/LBPFeature/Src/lbp_feature.c ****       center_value
ARM GAS  /tmp/cc7f15XE.s 			page 9


 252              		.loc 1 186 27 is_stmt 0 view .LVU70
 253 0084 594B     		ldr	r3, .L26
 254 0086 1B68     		ldr	r3, [r3]
 186:External/LBPFeature/Src/lbp_feature.c ****       center_value
 255              		.loc 1 186 5 view .LVU71
 256 0088 6846     		mov	r0, sp
 257 008a 9847     		blx	r3
 258              	.LVL11:
 185:External/LBPFeature/Src/lbp_feature.c ****     integral_image_handler.get_rectangle_summarize(&rect_position) >=
 259              		.loc 1 185 6 view .LVU72
 260 008c 8742     		cmp	r7, r0
 261 008e 00F29E80 		bhi	.L18
 262              		.loc 1 189 12 view .LVU73
 263 0092 4026     		movs	r6, #64
 264              	.L10:
 265              	.LVL12:
 266              		.loc 1 189 12 view .LVU74
 267              	.LBE25:
 268              	.LBE24:
 115:External/LBPFeature/Src/lbp_feature.c ****     scaled_rectangles,
 269              		.loc 1 115 9 discriminator 1 view .LVU75
 270 0094 46EA0806 		orr	r6, r6, r8
 271              	.LVL13:
 122:External/LBPFeature/Src/lbp_feature.c ****     scaled_rectangles,
 272              		.loc 1 122 3 is_stmt 1 view .LVU76
 273              	.LBB27:
 274              	.LBI27:
 171:External/LBPFeature/Src/lbp_feature.c ****   const lbp_feature_rectangle *const scaled_rectangles,
 275              		.loc 1 171 23 view .LVU77
 276              	.LBB28:
 179:External/LBPFeature/Src/lbp_feature.c ****     scaled_rectangles[rectangle_index],
 277              		.loc 1 179 3 view .LVU78
 179:External/LBPFeature/Src/lbp_feature.c ****     scaled_rectangles[rectangle_index],
 278              		.loc 1 179 41 is_stmt 0 view .LVU79
 279 0098 237A     		ldrb	r3, [r4, #8]	@ zero_extendqisi2
 280 009a 2A78     		ldrb	r2, [r5]	@ zero_extendqisi2
 281 009c 1344     		add	r3, r3, r2
 179:External/LBPFeature/Src/lbp_feature.c ****     scaled_rectangles[rectangle_index],
 282              		.loc 1 179 25 view .LVU80
 283 009e 8DF80030 		strb	r3, [sp]
 179:External/LBPFeature/Src/lbp_feature.c ****     scaled_rectangles[rectangle_index],
 284              		.loc 1 179 41 view .LVU81
 285 00a2 637A     		ldrb	r3, [r4, #9]	@ zero_extendqisi2
 286 00a4 6A78     		ldrb	r2, [r5, #1]	@ zero_extendqisi2
 287 00a6 1344     		add	r3, r3, r2
 179:External/LBPFeature/Src/lbp_feature.c ****     scaled_rectangles[rectangle_index],
 288              		.loc 1 179 25 view .LVU82
 289 00a8 8DF80130 		strb	r3, [sp, #1]
 179:External/LBPFeature/Src/lbp_feature.c ****     scaled_rectangles[rectangle_index],
 290              		.loc 1 179 41 view .LVU83
 291 00ac A37A     		ldrb	r3, [r4, #10]	@ zero_extendqisi2
 179:External/LBPFeature/Src/lbp_feature.c ****     scaled_rectangles[rectangle_index],
 292              		.loc 1 179 25 view .LVU84
 293 00ae 8DF80230 		strb	r3, [sp, #2]
 179:External/LBPFeature/Src/lbp_feature.c ****     scaled_rectangles[rectangle_index],
 294              		.loc 1 179 41 view .LVU85
 295 00b2 E37A     		ldrb	r3, [r4, #11]	@ zero_extendqisi2
ARM GAS  /tmp/cc7f15XE.s 			page 10


 179:External/LBPFeature/Src/lbp_feature.c ****     scaled_rectangles[rectangle_index],
 296              		.loc 1 179 25 view .LVU86
 297 00b4 8DF80330 		strb	r3, [sp, #3]
 185:External/LBPFeature/Src/lbp_feature.c ****     integral_image_handler.get_rectangle_summarize(&rect_position) >=
 298              		.loc 1 185 3 is_stmt 1 view .LVU87
 186:External/LBPFeature/Src/lbp_feature.c ****       center_value
 299              		.loc 1 186 27 is_stmt 0 view .LVU88
 300 00b8 4C4B     		ldr	r3, .L26
 301 00ba 1B68     		ldr	r3, [r3]
 186:External/LBPFeature/Src/lbp_feature.c ****       center_value
 302              		.loc 1 186 5 view .LVU89
 303 00bc 6846     		mov	r0, sp
 304 00be 9847     		blx	r3
 305              	.LVL14:
 185:External/LBPFeature/Src/lbp_feature.c ****     integral_image_handler.get_rectangle_summarize(&rect_position) >=
 306              		.loc 1 185 6 view .LVU90
 307 00c0 8742     		cmp	r7, r0
 308 00c2 00F28680 		bhi	.L19
 309              		.loc 1 189 12 view .LVU91
 310 00c6 2023     		movs	r3, #32
 311              	.L11:
 312              	.LVL15:
 313              		.loc 1 189 12 view .LVU92
 314              	.LBE28:
 315              	.LBE27:
 122:External/LBPFeature/Src/lbp_feature.c ****     scaled_rectangles,
 316              		.loc 1 122 9 discriminator 1 view .LVU93
 317 00c8 1E43     		orrs	r6, r6, r3
 318              	.LVL16:
 130:External/LBPFeature/Src/lbp_feature.c ****     scaled_rectangles,
 319              		.loc 1 130 3 is_stmt 1 view .LVU94
 320              	.LBB30:
 321              	.LBI30:
 171:External/LBPFeature/Src/lbp_feature.c ****   const lbp_feature_rectangle *const scaled_rectangles,
 322              		.loc 1 171 23 view .LVU95
 323              	.LBB31:
 179:External/LBPFeature/Src/lbp_feature.c ****     scaled_rectangles[rectangle_index],
 324              		.loc 1 179 3 view .LVU96
 179:External/LBPFeature/Src/lbp_feature.c ****     scaled_rectangles[rectangle_index],
 325              		.loc 1 179 41 is_stmt 0 view .LVU97
 326 00ca 237B     		ldrb	r3, [r4, #12]	@ zero_extendqisi2
 327 00cc 2A78     		ldrb	r2, [r5]	@ zero_extendqisi2
 328 00ce 1344     		add	r3, r3, r2
 179:External/LBPFeature/Src/lbp_feature.c ****     scaled_rectangles[rectangle_index],
 329              		.loc 1 179 25 view .LVU98
 330 00d0 8DF80030 		strb	r3, [sp]
 179:External/LBPFeature/Src/lbp_feature.c ****     scaled_rectangles[rectangle_index],
 331              		.loc 1 179 41 view .LVU99
 332 00d4 637B     		ldrb	r3, [r4, #13]	@ zero_extendqisi2
 333 00d6 6A78     		ldrb	r2, [r5, #1]	@ zero_extendqisi2
 334 00d8 1344     		add	r3, r3, r2
 179:External/LBPFeature/Src/lbp_feature.c ****     scaled_rectangles[rectangle_index],
 335              		.loc 1 179 25 view .LVU100
 336 00da 8DF80130 		strb	r3, [sp, #1]
 179:External/LBPFeature/Src/lbp_feature.c ****     scaled_rectangles[rectangle_index],
 337              		.loc 1 179 41 view .LVU101
 338 00de A37B     		ldrb	r3, [r4, #14]	@ zero_extendqisi2
ARM GAS  /tmp/cc7f15XE.s 			page 11


 179:External/LBPFeature/Src/lbp_feature.c ****     scaled_rectangles[rectangle_index],
 339              		.loc 1 179 25 view .LVU102
 340 00e0 8DF80230 		strb	r3, [sp, #2]
 179:External/LBPFeature/Src/lbp_feature.c ****     scaled_rectangles[rectangle_index],
 341              		.loc 1 179 41 view .LVU103
 342 00e4 E37B     		ldrb	r3, [r4, #15]	@ zero_extendqisi2
 179:External/LBPFeature/Src/lbp_feature.c ****     scaled_rectangles[rectangle_index],
 343              		.loc 1 179 25 view .LVU104
 344 00e6 8DF80330 		strb	r3, [sp, #3]
 185:External/LBPFeature/Src/lbp_feature.c ****     integral_image_handler.get_rectangle_summarize(&rect_position) >=
 345              		.loc 1 185 3 is_stmt 1 view .LVU105
 186:External/LBPFeature/Src/lbp_feature.c ****       center_value
 346              		.loc 1 186 27 is_stmt 0 view .LVU106
 347 00ea 404B     		ldr	r3, .L26
 348 00ec 1B68     		ldr	r3, [r3]
 186:External/LBPFeature/Src/lbp_feature.c ****       center_value
 349              		.loc 1 186 5 view .LVU107
 350 00ee 6846     		mov	r0, sp
 351 00f0 9847     		blx	r3
 352              	.LVL17:
 185:External/LBPFeature/Src/lbp_feature.c ****     integral_image_handler.get_rectangle_summarize(&rect_position) >=
 353              		.loc 1 185 6 view .LVU108
 354 00f2 8742     		cmp	r7, r0
 355 00f4 6FD8     		bhi	.L20
 356              		.loc 1 189 12 view .LVU109
 357 00f6 0123     		movs	r3, #1
 358              	.L12:
 359              	.LVL18:
 360              		.loc 1 189 12 view .LVU110
 361              	.LBE31:
 362              	.LBE30:
 130:External/LBPFeature/Src/lbp_feature.c ****     scaled_rectangles,
 363              		.loc 1 130 9 discriminator 1 view .LVU111
 364 00f8 1E43     		orrs	r6, r6, r3
 365              	.LVL19:
 137:External/LBPFeature/Src/lbp_feature.c ****     scaled_rectangles,
 366              		.loc 1 137 3 is_stmt 1 view .LVU112
 367              	.LBB33:
 368              	.LBI33:
 171:External/LBPFeature/Src/lbp_feature.c ****   const lbp_feature_rectangle *const scaled_rectangles,
 369              		.loc 1 171 23 view .LVU113
 370              	.LBB34:
 179:External/LBPFeature/Src/lbp_feature.c ****     scaled_rectangles[rectangle_index],
 371              		.loc 1 179 3 view .LVU114
 179:External/LBPFeature/Src/lbp_feature.c ****     scaled_rectangles[rectangle_index],
 372              		.loc 1 179 41 is_stmt 0 view .LVU115
 373 00fa 237D     		ldrb	r3, [r4, #20]	@ zero_extendqisi2
 374 00fc 2A78     		ldrb	r2, [r5]	@ zero_extendqisi2
 375 00fe 1344     		add	r3, r3, r2
 179:External/LBPFeature/Src/lbp_feature.c ****     scaled_rectangles[rectangle_index],
 376              		.loc 1 179 25 view .LVU116
 377 0100 8DF80030 		strb	r3, [sp]
 179:External/LBPFeature/Src/lbp_feature.c ****     scaled_rectangles[rectangle_index],
 378              		.loc 1 179 41 view .LVU117
 379 0104 637D     		ldrb	r3, [r4, #21]	@ zero_extendqisi2
 380 0106 6A78     		ldrb	r2, [r5, #1]	@ zero_extendqisi2
 381 0108 1344     		add	r3, r3, r2
ARM GAS  /tmp/cc7f15XE.s 			page 12


 179:External/LBPFeature/Src/lbp_feature.c ****     scaled_rectangles[rectangle_index],
 382              		.loc 1 179 25 view .LVU118
 383 010a 8DF80130 		strb	r3, [sp, #1]
 179:External/LBPFeature/Src/lbp_feature.c ****     scaled_rectangles[rectangle_index],
 384              		.loc 1 179 41 view .LVU119
 385 010e A37D     		ldrb	r3, [r4, #22]	@ zero_extendqisi2
 179:External/LBPFeature/Src/lbp_feature.c ****     scaled_rectangles[rectangle_index],
 386              		.loc 1 179 25 view .LVU120
 387 0110 8DF80230 		strb	r3, [sp, #2]
 179:External/LBPFeature/Src/lbp_feature.c ****     scaled_rectangles[rectangle_index],
 388              		.loc 1 179 41 view .LVU121
 389 0114 E37D     		ldrb	r3, [r4, #23]	@ zero_extendqisi2
 179:External/LBPFeature/Src/lbp_feature.c ****     scaled_rectangles[rectangle_index],
 390              		.loc 1 179 25 view .LVU122
 391 0116 8DF80330 		strb	r3, [sp, #3]
 185:External/LBPFeature/Src/lbp_feature.c ****     integral_image_handler.get_rectangle_summarize(&rect_position) >=
 392              		.loc 1 185 3 is_stmt 1 view .LVU123
 186:External/LBPFeature/Src/lbp_feature.c ****       center_value
 393              		.loc 1 186 27 is_stmt 0 view .LVU124
 394 011a 344B     		ldr	r3, .L26
 395 011c 1B68     		ldr	r3, [r3]
 186:External/LBPFeature/Src/lbp_feature.c ****       center_value
 396              		.loc 1 186 5 view .LVU125
 397 011e 6846     		mov	r0, sp
 398 0120 9847     		blx	r3
 399              	.LVL20:
 185:External/LBPFeature/Src/lbp_feature.c ****     integral_image_handler.get_rectangle_summarize(&rect_position) >=
 400              		.loc 1 185 6 view .LVU126
 401 0122 8742     		cmp	r7, r0
 402 0124 59D8     		bhi	.L21
 403              		.loc 1 189 12 view .LVU127
 404 0126 1023     		movs	r3, #16
 405              	.L13:
 406              	.LVL21:
 407              		.loc 1 189 12 view .LVU128
 408              	.LBE34:
 409              	.LBE33:
 137:External/LBPFeature/Src/lbp_feature.c ****     scaled_rectangles,
 410              		.loc 1 137 9 discriminator 1 view .LVU129
 411 0128 1E43     		orrs	r6, r6, r3
 412              	.LVL22:
 145:External/LBPFeature/Src/lbp_feature.c ****     scaled_rectangles,
 413              		.loc 1 145 3 is_stmt 1 view .LVU130
 414              	.LBB36:
 415              	.LBI36:
 171:External/LBPFeature/Src/lbp_feature.c ****   const lbp_feature_rectangle *const scaled_rectangles,
 416              		.loc 1 171 23 view .LVU131
 417              	.LBB37:
 179:External/LBPFeature/Src/lbp_feature.c ****     scaled_rectangles[rectangle_index],
 418              		.loc 1 179 3 view .LVU132
 179:External/LBPFeature/Src/lbp_feature.c ****     scaled_rectangles[rectangle_index],
 419              		.loc 1 179 41 is_stmt 0 view .LVU133
 420 012a 237E     		ldrb	r3, [r4, #24]	@ zero_extendqisi2
 421 012c 2A78     		ldrb	r2, [r5]	@ zero_extendqisi2
 422 012e 1344     		add	r3, r3, r2
 179:External/LBPFeature/Src/lbp_feature.c ****     scaled_rectangles[rectangle_index],
 423              		.loc 1 179 25 view .LVU134
ARM GAS  /tmp/cc7f15XE.s 			page 13


 424 0130 8DF80030 		strb	r3, [sp]
 179:External/LBPFeature/Src/lbp_feature.c ****     scaled_rectangles[rectangle_index],
 425              		.loc 1 179 41 view .LVU135
 426 0134 637E     		ldrb	r3, [r4, #25]	@ zero_extendqisi2
 427 0136 6A78     		ldrb	r2, [r5, #1]	@ zero_extendqisi2
 428 0138 1344     		add	r3, r3, r2
 179:External/LBPFeature/Src/lbp_feature.c ****     scaled_rectangles[rectangle_index],
 429              		.loc 1 179 25 view .LVU136
 430 013a 8DF80130 		strb	r3, [sp, #1]
 179:External/LBPFeature/Src/lbp_feature.c ****     scaled_rectangles[rectangle_index],
 431              		.loc 1 179 41 view .LVU137
 432 013e A37E     		ldrb	r3, [r4, #26]	@ zero_extendqisi2
 179:External/LBPFeature/Src/lbp_feature.c ****     scaled_rectangles[rectangle_index],
 433              		.loc 1 179 25 view .LVU138
 434 0140 8DF80230 		strb	r3, [sp, #2]
 179:External/LBPFeature/Src/lbp_feature.c ****     scaled_rectangles[rectangle_index],
 435              		.loc 1 179 41 view .LVU139
 436 0144 E37E     		ldrb	r3, [r4, #27]	@ zero_extendqisi2
 179:External/LBPFeature/Src/lbp_feature.c ****     scaled_rectangles[rectangle_index],
 437              		.loc 1 179 25 view .LVU140
 438 0146 8DF80330 		strb	r3, [sp, #3]
 185:External/LBPFeature/Src/lbp_feature.c ****     integral_image_handler.get_rectangle_summarize(&rect_position) >=
 439              		.loc 1 185 3 is_stmt 1 view .LVU141
 186:External/LBPFeature/Src/lbp_feature.c ****       center_value
 440              		.loc 1 186 27 is_stmt 0 view .LVU142
 441 014a 284B     		ldr	r3, .L26
 442 014c 1B68     		ldr	r3, [r3]
 186:External/LBPFeature/Src/lbp_feature.c ****       center_value
 443              		.loc 1 186 5 view .LVU143
 444 014e 6846     		mov	r0, sp
 445 0150 9847     		blx	r3
 446              	.LVL23:
 185:External/LBPFeature/Src/lbp_feature.c ****     integral_image_handler.get_rectangle_summarize(&rect_position) >=
 447              		.loc 1 185 6 view .LVU144
 448 0152 8742     		cmp	r7, r0
 449 0154 43D8     		bhi	.L22
 450              		.loc 1 189 12 view .LVU145
 451 0156 0223     		movs	r3, #2
 452              	.L14:
 453              	.LVL24:
 454              		.loc 1 189 12 view .LVU146
 455              	.LBE37:
 456              	.LBE36:
 145:External/LBPFeature/Src/lbp_feature.c ****     scaled_rectangles,
 457              		.loc 1 145 9 discriminator 1 view .LVU147
 458 0158 1E43     		orrs	r6, r6, r3
 459              	.LVL25:
 152:External/LBPFeature/Src/lbp_feature.c ****     scaled_rectangles,
 460              		.loc 1 152 3 is_stmt 1 view .LVU148
 461              	.LBB39:
 462              	.LBI39:
 171:External/LBPFeature/Src/lbp_feature.c ****   const lbp_feature_rectangle *const scaled_rectangles,
 463              		.loc 1 171 23 view .LVU149
 464              	.LBB40:
 179:External/LBPFeature/Src/lbp_feature.c ****     scaled_rectangles[rectangle_index],
 465              		.loc 1 179 3 view .LVU150
 179:External/LBPFeature/Src/lbp_feature.c ****     scaled_rectangles[rectangle_index],
ARM GAS  /tmp/cc7f15XE.s 			page 14


 466              		.loc 1 179 41 is_stmt 0 view .LVU151
 467 015a 237F     		ldrb	r3, [r4, #28]	@ zero_extendqisi2
 468 015c 2A78     		ldrb	r2, [r5]	@ zero_extendqisi2
 469 015e 1344     		add	r3, r3, r2
 179:External/LBPFeature/Src/lbp_feature.c ****     scaled_rectangles[rectangle_index],
 470              		.loc 1 179 25 view .LVU152
 471 0160 8DF80030 		strb	r3, [sp]
 179:External/LBPFeature/Src/lbp_feature.c ****     scaled_rectangles[rectangle_index],
 472              		.loc 1 179 41 view .LVU153
 473 0164 637F     		ldrb	r3, [r4, #29]	@ zero_extendqisi2
 474 0166 6A78     		ldrb	r2, [r5, #1]	@ zero_extendqisi2
 475 0168 1344     		add	r3, r3, r2
 179:External/LBPFeature/Src/lbp_feature.c ****     scaled_rectangles[rectangle_index],
 476              		.loc 1 179 25 view .LVU154
 477 016a 8DF80130 		strb	r3, [sp, #1]
 179:External/LBPFeature/Src/lbp_feature.c ****     scaled_rectangles[rectangle_index],
 478              		.loc 1 179 41 view .LVU155
 479 016e A37F     		ldrb	r3, [r4, #30]	@ zero_extendqisi2
 179:External/LBPFeature/Src/lbp_feature.c ****     scaled_rectangles[rectangle_index],
 480              		.loc 1 179 25 view .LVU156
 481 0170 8DF80230 		strb	r3, [sp, #2]
 179:External/LBPFeature/Src/lbp_feature.c ****     scaled_rectangles[rectangle_index],
 482              		.loc 1 179 41 view .LVU157
 483 0174 E37F     		ldrb	r3, [r4, #31]	@ zero_extendqisi2
 179:External/LBPFeature/Src/lbp_feature.c ****     scaled_rectangles[rectangle_index],
 484              		.loc 1 179 25 view .LVU158
 485 0176 8DF80330 		strb	r3, [sp, #3]
 185:External/LBPFeature/Src/lbp_feature.c ****     integral_image_handler.get_rectangle_summarize(&rect_position) >=
 486              		.loc 1 185 3 is_stmt 1 view .LVU159
 186:External/LBPFeature/Src/lbp_feature.c ****       center_value
 487              		.loc 1 186 27 is_stmt 0 view .LVU160
 488 017a 1C4B     		ldr	r3, .L26
 489 017c 1B68     		ldr	r3, [r3]
 186:External/LBPFeature/Src/lbp_feature.c ****       center_value
 490              		.loc 1 186 5 view .LVU161
 491 017e 6846     		mov	r0, sp
 492 0180 9847     		blx	r3
 493              	.LVL26:
 185:External/LBPFeature/Src/lbp_feature.c ****     integral_image_handler.get_rectangle_summarize(&rect_position) >=
 494              		.loc 1 185 6 view .LVU162
 495 0182 8742     		cmp	r7, r0
 496 0184 2DD8     		bhi	.L23
 497              		.loc 1 189 12 view .LVU163
 498 0186 0423     		movs	r3, #4
 499              	.L15:
 500              	.LVL27:
 501              		.loc 1 189 12 view .LVU164
 502              	.LBE40:
 503              	.LBE39:
 152:External/LBPFeature/Src/lbp_feature.c ****     scaled_rectangles,
 504              		.loc 1 152 9 discriminator 1 view .LVU165
 505 0188 1E43     		orrs	r6, r6, r3
 506              	.LVL28:
 159:External/LBPFeature/Src/lbp_feature.c ****     scaled_rectangles,
 507              		.loc 1 159 3 is_stmt 1 view .LVU166
 508              	.LBB42:
 509              	.LBI42:
ARM GAS  /tmp/cc7f15XE.s 			page 15


 171:External/LBPFeature/Src/lbp_feature.c ****   const lbp_feature_rectangle *const scaled_rectangles,
 510              		.loc 1 171 23 view .LVU167
 511              	.LBB43:
 179:External/LBPFeature/Src/lbp_feature.c ****     scaled_rectangles[rectangle_index],
 512              		.loc 1 179 3 view .LVU168
 179:External/LBPFeature/Src/lbp_feature.c ****     scaled_rectangles[rectangle_index],
 513              		.loc 1 179 41 is_stmt 0 view .LVU169
 514 018a 94F82030 		ldrb	r3, [r4, #32]	@ zero_extendqisi2
 515 018e 2A78     		ldrb	r2, [r5]	@ zero_extendqisi2
 516 0190 1344     		add	r3, r3, r2
 179:External/LBPFeature/Src/lbp_feature.c ****     scaled_rectangles[rectangle_index],
 517              		.loc 1 179 25 view .LVU170
 518 0192 8DF80030 		strb	r3, [sp]
 179:External/LBPFeature/Src/lbp_feature.c ****     scaled_rectangles[rectangle_index],
 519              		.loc 1 179 41 view .LVU171
 520 0196 94F82130 		ldrb	r3, [r4, #33]	@ zero_extendqisi2
 521 019a 6A78     		ldrb	r2, [r5, #1]	@ zero_extendqisi2
 522 019c 1344     		add	r3, r3, r2
 179:External/LBPFeature/Src/lbp_feature.c ****     scaled_rectangles[rectangle_index],
 523              		.loc 1 179 25 view .LVU172
 524 019e 8DF80130 		strb	r3, [sp, #1]
 179:External/LBPFeature/Src/lbp_feature.c ****     scaled_rectangles[rectangle_index],
 525              		.loc 1 179 41 view .LVU173
 526 01a2 94F82230 		ldrb	r3, [r4, #34]	@ zero_extendqisi2
 179:External/LBPFeature/Src/lbp_feature.c ****     scaled_rectangles[rectangle_index],
 527              		.loc 1 179 25 view .LVU174
 528 01a6 8DF80230 		strb	r3, [sp, #2]
 179:External/LBPFeature/Src/lbp_feature.c ****     scaled_rectangles[rectangle_index],
 529              		.loc 1 179 41 view .LVU175
 530 01aa 94F82330 		ldrb	r3, [r4, #35]	@ zero_extendqisi2
 179:External/LBPFeature/Src/lbp_feature.c ****     scaled_rectangles[rectangle_index],
 531              		.loc 1 179 25 view .LVU176
 532 01ae 8DF80330 		strb	r3, [sp, #3]
 185:External/LBPFeature/Src/lbp_feature.c ****     integral_image_handler.get_rectangle_summarize(&rect_position) >=
 533              		.loc 1 185 3 is_stmt 1 view .LVU177
 186:External/LBPFeature/Src/lbp_feature.c ****       center_value
 534              		.loc 1 186 27 is_stmt 0 view .LVU178
 535 01b2 0E4B     		ldr	r3, .L26
 536 01b4 1B68     		ldr	r3, [r3]
 186:External/LBPFeature/Src/lbp_feature.c ****       center_value
 537              		.loc 1 186 5 view .LVU179
 538 01b6 6846     		mov	r0, sp
 539 01b8 9847     		blx	r3
 540              	.LVL29:
 185:External/LBPFeature/Src/lbp_feature.c ****     integral_image_handler.get_rectangle_summarize(&rect_position) >=
 541              		.loc 1 185 6 view .LVU180
 542 01ba 8742     		cmp	r7, r0
 543 01bc 13D8     		bhi	.L24
 544              		.loc 1 189 12 view .LVU181
 545 01be 0820     		movs	r0, #8
 546              	.L16:
 547              	.LVL30:
 548              		.loc 1 189 12 view .LVU182
 549              	.LBE43:
 550              	.LBE42:
 167:External/LBPFeature/Src/lbp_feature.c **** }
 551              		.loc 1 167 3 is_stmt 1 view .LVU183
ARM GAS  /tmp/cc7f15XE.s 			page 16


 168:External/LBPFeature/Src/lbp_feature.c **** 
 552              		.loc 1 168 1 is_stmt 0 view .LVU184
 553 01c0 3043     		orrs	r0, r0, r6
 554              	.LVL31:
 168:External/LBPFeature/Src/lbp_feature.c **** 
 555              		.loc 1 168 1 view .LVU185
 556 01c2 02B0     		add	sp, sp, #8
 557              	.LCFI4:
 558              		.cfi_remember_state
 559              		.cfi_def_cfa_offset 24
 560              		@ sp needed
 561 01c4 BDE8F081 		pop	{r4, r5, r6, r7, r8, pc}
 562              	.LVL32:
 563              	.L17:
 564              	.LCFI5:
 565              		.cfi_restore_state
 566              	.LBB45:
 567              	.LBB23:
 190:External/LBPFeature/Src/lbp_feature.c ****   else
 191:External/LBPFeature/Src/lbp_feature.c ****     return 0;
 568              		.loc 1 191 12 view .LVU186
 569 01c8 4FF00008 		mov	r8, #0
 570 01cc 4AE7     		b	.L9
 571              	.LVL33:
 572              	.L18:
 573              		.loc 1 191 12 view .LVU187
 574              	.LBE23:
 575              	.LBE45:
 576              	.LBB46:
 577              	.LBB26:
 578 01ce 0026     		movs	r6, #0
 579 01d0 60E7     		b	.L10
 580              	.LVL34:
 581              	.L19:
 582              		.loc 1 191 12 view .LVU188
 583              	.LBE26:
 584              	.LBE46:
 585              	.LBB47:
 586              	.LBB29:
 587 01d2 0023     		movs	r3, #0
 588 01d4 78E7     		b	.L11
 589              	.LVL35:
 590              	.L20:
 591              		.loc 1 191 12 view .LVU189
 592              	.LBE29:
 593              	.LBE47:
 594              	.LBB48:
 595              	.LBB32:
 596 01d6 0023     		movs	r3, #0
 597 01d8 8EE7     		b	.L12
 598              	.LVL36:
 599              	.L21:
 600              		.loc 1 191 12 view .LVU190
 601              	.LBE32:
 602              	.LBE48:
 603              	.LBB49:
 604              	.LBB35:
ARM GAS  /tmp/cc7f15XE.s 			page 17


 605 01da 0023     		movs	r3, #0
 606 01dc A4E7     		b	.L13
 607              	.LVL37:
 608              	.L22:
 609              		.loc 1 191 12 view .LVU191
 610              	.LBE35:
 611              	.LBE49:
 612              	.LBB50:
 613              	.LBB38:
 614 01de 0023     		movs	r3, #0
 615 01e0 BAE7     		b	.L14
 616              	.LVL38:
 617              	.L23:
 618              		.loc 1 191 12 view .LVU192
 619              	.LBE38:
 620              	.LBE50:
 621              	.LBB51:
 622              	.LBB41:
 623 01e2 0023     		movs	r3, #0
 624 01e4 D0E7     		b	.L15
 625              	.LVL39:
 626              	.L24:
 627              		.loc 1 191 12 view .LVU193
 628              	.LBE41:
 629              	.LBE51:
 630              	.LBB52:
 631              	.LBB44:
 632 01e6 0020     		movs	r0, #0
 633 01e8 EAE7     		b	.L16
 634              	.L27:
 635 01ea 00BF     		.align	2
 636              	.L26:
 637 01ec 00000000 		.word	integral_image_handler
 638              	.LBE44:
 639              	.LBE52:
 640              		.cfi_endproc
 641              	.LFE4:
 643              		.section	.text.lbp_feature_set_integral_image_handler,"ax",%progbits
 644              		.align	1
 645              		.global	lbp_feature_set_integral_image_handler
 646              		.syntax unified
 647              		.thumb
 648              		.thumb_func
 650              	lbp_feature_set_integral_image_handler:
 651              	.LVL40:
 652              	.LFB0:
  43:External/LBPFeature/Src/lbp_feature.c ****   integral_image_handler = handler;
 653              		.loc 1 43 1 is_stmt 1 view -0
 654              		.cfi_startproc
 655              		@ args = 0, pretend = 0, frame = 0
 656              		@ frame_needed = 0, uses_anonymous_args = 0
 657              		@ link register save eliminated.
  44:External/LBPFeature/Src/lbp_feature.c **** }
 658              		.loc 1 44 3 view .LVU195
  44:External/LBPFeature/Src/lbp_feature.c **** }
 659              		.loc 1 44 26 is_stmt 0 view .LVU196
 660 0000 014B     		ldr	r3, .L29
ARM GAS  /tmp/cc7f15XE.s 			page 18


 661 0002 1860     		str	r0, [r3]
  45:External/LBPFeature/Src/lbp_feature.c **** 
 662              		.loc 1 45 1 view .LVU197
 663 0004 7047     		bx	lr
 664              	.L30:
 665 0006 00BF     		.align	2
 666              	.L29:
 667 0008 00000000 		.word	integral_image_handler
 668              		.cfi_endproc
 669              	.LFE0:
 671              		.section	.text.lbp_feature_reset_integral_image_handler,"ax",%progbits
 672              		.align	1
 673              		.global	lbp_feature_reset_integral_image_handler
 674              		.syntax unified
 675              		.thumb
 676              		.thumb_func
 678              	lbp_feature_reset_integral_image_handler:
 679              	.LFB1:
  48:External/LBPFeature/Src/lbp_feature.c ****   integral_image_handler = (lbp_feature_integral_image_handler){ 0 };
 680              		.loc 1 48 1 is_stmt 1 view -0
 681              		.cfi_startproc
 682              		@ args = 0, pretend = 0, frame = 0
 683              		@ frame_needed = 0, uses_anonymous_args = 0
 684              		@ link register save eliminated.
  49:External/LBPFeature/Src/lbp_feature.c **** }
 685              		.loc 1 49 3 view .LVU199
  49:External/LBPFeature/Src/lbp_feature.c **** }
 686              		.loc 1 49 26 is_stmt 0 view .LVU200
 687 0000 014B     		ldr	r3, .L32
 688 0002 0022     		movs	r2, #0
 689 0004 1A60     		str	r2, [r3]
  50:External/LBPFeature/Src/lbp_feature.c **** 
 690              		.loc 1 50 1 view .LVU201
 691 0006 7047     		bx	lr
 692              	.L33:
 693              		.align	2
 694              	.L32:
 695 0008 00000000 		.word	integral_image_handler
 696              		.cfi_endproc
 697              	.LFE1:
 699              		.section	.text.lbp_feature_calculate_vote,"ax",%progbits
 700              		.align	1
 701              		.global	lbp_feature_calculate_vote
 702              		.syntax unified
 703              		.thumb
 704              		.thumb_func
 706              	lbp_feature_calculate_vote:
 707              	.LVL41:
 708              	.LFB2:
  56:External/LBPFeature/Src/lbp_feature.c ****   static lbp_feature_rectangle scaled_rectangles[LBP_FEATURE_RECTANGLES_AMOUNT];
 709              		.loc 1 56 1 is_stmt 1 view -0
 710              		.cfi_startproc
 711              		@ args = 0, pretend = 0, frame = 0
 712              		@ frame_needed = 0, uses_anonymous_args = 0
  56:External/LBPFeature/Src/lbp_feature.c ****   static lbp_feature_rectangle scaled_rectangles[LBP_FEATURE_RECTANGLES_AMOUNT];
 713              		.loc 1 56 1 is_stmt 0 view .LVU203
 714 0000 70B5     		push	{r4, r5, r6, lr}
ARM GAS  /tmp/cc7f15XE.s 			page 19


 715              	.LCFI6:
 716              		.cfi_def_cfa_offset 16
 717              		.cfi_offset 4, -16
 718              		.cfi_offset 5, -12
 719              		.cfi_offset 6, -8
 720              		.cfi_offset 14, -4
 721 0002 0446     		mov	r4, r0
 722 0004 0D46     		mov	r5, r1
  57:External/LBPFeature/Src/lbp_feature.c ****   lbp_feature_generate_scaled_rectangles(
 723              		.loc 1 57 3 is_stmt 1 view .LVU204
  58:External/LBPFeature/Src/lbp_feature.c ****     self,
 724              		.loc 1 58 3 view .LVU205
 725 0006 124E     		ldr	r6, .L38
 726 0008 91ED010A 		vldr.32	s0, [r1, #4]
 727 000c 3146     		mov	r1, r6
 728              	.LVL42:
  58:External/LBPFeature/Src/lbp_feature.c ****     self,
 729              		.loc 1 58 3 is_stmt 0 view .LVU206
 730 000e FFF7FEFF 		bl	lbp_feature_generate_scaled_rectangles
 731              	.LVL43:
  64:External/LBPFeature/Src/lbp_feature.c ****     (lbp_feature_rectangle*)scaled_rectangles,
 732              		.loc 1 64 3 is_stmt 1 view .LVU207
  64:External/LBPFeature/Src/lbp_feature.c ****     (lbp_feature_rectangle*)scaled_rectangles,
 733              		.loc 1 64 19 is_stmt 0 view .LVU208
 734 0012 2946     		mov	r1, r5
 735 0014 3046     		mov	r0, r6
 736 0016 FFF7FEFF 		bl	lbp_feature_get_score
 737              	.LVL44:
  69:External/LBPFeature/Src/lbp_feature.c ****     self->right_value : self->left_value;
 738              		.loc 1 69 3 is_stmt 1 view .LVU209
  69:External/LBPFeature/Src/lbp_feature.c ****     self->right_value : self->left_value;
 739              		.loc 1 69 29 is_stmt 0 view .LVU210
 740 001a C0F34713 		ubfx	r3, r0, #5, #8
  69:External/LBPFeature/Src/lbp_feature.c ****     self->right_value : self->left_value;
 741              		.loc 1 69 22 view .LVU211
 742 001e 0A33     		adds	r3, r3, #10
 743 0020 04EB8303 		add	r3, r4, r3, lsl #2
 744 0024 5A68     		ldr	r2, [r3, #4]
  69:External/LBPFeature/Src/lbp_feature.c ****     self->right_value : self->left_value;
 745              		.loc 1 69 50 view .LVU212
 746 0026 00F01F00 		and	r0, r0, #31
 747              	.LVL45:
  69:External/LBPFeature/Src/lbp_feature.c ****     self->right_value : self->left_value;
 748              		.loc 1 69 40 view .LVU213
 749 002a 0123     		movs	r3, #1
 750 002c 8340     		lsls	r3, r3, r0
  70:External/LBPFeature/Src/lbp_feature.c **** }
 751              		.loc 1 70 23 view .LVU214
 752 002e 1A42     		tst	r2, r3
 753 0030 06D0     		beq	.L35
  70:External/LBPFeature/Src/lbp_feature.c **** }
 754              		.loc 1 70 9 discriminator 1 view .LVU215
 755 0032 B4F94E30 		ldrsh	r3, [r4, #78]
 756 0036 00EE103A 		vmov	s0, r3	@ int
  70:External/LBPFeature/Src/lbp_feature.c **** }
 757              		.loc 1 70 23 discriminator 1 view .LVU216
 758 003a B8EEC00A 		vcvt.f32.s32	s0, s0
ARM GAS  /tmp/cc7f15XE.s 			page 20


 759              	.L34:
  71:External/LBPFeature/Src/lbp_feature.c **** 
 760              		.loc 1 71 1 view .LVU217
 761 003e 70BD     		pop	{r4, r5, r6, pc}
 762              	.LVL46:
 763              	.L35:
  70:External/LBPFeature/Src/lbp_feature.c **** }
 764              		.loc 1 70 29 discriminator 2 view .LVU218
 765 0040 B4F94C30 		ldrsh	r3, [r4, #76]
 766 0044 00EE103A 		vmov	s0, r3	@ int
  70:External/LBPFeature/Src/lbp_feature.c **** }
 767              		.loc 1 70 23 discriminator 2 view .LVU219
 768 0048 B8EEC00A 		vcvt.f32.s32	s0, s0
  70:External/LBPFeature/Src/lbp_feature.c **** }
 769              		.loc 1 70 23 view .LVU220
 770 004c F7E7     		b	.L34
 771              	.L39:
 772 004e 00BF     		.align	2
 773              	.L38:
 774 0050 00000000 		.word	scaled_rectangles.0
 775              		.cfi_endproc
 776              	.LFE2:
 778              		.section	.text.lbp_feature_destroy,"ax",%progbits
 779              		.align	1
 780              		.global	lbp_feature_destroy
 781              		.syntax unified
 782              		.thumb
 783              		.thumb_func
 785              	lbp_feature_destroy:
 786              	.LVL47:
 787              	.LFB6:
 192:External/LBPFeature/Src/lbp_feature.c **** }
 193:External/LBPFeature/Src/lbp_feature.c **** 
 194:External/LBPFeature/Src/lbp_feature.c **** void lbp_feature_destroy(lbp_feature *const self)
 195:External/LBPFeature/Src/lbp_feature.c **** {
 788              		.loc 1 195 1 is_stmt 1 view -0
 789              		.cfi_startproc
 790              		@ args = 0, pretend = 0, frame = 0
 791              		@ frame_needed = 0, uses_anonymous_args = 0
 792              		.loc 1 195 1 is_stmt 0 view .LVU222
 793 0000 38B5     		push	{r3, r4, r5, lr}
 794              	.LCFI7:
 795              		.cfi_def_cfa_offset 16
 796              		.cfi_offset 3, -16
 797              		.cfi_offset 4, -12
 798              		.cfi_offset 5, -8
 799              		.cfi_offset 14, -4
 196:External/LBPFeature/Src/lbp_feature.c ****   if (self->scaled_rectangles_amount == 0)
 800              		.loc 1 196 3 is_stmt 1 view .LVU223
 801              		.loc 1 196 11 is_stmt 0 view .LVU224
 802 0002 90F82830 		ldrb	r3, [r0, #40]	@ zero_extendqisi2
 803              		.loc 1 196 6 view .LVU225
 804 0006 9BB1     		cbz	r3, .L40
 805 0008 0546     		mov	r5, r0
 806              	.LBB53:
 197:External/LBPFeature/Src/lbp_feature.c ****     return;
 198:External/LBPFeature/Src/lbp_feature.c **** 
ARM GAS  /tmp/cc7f15XE.s 			page 21


 199:External/LBPFeature/Src/lbp_feature.c ****   for (
 200:External/LBPFeature/Src/lbp_feature.c ****     uint8_t scaled_rectangles_index = 0;
 807              		.loc 1 200 13 view .LVU226
 808 000a 0024     		movs	r4, #0
 809 000c 06E0     		b	.L42
 810              	.LVL48:
 811              	.L43:
 201:External/LBPFeature/Src/lbp_feature.c ****     scaled_rectangles_index < self->scaled_rectangles_amount;
 202:External/LBPFeature/Src/lbp_feature.c ****     scaled_rectangles_index++
 203:External/LBPFeature/Src/lbp_feature.c ****   )
 204:External/LBPFeature/Src/lbp_feature.c ****   {
 205:External/LBPFeature/Src/lbp_feature.c ****     free(self->scaled_rectangles[scaled_rectangles_index]);
 812              		.loc 1 205 5 is_stmt 1 view .LVU227
 813              		.loc 1 205 14 is_stmt 0 view .LVU228
 814 000e 6B6A     		ldr	r3, [r5, #36]
 815              		.loc 1 205 5 view .LVU229
 816 0010 53F82400 		ldr	r0, [r3, r4, lsl #2]
 817 0014 FFF7FEFF 		bl	free
 818              	.LVL49:
 202:External/LBPFeature/Src/lbp_feature.c ****   )
 819              		.loc 1 202 28 is_stmt 1 view .LVU230
 820 0018 0134     		adds	r4, r4, #1
 821              	.LVL50:
 202:External/LBPFeature/Src/lbp_feature.c ****   )
 822              		.loc 1 202 28 is_stmt 0 view .LVU231
 823 001a E4B2     		uxtb	r4, r4
 824              	.LVL51:
 825              	.L42:
 201:External/LBPFeature/Src/lbp_feature.c ****     scaled_rectangles_index < self->scaled_rectangles_amount;
 826              		.loc 1 201 29 is_stmt 1 view .LVU232
 201:External/LBPFeature/Src/lbp_feature.c ****     scaled_rectangles_index < self->scaled_rectangles_amount;
 827              		.loc 1 201 35 is_stmt 0 view .LVU233
 828 001c 95F82830 		ldrb	r3, [r5, #40]	@ zero_extendqisi2
 201:External/LBPFeature/Src/lbp_feature.c ****     scaled_rectangles_index < self->scaled_rectangles_amount;
 829              		.loc 1 201 29 view .LVU234
 830 0020 A342     		cmp	r3, r4
 831 0022 F4D8     		bhi	.L43
 832              	.LBE53:
 206:External/LBPFeature/Src/lbp_feature.c ****   }
 207:External/LBPFeature/Src/lbp_feature.c ****   free(self->scaled_rectangles);
 833              		.loc 1 207 3 is_stmt 1 view .LVU235
 834 0024 686A     		ldr	r0, [r5, #36]
 835 0026 FFF7FEFF 		bl	free
 836              	.LVL52:
 208:External/LBPFeature/Src/lbp_feature.c **** 
 209:External/LBPFeature/Src/lbp_feature.c ****   self->scaled_rectangles_amount = 0;
 837              		.loc 1 209 3 view .LVU236
 838              		.loc 1 209 34 is_stmt 0 view .LVU237
 839 002a 0023     		movs	r3, #0
 840 002c 85F82830 		strb	r3, [r5, #40]
 841              	.LVL53:
 842              	.L40:
 210:External/LBPFeature/Src/lbp_feature.c **** }
 843              		.loc 1 210 1 view .LVU238
 844 0030 38BD     		pop	{r3, r4, r5, pc}
 845              		.cfi_endproc
 846              	.LFE6:
ARM GAS  /tmp/cc7f15XE.s 			page 22


 848              		.section	.bss.scaled_rectangles.0,"aw",%nobits
 849              		.align	2
 852              	scaled_rectangles.0:
 853 0000 00000000 		.space	36
 853      00000000 
 853      00000000 
 853      00000000 
 853      00000000 
 854              		.section	.bss.integral_image_handler,"aw",%nobits
 855              		.align	2
 858              	integral_image_handler:
 859 0000 00000000 		.space	4
 860              		.text
 861              	.Letext0:
 862              		.file 2 "/usr/src/arm-gnu-toolchain-13.3/arm-none-eabi/include/machine/_default_types.h"
 863              		.file 3 "/usr/src/arm-gnu-toolchain-13.3/arm-none-eabi/include/sys/_stdint.h"
 864              		.file 4 "External/LBPFeature/Inc/lbp_feature_defs.h"
 865              		.file 5 "/usr/src/arm-gnu-toolchain-13.3/arm-none-eabi/include/stdlib.h"
ARM GAS  /tmp/cc7f15XE.s 			page 23

