ARM GAS  /tmp/ccHLYG8v.s 			page 1


   1              		.cpu cortex-m4
   2              		.arch armv7e-m
   3              		.fpu fpv4-sp-d16
   4              		.eabi_attribute 27, 1
   5              		.eabi_attribute 28, 1
   6              		.eabi_attribute 20, 1
   7              		.eabi_attribute 21, 1
   8              		.eabi_attribute 23, 3
   9              		.eabi_attribute 24, 1
  10              		.eabi_attribute 25, 1
  11              		.eabi_attribute 26, 1
  12              		.eabi_attribute 30, 1
  13              		.eabi_attribute 34, 1
  14              		.eabi_attribute 18, 4
  15              		.file	"stage.c"
  16              		.text
  17              	.Ltext0:
  18              		.cfi_sections	.debug_frame
  19              		.file 1 "External/Stage/Src/stage.c"
  20              		.section	.text.stage_set_feature_handler,"ax",%progbits
  21              		.align	1
  22              		.global	stage_set_feature_handler
  23              		.syntax unified
  24              		.thumb
  25              		.thumb_func
  27              	stage_set_feature_handler:
  28              	.LFB0:
   1:External/Stage/Src/stage.c **** #include "stage.h"
   2:External/Stage/Src/stage.c **** 
   3:External/Stage/Src/stage.c **** // Static variables ----------------------------------------------------------
   4:External/Stage/Src/stage.c **** 
   5:External/Stage/Src/stage.c **** static stage_feature_handler feature_handler;
   6:External/Stage/Src/stage.c **** 
   7:External/Stage/Src/stage.c **** // Implementations -----------------------------------------------------------
   8:External/Stage/Src/stage.c **** 
   9:External/Stage/Src/stage.c **** void stage_set_feature_handler(stage_feature_handler handler)
  10:External/Stage/Src/stage.c **** {
  29              		.loc 1 10 1 view -0
  30              		.cfi_startproc
  31              		@ args = 0, pretend = 0, frame = 8
  32              		@ frame_needed = 0, uses_anonymous_args = 0
  33              		@ link register save eliminated.
  34 0000 82B0     		sub	sp, sp, #8
  35              	.LCFI0:
  36              		.cfi_def_cfa_offset 8
  37 0002 6B46     		mov	r3, sp
  38 0004 83E80300 		stm	r3, {r0, r1}
  11:External/Stage/Src/stage.c ****   feature_handler = handler;
  39              		.loc 1 11 3 view .LVU1
  40              		.loc 1 11 19 is_stmt 0 view .LVU2
  41 0008 034A     		ldr	r2, .L3
  42 000a 93E80300 		ldm	r3, {r0, r1}
  43 000e 82E80300 		stm	r2, {r0, r1}
  12:External/Stage/Src/stage.c **** }
  44              		.loc 1 12 1 view .LVU3
  45 0012 02B0     		add	sp, sp, #8
  46              	.LCFI1:
ARM GAS  /tmp/ccHLYG8v.s 			page 2


  47              		.cfi_def_cfa_offset 0
  48              		@ sp needed
  49 0014 7047     		bx	lr
  50              	.L4:
  51 0016 00BF     		.align	2
  52              	.L3:
  53 0018 00000000 		.word	feature_handler
  54              		.cfi_endproc
  55              	.LFE0:
  57              		.section	.text.stage_reset_feature_handler,"ax",%progbits
  58              		.align	1
  59              		.global	stage_reset_feature_handler
  60              		.syntax unified
  61              		.thumb
  62              		.thumb_func
  64              	stage_reset_feature_handler:
  65              	.LFB1:
  13:External/Stage/Src/stage.c **** 
  14:External/Stage/Src/stage.c **** void stage_reset_feature_handler()
  15:External/Stage/Src/stage.c **** {
  66              		.loc 1 15 1 is_stmt 1 view -0
  67              		.cfi_startproc
  68              		@ args = 0, pretend = 0, frame = 0
  69              		@ frame_needed = 0, uses_anonymous_args = 0
  70              		@ link register save eliminated.
  16:External/Stage/Src/stage.c ****   feature_handler = (stage_feature_handler){ 0 };
  71              		.loc 1 16 3 view .LVU5
  72              		.loc 1 16 19 is_stmt 0 view .LVU6
  73 0000 024B     		ldr	r3, .L6
  74 0002 0022     		movs	r2, #0
  75 0004 1A60     		str	r2, [r3]
  76 0006 5A60     		str	r2, [r3, #4]
  17:External/Stage/Src/stage.c **** }
  77              		.loc 1 17 1 view .LVU7
  78 0008 7047     		bx	lr
  79              	.L7:
  80 000a 00BF     		.align	2
  81              	.L6:
  82 000c 00000000 		.word	feature_handler
  83              		.cfi_endproc
  84              	.LFE1:
  86              		.section	.text.stage_destroy,"ax",%progbits
  87              		.align	1
  88              		.global	stage_destroy
  89              		.syntax unified
  90              		.thumb
  91              		.thumb_func
  93              	stage_destroy:
  94              	.LVL0:
  95              	.LFB2:
  18:External/Stage/Src/stage.c **** 
  19:External/Stage/Src/stage.c **** void stage_destroy(stage *const self)
  20:External/Stage/Src/stage.c **** {
  96              		.loc 1 20 1 is_stmt 1 view -0
  97              		.cfi_startproc
  98              		@ args = 0, pretend = 0, frame = 0
  99              		@ frame_needed = 0, uses_anonymous_args = 0
ARM GAS  /tmp/ccHLYG8v.s 			page 3


 100              		.loc 1 20 1 is_stmt 0 view .LVU9
 101 0000 38B5     		push	{r3, r4, r5, lr}
 102              	.LCFI2:
 103              		.cfi_def_cfa_offset 16
 104              		.cfi_offset 3, -16
 105              		.cfi_offset 4, -12
 106              		.cfi_offset 5, -8
 107              		.cfi_offset 14, -4
 108 0002 0546     		mov	r5, r0
  21:External/Stage/Src/stage.c ****   for (uint8_t i = 0; i < self->features_amount; i++)
 109              		.loc 1 21 3 is_stmt 1 view .LVU10
 110              	.LBB2:
 111              		.loc 1 21 8 view .LVU11
 112              	.LVL1:
 113              		.loc 1 21 16 is_stmt 0 view .LVU12
 114 0004 0024     		movs	r4, #0
 115              		.loc 1 21 3 view .LVU13
 116 0006 09E0     		b	.L9
 117              	.LVL2:
 118              	.L10:
  22:External/Stage/Src/stage.c ****   {
  23:External/Stage/Src/stage.c ****     feature_handler.destroy(&self->features[i]);
 119              		.loc 1 23 5 is_stmt 1 view .LVU14
 120              		.loc 1 23 20 is_stmt 0 view .LVU15
 121 0008 064B     		ldr	r3, .L12
 122 000a 1B68     		ldr	r3, [r3]
 123              		.loc 1 23 34 view .LVU16
 124 000c 2A68     		ldr	r2, [r5]
 125              		.loc 1 23 44 view .LVU17
 126 000e 04EB8400 		add	r0, r4, r4, lsl #2
 127              		.loc 1 23 5 view .LVU18
 128 0012 02EB0010 		add	r0, r2, r0, lsl #4
 129 0016 9847     		blx	r3
 130              	.LVL3:
  21:External/Stage/Src/stage.c ****   for (uint8_t i = 0; i < self->features_amount; i++)
 131              		.loc 1 21 51 is_stmt 1 discriminator 3 view .LVU19
 132 0018 0134     		adds	r4, r4, #1
 133              	.LVL4:
  21:External/Stage/Src/stage.c ****   for (uint8_t i = 0; i < self->features_amount; i++)
 134              		.loc 1 21 51 is_stmt 0 discriminator 3 view .LVU20
 135 001a E4B2     		uxtb	r4, r4
 136              	.LVL5:
 137              	.L9:
  21:External/Stage/Src/stage.c ****   for (uint8_t i = 0; i < self->features_amount; i++)
 138              		.loc 1 21 25 is_stmt 1 discriminator 1 view .LVU21
  21:External/Stage/Src/stage.c ****   for (uint8_t i = 0; i < self->features_amount; i++)
 139              		.loc 1 21 31 is_stmt 0 discriminator 1 view .LVU22
 140 001c 2B79     		ldrb	r3, [r5, #4]	@ zero_extendqisi2
  21:External/Stage/Src/stage.c ****   for (uint8_t i = 0; i < self->features_amount; i++)
 141              		.loc 1 21 25 discriminator 1 view .LVU23
 142 001e A342     		cmp	r3, r4
 143 0020 F2D8     		bhi	.L10
 144              	.LBE2:
  24:External/Stage/Src/stage.c ****   }
  25:External/Stage/Src/stage.c **** }
 145              		.loc 1 25 1 view .LVU24
 146 0022 38BD     		pop	{r3, r4, r5, pc}
ARM GAS  /tmp/ccHLYG8v.s 			page 4


 147              	.LVL6:
 148              	.L13:
 149              		.loc 1 25 1 view .LVU25
 150              		.align	2
 151              	.L12:
 152 0024 00000000 		.word	feature_handler
 153              		.cfi_endproc
 154              	.LFE2:
 156              		.section	.text.stage_calculate_prediction,"ax",%progbits
 157              		.align	1
 158              		.global	stage_calculate_prediction
 159              		.syntax unified
 160              		.thumb
 161              		.thumb_func
 163              	stage_calculate_prediction:
 164              	.LVL7:
 165              	.LFB3:
  26:External/Stage/Src/stage.c **** 
  27:External/Stage/Src/stage.c **** bool stage_calculate_prediction(
  28:External/Stage/Src/stage.c ****   stage *const self,
  29:External/Stage/Src/stage.c ****   const lbp_feature_arguments *const arguments
  30:External/Stage/Src/stage.c **** )
  31:External/Stage/Src/stage.c **** {
 166              		.loc 1 31 1 is_stmt 1 view -0
 167              		.cfi_startproc
 168              		@ args = 0, pretend = 0, frame = 0
 169              		@ frame_needed = 0, uses_anonymous_args = 0
 170              		.loc 1 31 1 is_stmt 0 view .LVU27
 171 0000 70B5     		push	{r4, r5, r6, lr}
 172              	.LCFI3:
 173              		.cfi_def_cfa_offset 16
 174              		.cfi_offset 4, -16
 175              		.cfi_offset 5, -12
 176              		.cfi_offset 6, -8
 177              		.cfi_offset 14, -4
 178 0002 2DED028B 		vpush.64	{d8}
 179              	.LCFI4:
 180              		.cfi_def_cfa_offset 24
 181              		.cfi_offset 80, -24
 182              		.cfi_offset 81, -20
 183 0006 0546     		mov	r5, r0
 184 0008 0E46     		mov	r6, r1
  32:External/Stage/Src/stage.c ****   float score = 0.f;
 185              		.loc 1 32 3 is_stmt 1 view .LVU28
 186              	.LVL8:
  33:External/Stage/Src/stage.c **** 
  34:External/Stage/Src/stage.c ****   for (uint8_t i = 0; i < self->features_amount; i++)
 187              		.loc 1 34 3 view .LVU29
 188              	.LBB3:
 189              		.loc 1 34 8 view .LVU30
 190              		.loc 1 34 16 is_stmt 0 view .LVU31
 191 000a 0024     		movs	r4, #0
 192              	.LBE3:
  32:External/Stage/Src/stage.c ****   float score = 0.f;
 193              		.loc 1 32 9 view .LVU32
 194 000c 9FED118A 		vldr.32	s16, .L18
 195              	.LBB4:
ARM GAS  /tmp/ccHLYG8v.s 			page 5


 196              		.loc 1 34 3 view .LVU33
 197 0010 0CE0     		b	.L15
 198              	.LVL9:
 199              	.L16:
  35:External/Stage/Src/stage.c ****   {
  36:External/Stage/Src/stage.c ****     score += feature_handler.calculate_vote(&self->features[i], arguments);
 200              		.loc 1 36 5 is_stmt 1 view .LVU34
 201              		.loc 1 36 29 is_stmt 0 view .LVU35
 202 0012 114B     		ldr	r3, .L18+4
 203 0014 5B68     		ldr	r3, [r3, #4]
 204              		.loc 1 36 50 view .LVU36
 205 0016 2A68     		ldr	r2, [r5]
 206              		.loc 1 36 60 view .LVU37
 207 0018 04EB8400 		add	r0, r4, r4, lsl #2
 208              		.loc 1 36 14 view .LVU38
 209 001c 3146     		mov	r1, r6
 210 001e 02EB0010 		add	r0, r2, r0, lsl #4
 211 0022 9847     		blx	r3
 212              	.LVL10:
 213              		.loc 1 36 11 discriminator 1 view .LVU39
 214 0024 38EE008A 		vadd.f32	s16, s16, s0
 215              	.LVL11:
  34:External/Stage/Src/stage.c ****   {
 216              		.loc 1 34 51 is_stmt 1 discriminator 3 view .LVU40
 217 0028 0134     		adds	r4, r4, #1
 218              	.LVL12:
  34:External/Stage/Src/stage.c ****   {
 219              		.loc 1 34 51 is_stmt 0 discriminator 3 view .LVU41
 220 002a E4B2     		uxtb	r4, r4
 221              	.LVL13:
 222              	.L15:
  34:External/Stage/Src/stage.c ****   {
 223              		.loc 1 34 25 is_stmt 1 discriminator 1 view .LVU42
  34:External/Stage/Src/stage.c ****   {
 224              		.loc 1 34 31 is_stmt 0 discriminator 1 view .LVU43
 225 002c 2B79     		ldrb	r3, [r5, #4]	@ zero_extendqisi2
  34:External/Stage/Src/stage.c ****   {
 226              		.loc 1 34 25 discriminator 1 view .LVU44
 227 002e A342     		cmp	r3, r4
 228 0030 EFD8     		bhi	.L16
 229              	.LBE4:
  37:External/Stage/Src/stage.c ****   }
  38:External/Stage/Src/stage.c **** 
  39:External/Stage/Src/stage.c ****   return (score >= (self->threshold - STAGE_EPSILON)) ? true : false;
 230              		.loc 1 39 3 is_stmt 1 view .LVU45
 231              		.loc 1 39 25 is_stmt 0 view .LVU46
 232 0032 B5F90630 		ldrsh	r3, [r5, #6]
 233              		.loc 1 39 37 view .LVU47
 234 0036 013B     		subs	r3, r3, #1
 235              		.loc 1 39 62 view .LVU48
 236 0038 07EE903A 		vmov	s15, r3	@ int
 237 003c F8EEE77A 		vcvt.f32.s32	s15, s15
 238 0040 F4EEC87A 		vcmpe.f32	s15, s16
 239 0044 F1EE10FA 		vmrs	APSR_nzcv, FPSCR
  40:External/Stage/Src/stage.c **** }
 240              		.loc 1 40 1 view .LVU49
 241 0048 94BF     		ite	ls
ARM GAS  /tmp/ccHLYG8v.s 			page 6


 242 004a 0120     		movls	r0, #1
 243 004c 0020     		movhi	r0, #0
 244 004e BDEC028B 		vldm	sp!, {d8}
 245              	.LCFI5:
 246              		.cfi_restore 80
 247              		.cfi_restore 81
 248              		.cfi_def_cfa_offset 16
 249              	.LVL14:
 250              		.loc 1 40 1 view .LVU50
 251 0052 70BD     		pop	{r4, r5, r6, pc}
 252              	.LVL15:
 253              	.L19:
 254              		.loc 1 40 1 view .LVU51
 255              		.align	2
 256              	.L18:
 257 0054 00000000 		.word	0
 258 0058 00000000 		.word	feature_handler
 259              		.cfi_endproc
 260              	.LFE3:
 262              		.section	.bss.feature_handler,"aw",%nobits
 263              		.align	2
 266              	feature_handler:
 267 0000 00000000 		.space	8
 267      00000000 
 268              		.text
 269              	.Letext0:
 270              		.file 2 "/usr/src/arm-gnu-toolchain-13.3/arm-none-eabi/include/machine/_default_types.h"
 271              		.file 3 "/usr/src/arm-gnu-toolchain-13.3/arm-none-eabi/include/sys/_stdint.h"
 272              		.file 4 "External/LBPFeature/Inc/lbp_feature_defs.h"
 273              		.file 5 "External/Stage/Inc/stage_defs.h"
ARM GAS  /tmp/ccHLYG8v.s 			page 7

