ARM GAS  /tmp/cc6qTBh5.s 			page 1


   1              		.cpu cortex-m4
   2              		.arch armv7e-m
   3              		.fpu fpv4-sp-d16
   4              		.eabi_attribute 27, 1
   5              		.eabi_attribute 28, 1
   6              		.eabi_attribute 20, 1
   7              		.eabi_attribute 21, 1
   8              		.eabi_attribute 23, 3
   9              		.eabi_attribute 24, 1
  10              		.eabi_attribute 25, 1
  11              		.eabi_attribute 26, 1
  12              		.eabi_attribute 30, 1
  13              		.eabi_attribute 34, 1
  14              		.eabi_attribute 18, 4
  15              		.file	"stm32f4xx_hal_sram.c"
  16              		.text
  17              	.Ltext0:
  18              		.cfi_sections	.debug_frame
  19              		.file 1 "Drivers/STM32F4xx_HAL_Driver/Src/stm32f4xx_hal_sram.c"
  20              		.section	.text.HAL_SRAM_MspInit,"ax",%progbits
  21              		.align	1
  22              		.weak	HAL_SRAM_MspInit
  23              		.syntax unified
  24              		.thumb
  25              		.thumb_func
  27              	HAL_SRAM_MspInit:
  28              	.LVL0:
  29              	.LFB132:
   1:Drivers/STM32F4xx_HAL_Driver/Src/stm32f4xx_hal_sram.c **** /**
   2:Drivers/STM32F4xx_HAL_Driver/Src/stm32f4xx_hal_sram.c ****   ******************************************************************************
   3:Drivers/STM32F4xx_HAL_Driver/Src/stm32f4xx_hal_sram.c ****   * @file    stm32f4xx_hal_sram.c
   4:Drivers/STM32F4xx_HAL_Driver/Src/stm32f4xx_hal_sram.c ****   * @author  MCD Application Team
   5:Drivers/STM32F4xx_HAL_Driver/Src/stm32f4xx_hal_sram.c ****   * @brief   SRAM HAL module driver.
   6:Drivers/STM32F4xx_HAL_Driver/Src/stm32f4xx_hal_sram.c ****   *          This file provides a generic firmware to drive SRAM memories
   7:Drivers/STM32F4xx_HAL_Driver/Src/stm32f4xx_hal_sram.c ****   *          mounted as external device.
   8:Drivers/STM32F4xx_HAL_Driver/Src/stm32f4xx_hal_sram.c ****   *
   9:Drivers/STM32F4xx_HAL_Driver/Src/stm32f4xx_hal_sram.c ****   ******************************************************************************
  10:Drivers/STM32F4xx_HAL_Driver/Src/stm32f4xx_hal_sram.c ****   * @attention
  11:Drivers/STM32F4xx_HAL_Driver/Src/stm32f4xx_hal_sram.c ****   *
  12:Drivers/STM32F4xx_HAL_Driver/Src/stm32f4xx_hal_sram.c ****   * Copyright (c) 2016 STMicroelectronics.
  13:Drivers/STM32F4xx_HAL_Driver/Src/stm32f4xx_hal_sram.c ****   * All rights reserved.
  14:Drivers/STM32F4xx_HAL_Driver/Src/stm32f4xx_hal_sram.c ****   *
  15:Drivers/STM32F4xx_HAL_Driver/Src/stm32f4xx_hal_sram.c ****   * This software is licensed under terms that can be found in the LICENSE file
  16:Drivers/STM32F4xx_HAL_Driver/Src/stm32f4xx_hal_sram.c ****   * in the root directory of this software component.
  17:Drivers/STM32F4xx_HAL_Driver/Src/stm32f4xx_hal_sram.c ****   * If no LICENSE file comes with this software, it is provided AS-IS.
  18:Drivers/STM32F4xx_HAL_Driver/Src/stm32f4xx_hal_sram.c ****   *
  19:Drivers/STM32F4xx_HAL_Driver/Src/stm32f4xx_hal_sram.c ****   ******************************************************************************
  20:Drivers/STM32F4xx_HAL_Driver/Src/stm32f4xx_hal_sram.c ****   @verbatim
  21:Drivers/STM32F4xx_HAL_Driver/Src/stm32f4xx_hal_sram.c ****   ==============================================================================
  22:Drivers/STM32F4xx_HAL_Driver/Src/stm32f4xx_hal_sram.c ****                           ##### How to use this driver #####
  23:Drivers/STM32F4xx_HAL_Driver/Src/stm32f4xx_hal_sram.c ****   ==============================================================================
  24:Drivers/STM32F4xx_HAL_Driver/Src/stm32f4xx_hal_sram.c ****   [..]
  25:Drivers/STM32F4xx_HAL_Driver/Src/stm32f4xx_hal_sram.c ****     This driver is a generic layered driver which contains a set of APIs used to
  26:Drivers/STM32F4xx_HAL_Driver/Src/stm32f4xx_hal_sram.c ****     control SRAM memories. It uses the FMC layer functions to interface
  27:Drivers/STM32F4xx_HAL_Driver/Src/stm32f4xx_hal_sram.c ****     with SRAM devices.
  28:Drivers/STM32F4xx_HAL_Driver/Src/stm32f4xx_hal_sram.c ****     The following sequence should be followed to configure the FMC/FSMC to interface
  29:Drivers/STM32F4xx_HAL_Driver/Src/stm32f4xx_hal_sram.c ****     with SRAM/PSRAM memories:
ARM GAS  /tmp/cc6qTBh5.s 			page 2


  30:Drivers/STM32F4xx_HAL_Driver/Src/stm32f4xx_hal_sram.c **** 
  31:Drivers/STM32F4xx_HAL_Driver/Src/stm32f4xx_hal_sram.c ****    (#) Declare a SRAM_HandleTypeDef handle structure, for example:
  32:Drivers/STM32F4xx_HAL_Driver/Src/stm32f4xx_hal_sram.c ****           SRAM_HandleTypeDef  hsram; and:
  33:Drivers/STM32F4xx_HAL_Driver/Src/stm32f4xx_hal_sram.c **** 
  34:Drivers/STM32F4xx_HAL_Driver/Src/stm32f4xx_hal_sram.c ****        (++) Fill the SRAM_HandleTypeDef handle "Init" field with the allowed
  35:Drivers/STM32F4xx_HAL_Driver/Src/stm32f4xx_hal_sram.c ****             values of the structure member.
  36:Drivers/STM32F4xx_HAL_Driver/Src/stm32f4xx_hal_sram.c **** 
  37:Drivers/STM32F4xx_HAL_Driver/Src/stm32f4xx_hal_sram.c ****        (++) Fill the SRAM_HandleTypeDef handle "Instance" field with a predefined
  38:Drivers/STM32F4xx_HAL_Driver/Src/stm32f4xx_hal_sram.c ****             base register instance for NOR or SRAM device
  39:Drivers/STM32F4xx_HAL_Driver/Src/stm32f4xx_hal_sram.c **** 
  40:Drivers/STM32F4xx_HAL_Driver/Src/stm32f4xx_hal_sram.c ****        (++) Fill the SRAM_HandleTypeDef handle "Extended" field with a predefined
  41:Drivers/STM32F4xx_HAL_Driver/Src/stm32f4xx_hal_sram.c ****             base register instance for NOR or SRAM extended mode
  42:Drivers/STM32F4xx_HAL_Driver/Src/stm32f4xx_hal_sram.c **** 
  43:Drivers/STM32F4xx_HAL_Driver/Src/stm32f4xx_hal_sram.c ****    (#) Declare two FMC_NORSRAM_TimingTypeDef structures, for both normal and extended
  44:Drivers/STM32F4xx_HAL_Driver/Src/stm32f4xx_hal_sram.c ****        mode timings; for example:
  45:Drivers/STM32F4xx_HAL_Driver/Src/stm32f4xx_hal_sram.c ****           FMC_NORSRAM_TimingTypeDef  Timing and FMC_NORSRAM_TimingTypeDef  ExTiming;
  46:Drivers/STM32F4xx_HAL_Driver/Src/stm32f4xx_hal_sram.c ****       and fill its fields with the allowed values of the structure member.
  47:Drivers/STM32F4xx_HAL_Driver/Src/stm32f4xx_hal_sram.c **** 
  48:Drivers/STM32F4xx_HAL_Driver/Src/stm32f4xx_hal_sram.c ****    (#) Initialize the SRAM Controller by calling the function HAL_SRAM_Init(). This function
  49:Drivers/STM32F4xx_HAL_Driver/Src/stm32f4xx_hal_sram.c ****        performs the following sequence:
  50:Drivers/STM32F4xx_HAL_Driver/Src/stm32f4xx_hal_sram.c **** 
  51:Drivers/STM32F4xx_HAL_Driver/Src/stm32f4xx_hal_sram.c ****        (##) MSP hardware layer configuration using the function HAL_SRAM_MspInit()
  52:Drivers/STM32F4xx_HAL_Driver/Src/stm32f4xx_hal_sram.c ****        (##) Control register configuration using the FMC NORSRAM interface function
  53:Drivers/STM32F4xx_HAL_Driver/Src/stm32f4xx_hal_sram.c ****             FMC_NORSRAM_Init()
  54:Drivers/STM32F4xx_HAL_Driver/Src/stm32f4xx_hal_sram.c ****        (##) Timing register configuration using the FMC NORSRAM interface function
  55:Drivers/STM32F4xx_HAL_Driver/Src/stm32f4xx_hal_sram.c ****             FMC_NORSRAM_Timing_Init()
  56:Drivers/STM32F4xx_HAL_Driver/Src/stm32f4xx_hal_sram.c ****        (##) Extended mode Timing register configuration using the FMC NORSRAM interface function
  57:Drivers/STM32F4xx_HAL_Driver/Src/stm32f4xx_hal_sram.c ****             FMC_NORSRAM_Extended_Timing_Init()
  58:Drivers/STM32F4xx_HAL_Driver/Src/stm32f4xx_hal_sram.c ****        (##) Enable the SRAM device using the macro __FMC_NORSRAM_ENABLE()
  59:Drivers/STM32F4xx_HAL_Driver/Src/stm32f4xx_hal_sram.c **** 
  60:Drivers/STM32F4xx_HAL_Driver/Src/stm32f4xx_hal_sram.c ****    (#) At this stage you can perform read/write accesses from/to the memory connected
  61:Drivers/STM32F4xx_HAL_Driver/Src/stm32f4xx_hal_sram.c ****        to the NOR/SRAM Bank. You can perform either polling or DMA transfer using the
  62:Drivers/STM32F4xx_HAL_Driver/Src/stm32f4xx_hal_sram.c ****        following APIs:
  63:Drivers/STM32F4xx_HAL_Driver/Src/stm32f4xx_hal_sram.c ****        (++) HAL_SRAM_Read()/HAL_SRAM_Write() for polling read/write access
  64:Drivers/STM32F4xx_HAL_Driver/Src/stm32f4xx_hal_sram.c ****        (++) HAL_SRAM_Read_DMA()/HAL_SRAM_Write_DMA() for DMA read/write transfer
  65:Drivers/STM32F4xx_HAL_Driver/Src/stm32f4xx_hal_sram.c **** 
  66:Drivers/STM32F4xx_HAL_Driver/Src/stm32f4xx_hal_sram.c ****    (#) You can also control the SRAM device by calling the control APIs HAL_SRAM_WriteOperation_Ena
  67:Drivers/STM32F4xx_HAL_Driver/Src/stm32f4xx_hal_sram.c ****        HAL_SRAM_WriteOperation_Disable() to respectively enable/disable the SRAM write operation
  68:Drivers/STM32F4xx_HAL_Driver/Src/stm32f4xx_hal_sram.c **** 
  69:Drivers/STM32F4xx_HAL_Driver/Src/stm32f4xx_hal_sram.c ****    (#) You can continuously monitor the SRAM device HAL state by calling the function
  70:Drivers/STM32F4xx_HAL_Driver/Src/stm32f4xx_hal_sram.c ****        HAL_SRAM_GetState()
  71:Drivers/STM32F4xx_HAL_Driver/Src/stm32f4xx_hal_sram.c **** 
  72:Drivers/STM32F4xx_HAL_Driver/Src/stm32f4xx_hal_sram.c ****        *** Callback registration ***
  73:Drivers/STM32F4xx_HAL_Driver/Src/stm32f4xx_hal_sram.c ****     =============================================
  74:Drivers/STM32F4xx_HAL_Driver/Src/stm32f4xx_hal_sram.c ****     [..]
  75:Drivers/STM32F4xx_HAL_Driver/Src/stm32f4xx_hal_sram.c ****       The compilation define  USE_HAL_SRAM_REGISTER_CALLBACKS when set to 1
  76:Drivers/STM32F4xx_HAL_Driver/Src/stm32f4xx_hal_sram.c ****       allows the user to configure dynamically the driver callbacks.
  77:Drivers/STM32F4xx_HAL_Driver/Src/stm32f4xx_hal_sram.c **** 
  78:Drivers/STM32F4xx_HAL_Driver/Src/stm32f4xx_hal_sram.c ****       Use Functions HAL_SRAM_RegisterCallback() to register a user callback,
  79:Drivers/STM32F4xx_HAL_Driver/Src/stm32f4xx_hal_sram.c ****       it allows to register following callbacks:
  80:Drivers/STM32F4xx_HAL_Driver/Src/stm32f4xx_hal_sram.c ****         (+) MspInitCallback    : SRAM MspInit.
  81:Drivers/STM32F4xx_HAL_Driver/Src/stm32f4xx_hal_sram.c ****         (+) MspDeInitCallback  : SRAM MspDeInit.
  82:Drivers/STM32F4xx_HAL_Driver/Src/stm32f4xx_hal_sram.c ****       This function takes as parameters the HAL peripheral handle, the Callback ID
  83:Drivers/STM32F4xx_HAL_Driver/Src/stm32f4xx_hal_sram.c ****       and a pointer to the user callback function.
  84:Drivers/STM32F4xx_HAL_Driver/Src/stm32f4xx_hal_sram.c **** 
  85:Drivers/STM32F4xx_HAL_Driver/Src/stm32f4xx_hal_sram.c ****       Use function HAL_SRAM_UnRegisterCallback() to reset a callback to the default
  86:Drivers/STM32F4xx_HAL_Driver/Src/stm32f4xx_hal_sram.c ****       weak (surcharged) function. It allows to reset following callbacks:
ARM GAS  /tmp/cc6qTBh5.s 			page 3


  87:Drivers/STM32F4xx_HAL_Driver/Src/stm32f4xx_hal_sram.c ****         (+) MspInitCallback    : SRAM MspInit.
  88:Drivers/STM32F4xx_HAL_Driver/Src/stm32f4xx_hal_sram.c ****         (+) MspDeInitCallback  : SRAM MspDeInit.
  89:Drivers/STM32F4xx_HAL_Driver/Src/stm32f4xx_hal_sram.c ****       This function) takes as parameters the HAL peripheral handle and the Callback ID.
  90:Drivers/STM32F4xx_HAL_Driver/Src/stm32f4xx_hal_sram.c **** 
  91:Drivers/STM32F4xx_HAL_Driver/Src/stm32f4xx_hal_sram.c ****       By default, after the HAL_SRAM_Init and if the state is HAL_SRAM_STATE_RESET
  92:Drivers/STM32F4xx_HAL_Driver/Src/stm32f4xx_hal_sram.c ****       all callbacks are reset to the corresponding legacy weak (surcharged) functions.
  93:Drivers/STM32F4xx_HAL_Driver/Src/stm32f4xx_hal_sram.c ****       Exception done for MspInit and MspDeInit callbacks that are respectively
  94:Drivers/STM32F4xx_HAL_Driver/Src/stm32f4xx_hal_sram.c ****       reset to the legacy weak (surcharged) functions in the HAL_SRAM_Init
  95:Drivers/STM32F4xx_HAL_Driver/Src/stm32f4xx_hal_sram.c ****       and  HAL_SRAM_DeInit only when these callbacks are null (not registered beforehand).
  96:Drivers/STM32F4xx_HAL_Driver/Src/stm32f4xx_hal_sram.c ****       If not, MspInit or MspDeInit are not null, the HAL_SRAM_Init and HAL_SRAM_DeInit
  97:Drivers/STM32F4xx_HAL_Driver/Src/stm32f4xx_hal_sram.c ****       keep and use the user MspInit/MspDeInit callbacks (registered beforehand)
  98:Drivers/STM32F4xx_HAL_Driver/Src/stm32f4xx_hal_sram.c **** 
  99:Drivers/STM32F4xx_HAL_Driver/Src/stm32f4xx_hal_sram.c ****       Callbacks can be registered/unregistered in READY state only.
 100:Drivers/STM32F4xx_HAL_Driver/Src/stm32f4xx_hal_sram.c ****       Exception done for MspInit/MspDeInit callbacks that can be registered/unregistered
 101:Drivers/STM32F4xx_HAL_Driver/Src/stm32f4xx_hal_sram.c ****       in READY or RESET state, thus registered (user) MspInit/DeInit callbacks can be used
 102:Drivers/STM32F4xx_HAL_Driver/Src/stm32f4xx_hal_sram.c ****       during the Init/DeInit.
 103:Drivers/STM32F4xx_HAL_Driver/Src/stm32f4xx_hal_sram.c ****       In that case first register the MspInit/MspDeInit user callbacks
 104:Drivers/STM32F4xx_HAL_Driver/Src/stm32f4xx_hal_sram.c ****       using HAL_SRAM_RegisterCallback before calling HAL_SRAM_DeInit
 105:Drivers/STM32F4xx_HAL_Driver/Src/stm32f4xx_hal_sram.c ****       or HAL_SRAM_Init function.
 106:Drivers/STM32F4xx_HAL_Driver/Src/stm32f4xx_hal_sram.c **** 
 107:Drivers/STM32F4xx_HAL_Driver/Src/stm32f4xx_hal_sram.c ****       When The compilation define USE_HAL_SRAM_REGISTER_CALLBACKS is set to 0 or
 108:Drivers/STM32F4xx_HAL_Driver/Src/stm32f4xx_hal_sram.c ****       not defined, the callback registering feature is not available
 109:Drivers/STM32F4xx_HAL_Driver/Src/stm32f4xx_hal_sram.c ****       and weak (surcharged) callbacks are used.
 110:Drivers/STM32F4xx_HAL_Driver/Src/stm32f4xx_hal_sram.c **** 
 111:Drivers/STM32F4xx_HAL_Driver/Src/stm32f4xx_hal_sram.c ****   @endverbatim
 112:Drivers/STM32F4xx_HAL_Driver/Src/stm32f4xx_hal_sram.c ****   ******************************************************************************
 113:Drivers/STM32F4xx_HAL_Driver/Src/stm32f4xx_hal_sram.c ****   */
 114:Drivers/STM32F4xx_HAL_Driver/Src/stm32f4xx_hal_sram.c **** 
 115:Drivers/STM32F4xx_HAL_Driver/Src/stm32f4xx_hal_sram.c **** /* Includes ------------------------------------------------------------------*/
 116:Drivers/STM32F4xx_HAL_Driver/Src/stm32f4xx_hal_sram.c **** #include "stm32f4xx_hal.h"
 117:Drivers/STM32F4xx_HAL_Driver/Src/stm32f4xx_hal_sram.c **** 
 118:Drivers/STM32F4xx_HAL_Driver/Src/stm32f4xx_hal_sram.c **** #if defined(FMC_Bank1) || defined(FSMC_Bank1)
 119:Drivers/STM32F4xx_HAL_Driver/Src/stm32f4xx_hal_sram.c **** 
 120:Drivers/STM32F4xx_HAL_Driver/Src/stm32f4xx_hal_sram.c **** /** @addtogroup STM32F4xx_HAL_Driver
 121:Drivers/STM32F4xx_HAL_Driver/Src/stm32f4xx_hal_sram.c ****   * @{
 122:Drivers/STM32F4xx_HAL_Driver/Src/stm32f4xx_hal_sram.c ****   */
 123:Drivers/STM32F4xx_HAL_Driver/Src/stm32f4xx_hal_sram.c **** 
 124:Drivers/STM32F4xx_HAL_Driver/Src/stm32f4xx_hal_sram.c **** #ifdef HAL_SRAM_MODULE_ENABLED
 125:Drivers/STM32F4xx_HAL_Driver/Src/stm32f4xx_hal_sram.c **** 
 126:Drivers/STM32F4xx_HAL_Driver/Src/stm32f4xx_hal_sram.c **** /** @defgroup SRAM SRAM
 127:Drivers/STM32F4xx_HAL_Driver/Src/stm32f4xx_hal_sram.c ****   * @brief SRAM driver modules
 128:Drivers/STM32F4xx_HAL_Driver/Src/stm32f4xx_hal_sram.c ****   * @{
 129:Drivers/STM32F4xx_HAL_Driver/Src/stm32f4xx_hal_sram.c ****   */
 130:Drivers/STM32F4xx_HAL_Driver/Src/stm32f4xx_hal_sram.c **** 
 131:Drivers/STM32F4xx_HAL_Driver/Src/stm32f4xx_hal_sram.c **** /* Private typedef -----------------------------------------------------------*/
 132:Drivers/STM32F4xx_HAL_Driver/Src/stm32f4xx_hal_sram.c **** /* Private define ------------------------------------------------------------*/
 133:Drivers/STM32F4xx_HAL_Driver/Src/stm32f4xx_hal_sram.c **** /* Private macro -------------------------------------------------------------*/
 134:Drivers/STM32F4xx_HAL_Driver/Src/stm32f4xx_hal_sram.c **** /* Private variables ---------------------------------------------------------*/
 135:Drivers/STM32F4xx_HAL_Driver/Src/stm32f4xx_hal_sram.c **** /* Private function prototypes -----------------------------------------------*/
 136:Drivers/STM32F4xx_HAL_Driver/Src/stm32f4xx_hal_sram.c **** static void SRAM_DMACplt(DMA_HandleTypeDef *hdma);
 137:Drivers/STM32F4xx_HAL_Driver/Src/stm32f4xx_hal_sram.c **** static void SRAM_DMACpltProt(DMA_HandleTypeDef *hdma);
 138:Drivers/STM32F4xx_HAL_Driver/Src/stm32f4xx_hal_sram.c **** static void SRAM_DMAError(DMA_HandleTypeDef *hdma);
 139:Drivers/STM32F4xx_HAL_Driver/Src/stm32f4xx_hal_sram.c **** 
 140:Drivers/STM32F4xx_HAL_Driver/Src/stm32f4xx_hal_sram.c **** /* Exported functions --------------------------------------------------------*/
 141:Drivers/STM32F4xx_HAL_Driver/Src/stm32f4xx_hal_sram.c **** 
 142:Drivers/STM32F4xx_HAL_Driver/Src/stm32f4xx_hal_sram.c **** /** @defgroup SRAM_Exported_Functions SRAM Exported Functions
 143:Drivers/STM32F4xx_HAL_Driver/Src/stm32f4xx_hal_sram.c ****   * @{
ARM GAS  /tmp/cc6qTBh5.s 			page 4


 144:Drivers/STM32F4xx_HAL_Driver/Src/stm32f4xx_hal_sram.c ****   */
 145:Drivers/STM32F4xx_HAL_Driver/Src/stm32f4xx_hal_sram.c **** 
 146:Drivers/STM32F4xx_HAL_Driver/Src/stm32f4xx_hal_sram.c **** /** @defgroup SRAM_Exported_Functions_Group1 Initialization and de-initialization functions
 147:Drivers/STM32F4xx_HAL_Driver/Src/stm32f4xx_hal_sram.c ****   * @brief    Initialization and Configuration functions.
 148:Drivers/STM32F4xx_HAL_Driver/Src/stm32f4xx_hal_sram.c ****   *
 149:Drivers/STM32F4xx_HAL_Driver/Src/stm32f4xx_hal_sram.c ****   @verbatim
 150:Drivers/STM32F4xx_HAL_Driver/Src/stm32f4xx_hal_sram.c ****   ==============================================================================
 151:Drivers/STM32F4xx_HAL_Driver/Src/stm32f4xx_hal_sram.c ****            ##### SRAM Initialization and de_initialization functions #####
 152:Drivers/STM32F4xx_HAL_Driver/Src/stm32f4xx_hal_sram.c ****   ==============================================================================
 153:Drivers/STM32F4xx_HAL_Driver/Src/stm32f4xx_hal_sram.c ****     [..]  This section provides functions allowing to initialize/de-initialize
 154:Drivers/STM32F4xx_HAL_Driver/Src/stm32f4xx_hal_sram.c ****           the SRAM memory
 155:Drivers/STM32F4xx_HAL_Driver/Src/stm32f4xx_hal_sram.c **** 
 156:Drivers/STM32F4xx_HAL_Driver/Src/stm32f4xx_hal_sram.c **** @endverbatim
 157:Drivers/STM32F4xx_HAL_Driver/Src/stm32f4xx_hal_sram.c ****   * @{
 158:Drivers/STM32F4xx_HAL_Driver/Src/stm32f4xx_hal_sram.c ****   */
 159:Drivers/STM32F4xx_HAL_Driver/Src/stm32f4xx_hal_sram.c **** 
 160:Drivers/STM32F4xx_HAL_Driver/Src/stm32f4xx_hal_sram.c **** /**
 161:Drivers/STM32F4xx_HAL_Driver/Src/stm32f4xx_hal_sram.c ****   * @brief  Performs the SRAM device initialization sequence
 162:Drivers/STM32F4xx_HAL_Driver/Src/stm32f4xx_hal_sram.c ****   * @param  hsram pointer to a SRAM_HandleTypeDef structure that contains
 163:Drivers/STM32F4xx_HAL_Driver/Src/stm32f4xx_hal_sram.c ****   *                the configuration information for SRAM module.
 164:Drivers/STM32F4xx_HAL_Driver/Src/stm32f4xx_hal_sram.c ****   * @param  Timing Pointer to SRAM control timing structure
 165:Drivers/STM32F4xx_HAL_Driver/Src/stm32f4xx_hal_sram.c ****   * @param  ExtTiming Pointer to SRAM extended mode timing structure
 166:Drivers/STM32F4xx_HAL_Driver/Src/stm32f4xx_hal_sram.c ****   * @retval HAL status
 167:Drivers/STM32F4xx_HAL_Driver/Src/stm32f4xx_hal_sram.c ****   */
 168:Drivers/STM32F4xx_HAL_Driver/Src/stm32f4xx_hal_sram.c **** HAL_StatusTypeDef HAL_SRAM_Init(SRAM_HandleTypeDef *hsram, FMC_NORSRAM_TimingTypeDef *Timing,
 169:Drivers/STM32F4xx_HAL_Driver/Src/stm32f4xx_hal_sram.c ****                                 FMC_NORSRAM_TimingTypeDef *ExtTiming)
 170:Drivers/STM32F4xx_HAL_Driver/Src/stm32f4xx_hal_sram.c **** {
 171:Drivers/STM32F4xx_HAL_Driver/Src/stm32f4xx_hal_sram.c ****   /* Check the SRAM handle parameter */
 172:Drivers/STM32F4xx_HAL_Driver/Src/stm32f4xx_hal_sram.c ****   if (hsram == NULL)
 173:Drivers/STM32F4xx_HAL_Driver/Src/stm32f4xx_hal_sram.c ****   {
 174:Drivers/STM32F4xx_HAL_Driver/Src/stm32f4xx_hal_sram.c ****     return HAL_ERROR;
 175:Drivers/STM32F4xx_HAL_Driver/Src/stm32f4xx_hal_sram.c ****   }
 176:Drivers/STM32F4xx_HAL_Driver/Src/stm32f4xx_hal_sram.c **** 
 177:Drivers/STM32F4xx_HAL_Driver/Src/stm32f4xx_hal_sram.c ****   if (hsram->State == HAL_SRAM_STATE_RESET)
 178:Drivers/STM32F4xx_HAL_Driver/Src/stm32f4xx_hal_sram.c ****   {
 179:Drivers/STM32F4xx_HAL_Driver/Src/stm32f4xx_hal_sram.c ****     /* Allocate lock resource and initialize it */
 180:Drivers/STM32F4xx_HAL_Driver/Src/stm32f4xx_hal_sram.c ****     hsram->Lock = HAL_UNLOCKED;
 181:Drivers/STM32F4xx_HAL_Driver/Src/stm32f4xx_hal_sram.c **** 
 182:Drivers/STM32F4xx_HAL_Driver/Src/stm32f4xx_hal_sram.c **** #if (USE_HAL_SRAM_REGISTER_CALLBACKS == 1)
 183:Drivers/STM32F4xx_HAL_Driver/Src/stm32f4xx_hal_sram.c ****     if (hsram->MspInitCallback == NULL)
 184:Drivers/STM32F4xx_HAL_Driver/Src/stm32f4xx_hal_sram.c ****     {
 185:Drivers/STM32F4xx_HAL_Driver/Src/stm32f4xx_hal_sram.c ****       hsram->MspInitCallback = HAL_SRAM_MspInit;
 186:Drivers/STM32F4xx_HAL_Driver/Src/stm32f4xx_hal_sram.c ****     }
 187:Drivers/STM32F4xx_HAL_Driver/Src/stm32f4xx_hal_sram.c ****     hsram->DmaXferCpltCallback = HAL_SRAM_DMA_XferCpltCallback;
 188:Drivers/STM32F4xx_HAL_Driver/Src/stm32f4xx_hal_sram.c ****     hsram->DmaXferErrorCallback = HAL_SRAM_DMA_XferErrorCallback;
 189:Drivers/STM32F4xx_HAL_Driver/Src/stm32f4xx_hal_sram.c **** 
 190:Drivers/STM32F4xx_HAL_Driver/Src/stm32f4xx_hal_sram.c ****     /* Init the low level hardware */
 191:Drivers/STM32F4xx_HAL_Driver/Src/stm32f4xx_hal_sram.c ****     hsram->MspInitCallback(hsram);
 192:Drivers/STM32F4xx_HAL_Driver/Src/stm32f4xx_hal_sram.c **** #else
 193:Drivers/STM32F4xx_HAL_Driver/Src/stm32f4xx_hal_sram.c ****     /* Initialize the low level hardware (MSP) */
 194:Drivers/STM32F4xx_HAL_Driver/Src/stm32f4xx_hal_sram.c ****     HAL_SRAM_MspInit(hsram);
 195:Drivers/STM32F4xx_HAL_Driver/Src/stm32f4xx_hal_sram.c **** #endif /* USE_HAL_SRAM_REGISTER_CALLBACKS */
 196:Drivers/STM32F4xx_HAL_Driver/Src/stm32f4xx_hal_sram.c ****   }
 197:Drivers/STM32F4xx_HAL_Driver/Src/stm32f4xx_hal_sram.c **** 
 198:Drivers/STM32F4xx_HAL_Driver/Src/stm32f4xx_hal_sram.c ****   /* Initialize SRAM control Interface */
 199:Drivers/STM32F4xx_HAL_Driver/Src/stm32f4xx_hal_sram.c ****   (void)FMC_NORSRAM_Init(hsram->Instance, &(hsram->Init));
 200:Drivers/STM32F4xx_HAL_Driver/Src/stm32f4xx_hal_sram.c **** 
ARM GAS  /tmp/cc6qTBh5.s 			page 5


 201:Drivers/STM32F4xx_HAL_Driver/Src/stm32f4xx_hal_sram.c ****   /* Initialize SRAM timing Interface */
 202:Drivers/STM32F4xx_HAL_Driver/Src/stm32f4xx_hal_sram.c ****   (void)FMC_NORSRAM_Timing_Init(hsram->Instance, Timing, hsram->Init.NSBank);
 203:Drivers/STM32F4xx_HAL_Driver/Src/stm32f4xx_hal_sram.c **** 
 204:Drivers/STM32F4xx_HAL_Driver/Src/stm32f4xx_hal_sram.c ****   /* Initialize SRAM extended mode timing Interface */
 205:Drivers/STM32F4xx_HAL_Driver/Src/stm32f4xx_hal_sram.c ****   (void)FMC_NORSRAM_Extended_Timing_Init(hsram->Extended, ExtTiming, hsram->Init.NSBank,
 206:Drivers/STM32F4xx_HAL_Driver/Src/stm32f4xx_hal_sram.c ****                                          hsram->Init.ExtendedMode);
 207:Drivers/STM32F4xx_HAL_Driver/Src/stm32f4xx_hal_sram.c **** 
 208:Drivers/STM32F4xx_HAL_Driver/Src/stm32f4xx_hal_sram.c ****   /* Enable the NORSRAM device */
 209:Drivers/STM32F4xx_HAL_Driver/Src/stm32f4xx_hal_sram.c ****   __FMC_NORSRAM_ENABLE(hsram->Instance, hsram->Init.NSBank);
 210:Drivers/STM32F4xx_HAL_Driver/Src/stm32f4xx_hal_sram.c **** 
 211:Drivers/STM32F4xx_HAL_Driver/Src/stm32f4xx_hal_sram.c ****   /* Initialize the SRAM controller state */
 212:Drivers/STM32F4xx_HAL_Driver/Src/stm32f4xx_hal_sram.c ****   hsram->State = HAL_SRAM_STATE_READY;
 213:Drivers/STM32F4xx_HAL_Driver/Src/stm32f4xx_hal_sram.c **** 
 214:Drivers/STM32F4xx_HAL_Driver/Src/stm32f4xx_hal_sram.c ****   return HAL_OK;
 215:Drivers/STM32F4xx_HAL_Driver/Src/stm32f4xx_hal_sram.c **** }
 216:Drivers/STM32F4xx_HAL_Driver/Src/stm32f4xx_hal_sram.c **** 
 217:Drivers/STM32F4xx_HAL_Driver/Src/stm32f4xx_hal_sram.c **** /**
 218:Drivers/STM32F4xx_HAL_Driver/Src/stm32f4xx_hal_sram.c ****   * @brief  Performs the SRAM device De-initialization sequence.
 219:Drivers/STM32F4xx_HAL_Driver/Src/stm32f4xx_hal_sram.c ****   * @param  hsram pointer to a SRAM_HandleTypeDef structure that contains
 220:Drivers/STM32F4xx_HAL_Driver/Src/stm32f4xx_hal_sram.c ****   *                the configuration information for SRAM module.
 221:Drivers/STM32F4xx_HAL_Driver/Src/stm32f4xx_hal_sram.c ****   * @retval HAL status
 222:Drivers/STM32F4xx_HAL_Driver/Src/stm32f4xx_hal_sram.c ****   */
 223:Drivers/STM32F4xx_HAL_Driver/Src/stm32f4xx_hal_sram.c **** HAL_StatusTypeDef HAL_SRAM_DeInit(SRAM_HandleTypeDef *hsram)
 224:Drivers/STM32F4xx_HAL_Driver/Src/stm32f4xx_hal_sram.c **** {
 225:Drivers/STM32F4xx_HAL_Driver/Src/stm32f4xx_hal_sram.c **** #if (USE_HAL_SRAM_REGISTER_CALLBACKS == 1)
 226:Drivers/STM32F4xx_HAL_Driver/Src/stm32f4xx_hal_sram.c ****   if (hsram->MspDeInitCallback == NULL)
 227:Drivers/STM32F4xx_HAL_Driver/Src/stm32f4xx_hal_sram.c ****   {
 228:Drivers/STM32F4xx_HAL_Driver/Src/stm32f4xx_hal_sram.c ****     hsram->MspDeInitCallback = HAL_SRAM_MspDeInit;
 229:Drivers/STM32F4xx_HAL_Driver/Src/stm32f4xx_hal_sram.c ****   }
 230:Drivers/STM32F4xx_HAL_Driver/Src/stm32f4xx_hal_sram.c **** 
 231:Drivers/STM32F4xx_HAL_Driver/Src/stm32f4xx_hal_sram.c ****   /* DeInit the low level hardware */
 232:Drivers/STM32F4xx_HAL_Driver/Src/stm32f4xx_hal_sram.c ****   hsram->MspDeInitCallback(hsram);
 233:Drivers/STM32F4xx_HAL_Driver/Src/stm32f4xx_hal_sram.c **** #else
 234:Drivers/STM32F4xx_HAL_Driver/Src/stm32f4xx_hal_sram.c ****   /* De-Initialize the low level hardware (MSP) */
 235:Drivers/STM32F4xx_HAL_Driver/Src/stm32f4xx_hal_sram.c ****   HAL_SRAM_MspDeInit(hsram);
 236:Drivers/STM32F4xx_HAL_Driver/Src/stm32f4xx_hal_sram.c **** #endif /* USE_HAL_SRAM_REGISTER_CALLBACKS */
 237:Drivers/STM32F4xx_HAL_Driver/Src/stm32f4xx_hal_sram.c **** 
 238:Drivers/STM32F4xx_HAL_Driver/Src/stm32f4xx_hal_sram.c ****   /* Configure the SRAM registers with their reset values */
 239:Drivers/STM32F4xx_HAL_Driver/Src/stm32f4xx_hal_sram.c ****   (void)FMC_NORSRAM_DeInit(hsram->Instance, hsram->Extended, hsram->Init.NSBank);
 240:Drivers/STM32F4xx_HAL_Driver/Src/stm32f4xx_hal_sram.c **** 
 241:Drivers/STM32F4xx_HAL_Driver/Src/stm32f4xx_hal_sram.c ****   /* Reset the SRAM controller state */
 242:Drivers/STM32F4xx_HAL_Driver/Src/stm32f4xx_hal_sram.c ****   hsram->State = HAL_SRAM_STATE_RESET;
 243:Drivers/STM32F4xx_HAL_Driver/Src/stm32f4xx_hal_sram.c **** 
 244:Drivers/STM32F4xx_HAL_Driver/Src/stm32f4xx_hal_sram.c ****   /* Release Lock */
 245:Drivers/STM32F4xx_HAL_Driver/Src/stm32f4xx_hal_sram.c ****   __HAL_UNLOCK(hsram);
 246:Drivers/STM32F4xx_HAL_Driver/Src/stm32f4xx_hal_sram.c **** 
 247:Drivers/STM32F4xx_HAL_Driver/Src/stm32f4xx_hal_sram.c ****   return HAL_OK;
 248:Drivers/STM32F4xx_HAL_Driver/Src/stm32f4xx_hal_sram.c **** }
 249:Drivers/STM32F4xx_HAL_Driver/Src/stm32f4xx_hal_sram.c **** 
 250:Drivers/STM32F4xx_HAL_Driver/Src/stm32f4xx_hal_sram.c **** /**
 251:Drivers/STM32F4xx_HAL_Driver/Src/stm32f4xx_hal_sram.c ****   * @brief  SRAM MSP Init.
 252:Drivers/STM32F4xx_HAL_Driver/Src/stm32f4xx_hal_sram.c ****   * @param  hsram pointer to a SRAM_HandleTypeDef structure that contains
 253:Drivers/STM32F4xx_HAL_Driver/Src/stm32f4xx_hal_sram.c ****   *                the configuration information for SRAM module.
 254:Drivers/STM32F4xx_HAL_Driver/Src/stm32f4xx_hal_sram.c ****   * @retval None
 255:Drivers/STM32F4xx_HAL_Driver/Src/stm32f4xx_hal_sram.c ****   */
 256:Drivers/STM32F4xx_HAL_Driver/Src/stm32f4xx_hal_sram.c **** __weak void HAL_SRAM_MspInit(SRAM_HandleTypeDef *hsram)
 257:Drivers/STM32F4xx_HAL_Driver/Src/stm32f4xx_hal_sram.c **** {
ARM GAS  /tmp/cc6qTBh5.s 			page 6


  30              		.loc 1 257 1 view -0
  31              		.cfi_startproc
  32              		@ args = 0, pretend = 0, frame = 0
  33              		@ frame_needed = 0, uses_anonymous_args = 0
  34              		@ link register save eliminated.
 258:Drivers/STM32F4xx_HAL_Driver/Src/stm32f4xx_hal_sram.c ****   /* Prevent unused argument(s) compilation warning */
 259:Drivers/STM32F4xx_HAL_Driver/Src/stm32f4xx_hal_sram.c ****   UNUSED(hsram);
  35              		.loc 1 259 3 view .LVU1
 260:Drivers/STM32F4xx_HAL_Driver/Src/stm32f4xx_hal_sram.c **** 
 261:Drivers/STM32F4xx_HAL_Driver/Src/stm32f4xx_hal_sram.c ****   /* NOTE : This function Should not be modified, when the callback is needed,
 262:Drivers/STM32F4xx_HAL_Driver/Src/stm32f4xx_hal_sram.c ****             the HAL_SRAM_MspInit could be implemented in the user file
 263:Drivers/STM32F4xx_HAL_Driver/Src/stm32f4xx_hal_sram.c ****    */
 264:Drivers/STM32F4xx_HAL_Driver/Src/stm32f4xx_hal_sram.c **** }
  36              		.loc 1 264 1 is_stmt 0 view .LVU2
  37 0000 7047     		bx	lr
  38              		.cfi_endproc
  39              	.LFE132:
  41              		.section	.text.HAL_SRAM_Init,"ax",%progbits
  42              		.align	1
  43              		.global	HAL_SRAM_Init
  44              		.syntax unified
  45              		.thumb
  46              		.thumb_func
  48              	HAL_SRAM_Init:
  49              	.LVL1:
  50              	.LFB130:
 170:Drivers/STM32F4xx_HAL_Driver/Src/stm32f4xx_hal_sram.c ****   /* Check the SRAM handle parameter */
  51              		.loc 1 170 1 is_stmt 1 view -0
  52              		.cfi_startproc
  53              		@ args = 0, pretend = 0, frame = 0
  54              		@ frame_needed = 0, uses_anonymous_args = 0
 172:Drivers/STM32F4xx_HAL_Driver/Src/stm32f4xx_hal_sram.c ****   {
  55              		.loc 1 172 3 view .LVU4
 172:Drivers/STM32F4xx_HAL_Driver/Src/stm32f4xx_hal_sram.c ****   {
  56              		.loc 1 172 6 is_stmt 0 view .LVU5
  57 0000 40B3     		cbz	r0, .L5
 170:Drivers/STM32F4xx_HAL_Driver/Src/stm32f4xx_hal_sram.c ****   /* Check the SRAM handle parameter */
  58              		.loc 1 170 1 view .LVU6
  59 0002 70B5     		push	{r4, r5, r6, lr}
  60              	.LCFI0:
  61              		.cfi_def_cfa_offset 16
  62              		.cfi_offset 4, -16
  63              		.cfi_offset 5, -12
  64              		.cfi_offset 6, -8
  65              		.cfi_offset 14, -4
  66 0004 0E46     		mov	r6, r1
  67 0006 1546     		mov	r5, r2
  68 0008 0446     		mov	r4, r0
 177:Drivers/STM32F4xx_HAL_Driver/Src/stm32f4xx_hal_sram.c ****   {
  69              		.loc 1 177 3 is_stmt 1 view .LVU7
 177:Drivers/STM32F4xx_HAL_Driver/Src/stm32f4xx_hal_sram.c ****   {
  70              		.loc 1 177 12 is_stmt 0 view .LVU8
  71 000a 90F84930 		ldrb	r3, [r0, #73]	@ zero_extendqisi2
 177:Drivers/STM32F4xx_HAL_Driver/Src/stm32f4xx_hal_sram.c ****   {
  72              		.loc 1 177 6 view .LVU9
  73 000e E3B1     		cbz	r3, .L10
  74              	.LVL2:
ARM GAS  /tmp/cc6qTBh5.s 			page 7


  75              	.L4:
 199:Drivers/STM32F4xx_HAL_Driver/Src/stm32f4xx_hal_sram.c **** 
  76              		.loc 1 199 3 is_stmt 1 view .LVU10
 199:Drivers/STM32F4xx_HAL_Driver/Src/stm32f4xx_hal_sram.c **** 
  77              		.loc 1 199 9 is_stmt 0 view .LVU11
  78 0010 2146     		mov	r1, r4
  79 0012 51F8080B 		ldr	r0, [r1], #8
  80 0016 FFF7FEFF 		bl	FSMC_NORSRAM_Init
  81              	.LVL3:
 202:Drivers/STM32F4xx_HAL_Driver/Src/stm32f4xx_hal_sram.c **** 
  82              		.loc 1 202 3 is_stmt 1 view .LVU12
 202:Drivers/STM32F4xx_HAL_Driver/Src/stm32f4xx_hal_sram.c **** 
  83              		.loc 1 202 9 is_stmt 0 view .LVU13
  84 001a A268     		ldr	r2, [r4, #8]
  85 001c 3146     		mov	r1, r6
  86 001e 2068     		ldr	r0, [r4]
  87 0020 FFF7FEFF 		bl	FSMC_NORSRAM_Timing_Init
  88              	.LVL4:
 205:Drivers/STM32F4xx_HAL_Driver/Src/stm32f4xx_hal_sram.c ****                                          hsram->Init.ExtendedMode);
  89              		.loc 1 205 3 is_stmt 1 view .LVU14
 205:Drivers/STM32F4xx_HAL_Driver/Src/stm32f4xx_hal_sram.c ****                                          hsram->Init.ExtendedMode);
  90              		.loc 1 205 9 is_stmt 0 view .LVU15
  91 0024 236B     		ldr	r3, [r4, #48]
  92 0026 A268     		ldr	r2, [r4, #8]
  93 0028 2946     		mov	r1, r5
  94 002a 6068     		ldr	r0, [r4, #4]
  95 002c FFF7FEFF 		bl	FSMC_NORSRAM_Extended_Timing_Init
  96              	.LVL5:
 209:Drivers/STM32F4xx_HAL_Driver/Src/stm32f4xx_hal_sram.c **** 
  97              		.loc 1 209 3 is_stmt 1 view .LVU16
  98 0030 2268     		ldr	r2, [r4]
  99 0032 A168     		ldr	r1, [r4, #8]
 100 0034 52F82130 		ldr	r3, [r2, r1, lsl #2]
 101 0038 43F00103 		orr	r3, r3, #1
 102 003c 42F82130 		str	r3, [r2, r1, lsl #2]
 212:Drivers/STM32F4xx_HAL_Driver/Src/stm32f4xx_hal_sram.c **** 
 103              		.loc 1 212 3 view .LVU17
 212:Drivers/STM32F4xx_HAL_Driver/Src/stm32f4xx_hal_sram.c **** 
 104              		.loc 1 212 16 is_stmt 0 view .LVU18
 105 0040 0123     		movs	r3, #1
 106 0042 84F84930 		strb	r3, [r4, #73]
 214:Drivers/STM32F4xx_HAL_Driver/Src/stm32f4xx_hal_sram.c **** }
 107              		.loc 1 214 3 is_stmt 1 view .LVU19
 214:Drivers/STM32F4xx_HAL_Driver/Src/stm32f4xx_hal_sram.c **** }
 108              		.loc 1 214 10 is_stmt 0 view .LVU20
 109 0046 0020     		movs	r0, #0
 215:Drivers/STM32F4xx_HAL_Driver/Src/stm32f4xx_hal_sram.c **** 
 110              		.loc 1 215 1 view .LVU21
 111 0048 70BD     		pop	{r4, r5, r6, pc}
 112              	.LVL6:
 113              	.L10:
 180:Drivers/STM32F4xx_HAL_Driver/Src/stm32f4xx_hal_sram.c **** 
 114              		.loc 1 180 5 is_stmt 1 view .LVU22
 180:Drivers/STM32F4xx_HAL_Driver/Src/stm32f4xx_hal_sram.c **** 
 115              		.loc 1 180 17 is_stmt 0 view .LVU23
 116 004a 80F84830 		strb	r3, [r0, #72]
 194:Drivers/STM32F4xx_HAL_Driver/Src/stm32f4xx_hal_sram.c **** #endif /* USE_HAL_SRAM_REGISTER_CALLBACKS */
ARM GAS  /tmp/cc6qTBh5.s 			page 8


 117              		.loc 1 194 5 is_stmt 1 view .LVU24
 118 004e FFF7FEFF 		bl	HAL_SRAM_MspInit
 119              	.LVL7:
 194:Drivers/STM32F4xx_HAL_Driver/Src/stm32f4xx_hal_sram.c **** #endif /* USE_HAL_SRAM_REGISTER_CALLBACKS */
 120              		.loc 1 194 5 is_stmt 0 view .LVU25
 121 0052 DDE7     		b	.L4
 122              	.LVL8:
 123              	.L5:
 124              	.LCFI1:
 125              		.cfi_def_cfa_offset 0
 126              		.cfi_restore 4
 127              		.cfi_restore 5
 128              		.cfi_restore 6
 129              		.cfi_restore 14
 174:Drivers/STM32F4xx_HAL_Driver/Src/stm32f4xx_hal_sram.c ****   }
 130              		.loc 1 174 12 view .LVU26
 131 0054 0120     		movs	r0, #1
 132              	.LVL9:
 215:Drivers/STM32F4xx_HAL_Driver/Src/stm32f4xx_hal_sram.c **** 
 133              		.loc 1 215 1 view .LVU27
 134 0056 7047     		bx	lr
 135              		.cfi_endproc
 136              	.LFE130:
 138              		.section	.text.HAL_SRAM_MspDeInit,"ax",%progbits
 139              		.align	1
 140              		.weak	HAL_SRAM_MspDeInit
 141              		.syntax unified
 142              		.thumb
 143              		.thumb_func
 145              	HAL_SRAM_MspDeInit:
 146              	.LVL10:
 147              	.LFB133:
 265:Drivers/STM32F4xx_HAL_Driver/Src/stm32f4xx_hal_sram.c **** 
 266:Drivers/STM32F4xx_HAL_Driver/Src/stm32f4xx_hal_sram.c **** /**
 267:Drivers/STM32F4xx_HAL_Driver/Src/stm32f4xx_hal_sram.c ****   * @brief  SRAM MSP DeInit.
 268:Drivers/STM32F4xx_HAL_Driver/Src/stm32f4xx_hal_sram.c ****   * @param  hsram pointer to a SRAM_HandleTypeDef structure that contains
 269:Drivers/STM32F4xx_HAL_Driver/Src/stm32f4xx_hal_sram.c ****   *                the configuration information for SRAM module.
 270:Drivers/STM32F4xx_HAL_Driver/Src/stm32f4xx_hal_sram.c ****   * @retval None
 271:Drivers/STM32F4xx_HAL_Driver/Src/stm32f4xx_hal_sram.c ****   */
 272:Drivers/STM32F4xx_HAL_Driver/Src/stm32f4xx_hal_sram.c **** __weak void HAL_SRAM_MspDeInit(SRAM_HandleTypeDef *hsram)
 273:Drivers/STM32F4xx_HAL_Driver/Src/stm32f4xx_hal_sram.c **** {
 148              		.loc 1 273 1 is_stmt 1 view -0
 149              		.cfi_startproc
 150              		@ args = 0, pretend = 0, frame = 0
 151              		@ frame_needed = 0, uses_anonymous_args = 0
 152              		@ link register save eliminated.
 274:Drivers/STM32F4xx_HAL_Driver/Src/stm32f4xx_hal_sram.c ****   /* Prevent unused argument(s) compilation warning */
 275:Drivers/STM32F4xx_HAL_Driver/Src/stm32f4xx_hal_sram.c ****   UNUSED(hsram);
 153              		.loc 1 275 3 view .LVU29
 276:Drivers/STM32F4xx_HAL_Driver/Src/stm32f4xx_hal_sram.c **** 
 277:Drivers/STM32F4xx_HAL_Driver/Src/stm32f4xx_hal_sram.c ****   /* NOTE : This function Should not be modified, when the callback is needed,
 278:Drivers/STM32F4xx_HAL_Driver/Src/stm32f4xx_hal_sram.c ****             the HAL_SRAM_MspDeInit could be implemented in the user file
 279:Drivers/STM32F4xx_HAL_Driver/Src/stm32f4xx_hal_sram.c ****    */
 280:Drivers/STM32F4xx_HAL_Driver/Src/stm32f4xx_hal_sram.c **** }
 154              		.loc 1 280 1 is_stmt 0 view .LVU30
 155 0000 7047     		bx	lr
 156              		.cfi_endproc
ARM GAS  /tmp/cc6qTBh5.s 			page 9


 157              	.LFE133:
 159              		.section	.text.HAL_SRAM_DeInit,"ax",%progbits
 160              		.align	1
 161              		.global	HAL_SRAM_DeInit
 162              		.syntax unified
 163              		.thumb
 164              		.thumb_func
 166              	HAL_SRAM_DeInit:
 167              	.LVL11:
 168              	.LFB131:
 224:Drivers/STM32F4xx_HAL_Driver/Src/stm32f4xx_hal_sram.c **** #if (USE_HAL_SRAM_REGISTER_CALLBACKS == 1)
 169              		.loc 1 224 1 is_stmt 1 view -0
 170              		.cfi_startproc
 171              		@ args = 0, pretend = 0, frame = 0
 172              		@ frame_needed = 0, uses_anonymous_args = 0
 224:Drivers/STM32F4xx_HAL_Driver/Src/stm32f4xx_hal_sram.c **** #if (USE_HAL_SRAM_REGISTER_CALLBACKS == 1)
 173              		.loc 1 224 1 is_stmt 0 view .LVU32
 174 0000 10B5     		push	{r4, lr}
 175              	.LCFI2:
 176              		.cfi_def_cfa_offset 8
 177              		.cfi_offset 4, -8
 178              		.cfi_offset 14, -4
 179 0002 0446     		mov	r4, r0
 235:Drivers/STM32F4xx_HAL_Driver/Src/stm32f4xx_hal_sram.c **** #endif /* USE_HAL_SRAM_REGISTER_CALLBACKS */
 180              		.loc 1 235 3 is_stmt 1 view .LVU33
 181 0004 FFF7FEFF 		bl	HAL_SRAM_MspDeInit
 182              	.LVL12:
 239:Drivers/STM32F4xx_HAL_Driver/Src/stm32f4xx_hal_sram.c **** 
 183              		.loc 1 239 3 view .LVU34
 239:Drivers/STM32F4xx_HAL_Driver/Src/stm32f4xx_hal_sram.c **** 
 184              		.loc 1 239 9 is_stmt 0 view .LVU35
 185 0008 A268     		ldr	r2, [r4, #8]
 186 000a 6168     		ldr	r1, [r4, #4]
 187 000c 2068     		ldr	r0, [r4]
 188 000e FFF7FEFF 		bl	FSMC_NORSRAM_DeInit
 189              	.LVL13:
 242:Drivers/STM32F4xx_HAL_Driver/Src/stm32f4xx_hal_sram.c **** 
 190              		.loc 1 242 3 is_stmt 1 view .LVU36
 242:Drivers/STM32F4xx_HAL_Driver/Src/stm32f4xx_hal_sram.c **** 
 191              		.loc 1 242 16 is_stmt 0 view .LVU37
 192 0012 0020     		movs	r0, #0
 193 0014 84F84900 		strb	r0, [r4, #73]
 245:Drivers/STM32F4xx_HAL_Driver/Src/stm32f4xx_hal_sram.c **** 
 194              		.loc 1 245 3 is_stmt 1 view .LVU38
 245:Drivers/STM32F4xx_HAL_Driver/Src/stm32f4xx_hal_sram.c **** 
 195              		.loc 1 245 3 view .LVU39
 196 0018 84F84800 		strb	r0, [r4, #72]
 245:Drivers/STM32F4xx_HAL_Driver/Src/stm32f4xx_hal_sram.c **** 
 197              		.loc 1 245 3 view .LVU40
 247:Drivers/STM32F4xx_HAL_Driver/Src/stm32f4xx_hal_sram.c **** }
 198              		.loc 1 247 3 view .LVU41
 248:Drivers/STM32F4xx_HAL_Driver/Src/stm32f4xx_hal_sram.c **** 
 199              		.loc 1 248 1 is_stmt 0 view .LVU42
 200 001c 10BD     		pop	{r4, pc}
 248:Drivers/STM32F4xx_HAL_Driver/Src/stm32f4xx_hal_sram.c **** 
 201              		.loc 1 248 1 view .LVU43
 202              		.cfi_endproc
ARM GAS  /tmp/cc6qTBh5.s 			page 10


 203              	.LFE131:
 205              		.section	.text.HAL_SRAM_DMA_XferCpltCallback,"ax",%progbits
 206              		.align	1
 207              		.weak	HAL_SRAM_DMA_XferCpltCallback
 208              		.syntax unified
 209              		.thumb
 210              		.thumb_func
 212              	HAL_SRAM_DMA_XferCpltCallback:
 213              	.LVL14:
 214              	.LFB134:
 281:Drivers/STM32F4xx_HAL_Driver/Src/stm32f4xx_hal_sram.c **** 
 282:Drivers/STM32F4xx_HAL_Driver/Src/stm32f4xx_hal_sram.c **** /**
 283:Drivers/STM32F4xx_HAL_Driver/Src/stm32f4xx_hal_sram.c ****   * @brief  DMA transfer complete callback.
 284:Drivers/STM32F4xx_HAL_Driver/Src/stm32f4xx_hal_sram.c ****   * @param  hdma pointer to a SRAM_HandleTypeDef structure that contains
 285:Drivers/STM32F4xx_HAL_Driver/Src/stm32f4xx_hal_sram.c ****   *                the configuration information for SRAM module.
 286:Drivers/STM32F4xx_HAL_Driver/Src/stm32f4xx_hal_sram.c ****   * @retval None
 287:Drivers/STM32F4xx_HAL_Driver/Src/stm32f4xx_hal_sram.c ****   */
 288:Drivers/STM32F4xx_HAL_Driver/Src/stm32f4xx_hal_sram.c **** __weak void HAL_SRAM_DMA_XferCpltCallback(DMA_HandleTypeDef *hdma)
 289:Drivers/STM32F4xx_HAL_Driver/Src/stm32f4xx_hal_sram.c **** {
 215              		.loc 1 289 1 is_stmt 1 view -0
 216              		.cfi_startproc
 217              		@ args = 0, pretend = 0, frame = 0
 218              		@ frame_needed = 0, uses_anonymous_args = 0
 219              		@ link register save eliminated.
 290:Drivers/STM32F4xx_HAL_Driver/Src/stm32f4xx_hal_sram.c ****   /* Prevent unused argument(s) compilation warning */
 291:Drivers/STM32F4xx_HAL_Driver/Src/stm32f4xx_hal_sram.c ****   UNUSED(hdma);
 220              		.loc 1 291 3 view .LVU45
 292:Drivers/STM32F4xx_HAL_Driver/Src/stm32f4xx_hal_sram.c **** 
 293:Drivers/STM32F4xx_HAL_Driver/Src/stm32f4xx_hal_sram.c ****   /* NOTE : This function Should not be modified, when the callback is needed,
 294:Drivers/STM32F4xx_HAL_Driver/Src/stm32f4xx_hal_sram.c ****             the HAL_SRAM_DMA_XferCpltCallback could be implemented in the user file
 295:Drivers/STM32F4xx_HAL_Driver/Src/stm32f4xx_hal_sram.c ****    */
 296:Drivers/STM32F4xx_HAL_Driver/Src/stm32f4xx_hal_sram.c **** }
 221              		.loc 1 296 1 is_stmt 0 view .LVU46
 222 0000 7047     		bx	lr
 223              		.cfi_endproc
 224              	.LFE134:
 226              		.section	.text.SRAM_DMACpltProt,"ax",%progbits
 227              		.align	1
 228              		.syntax unified
 229              		.thumb
 230              		.thumb_func
 232              	SRAM_DMACpltProt:
 233              	.LVL15:
 234              	.LFB148:
 297:Drivers/STM32F4xx_HAL_Driver/Src/stm32f4xx_hal_sram.c **** 
 298:Drivers/STM32F4xx_HAL_Driver/Src/stm32f4xx_hal_sram.c **** /**
 299:Drivers/STM32F4xx_HAL_Driver/Src/stm32f4xx_hal_sram.c ****   * @brief  DMA transfer complete error callback.
 300:Drivers/STM32F4xx_HAL_Driver/Src/stm32f4xx_hal_sram.c ****   * @param  hdma pointer to a SRAM_HandleTypeDef structure that contains
 301:Drivers/STM32F4xx_HAL_Driver/Src/stm32f4xx_hal_sram.c ****   *                the configuration information for SRAM module.
 302:Drivers/STM32F4xx_HAL_Driver/Src/stm32f4xx_hal_sram.c ****   * @retval None
 303:Drivers/STM32F4xx_HAL_Driver/Src/stm32f4xx_hal_sram.c ****   */
 304:Drivers/STM32F4xx_HAL_Driver/Src/stm32f4xx_hal_sram.c **** __weak void HAL_SRAM_DMA_XferErrorCallback(DMA_HandleTypeDef *hdma)
 305:Drivers/STM32F4xx_HAL_Driver/Src/stm32f4xx_hal_sram.c **** {
 306:Drivers/STM32F4xx_HAL_Driver/Src/stm32f4xx_hal_sram.c ****   /* Prevent unused argument(s) compilation warning */
 307:Drivers/STM32F4xx_HAL_Driver/Src/stm32f4xx_hal_sram.c ****   UNUSED(hdma);
 308:Drivers/STM32F4xx_HAL_Driver/Src/stm32f4xx_hal_sram.c **** 
 309:Drivers/STM32F4xx_HAL_Driver/Src/stm32f4xx_hal_sram.c ****   /* NOTE : This function Should not be modified, when the callback is needed,
ARM GAS  /tmp/cc6qTBh5.s 			page 11


 310:Drivers/STM32F4xx_HAL_Driver/Src/stm32f4xx_hal_sram.c ****             the HAL_SRAM_DMA_XferErrorCallback could be implemented in the user file
 311:Drivers/STM32F4xx_HAL_Driver/Src/stm32f4xx_hal_sram.c ****    */
 312:Drivers/STM32F4xx_HAL_Driver/Src/stm32f4xx_hal_sram.c **** }
 313:Drivers/STM32F4xx_HAL_Driver/Src/stm32f4xx_hal_sram.c **** 
 314:Drivers/STM32F4xx_HAL_Driver/Src/stm32f4xx_hal_sram.c **** /**
 315:Drivers/STM32F4xx_HAL_Driver/Src/stm32f4xx_hal_sram.c ****   * @}
 316:Drivers/STM32F4xx_HAL_Driver/Src/stm32f4xx_hal_sram.c ****   */
 317:Drivers/STM32F4xx_HAL_Driver/Src/stm32f4xx_hal_sram.c **** 
 318:Drivers/STM32F4xx_HAL_Driver/Src/stm32f4xx_hal_sram.c **** /** @defgroup SRAM_Exported_Functions_Group2 Input Output and memory control functions
 319:Drivers/STM32F4xx_HAL_Driver/Src/stm32f4xx_hal_sram.c ****   * @brief    Input Output and memory control functions
 320:Drivers/STM32F4xx_HAL_Driver/Src/stm32f4xx_hal_sram.c ****   *
 321:Drivers/STM32F4xx_HAL_Driver/Src/stm32f4xx_hal_sram.c ****   @verbatim
 322:Drivers/STM32F4xx_HAL_Driver/Src/stm32f4xx_hal_sram.c ****   ==============================================================================
 323:Drivers/STM32F4xx_HAL_Driver/Src/stm32f4xx_hal_sram.c ****                   ##### SRAM Input and Output functions #####
 324:Drivers/STM32F4xx_HAL_Driver/Src/stm32f4xx_hal_sram.c ****   ==============================================================================
 325:Drivers/STM32F4xx_HAL_Driver/Src/stm32f4xx_hal_sram.c ****   [..]
 326:Drivers/STM32F4xx_HAL_Driver/Src/stm32f4xx_hal_sram.c ****     This section provides functions allowing to use and control the SRAM memory
 327:Drivers/STM32F4xx_HAL_Driver/Src/stm32f4xx_hal_sram.c **** 
 328:Drivers/STM32F4xx_HAL_Driver/Src/stm32f4xx_hal_sram.c **** @endverbatim
 329:Drivers/STM32F4xx_HAL_Driver/Src/stm32f4xx_hal_sram.c ****   * @{
 330:Drivers/STM32F4xx_HAL_Driver/Src/stm32f4xx_hal_sram.c ****   */
 331:Drivers/STM32F4xx_HAL_Driver/Src/stm32f4xx_hal_sram.c **** 
 332:Drivers/STM32F4xx_HAL_Driver/Src/stm32f4xx_hal_sram.c **** /**
 333:Drivers/STM32F4xx_HAL_Driver/Src/stm32f4xx_hal_sram.c ****   * @brief  Reads 8-bit buffer from SRAM memory.
 334:Drivers/STM32F4xx_HAL_Driver/Src/stm32f4xx_hal_sram.c ****   * @param  hsram pointer to a SRAM_HandleTypeDef structure that contains
 335:Drivers/STM32F4xx_HAL_Driver/Src/stm32f4xx_hal_sram.c ****   *                the configuration information for SRAM module.
 336:Drivers/STM32F4xx_HAL_Driver/Src/stm32f4xx_hal_sram.c ****   * @param  pAddress Pointer to read start address
 337:Drivers/STM32F4xx_HAL_Driver/Src/stm32f4xx_hal_sram.c ****   * @param  pDstBuffer Pointer to destination buffer
 338:Drivers/STM32F4xx_HAL_Driver/Src/stm32f4xx_hal_sram.c ****   * @param  BufferSize Size of the buffer to read from memory
 339:Drivers/STM32F4xx_HAL_Driver/Src/stm32f4xx_hal_sram.c ****   * @retval HAL status
 340:Drivers/STM32F4xx_HAL_Driver/Src/stm32f4xx_hal_sram.c ****   */
 341:Drivers/STM32F4xx_HAL_Driver/Src/stm32f4xx_hal_sram.c **** HAL_StatusTypeDef HAL_SRAM_Read_8b(SRAM_HandleTypeDef *hsram, uint32_t *pAddress, uint8_t *pDstBuff
 342:Drivers/STM32F4xx_HAL_Driver/Src/stm32f4xx_hal_sram.c ****                                    uint32_t BufferSize)
 343:Drivers/STM32F4xx_HAL_Driver/Src/stm32f4xx_hal_sram.c **** {
 344:Drivers/STM32F4xx_HAL_Driver/Src/stm32f4xx_hal_sram.c ****   uint32_t size;
 345:Drivers/STM32F4xx_HAL_Driver/Src/stm32f4xx_hal_sram.c ****   __IO uint8_t *psramaddress = (uint8_t *)pAddress;
 346:Drivers/STM32F4xx_HAL_Driver/Src/stm32f4xx_hal_sram.c ****   uint8_t *pdestbuff = pDstBuffer;
 347:Drivers/STM32F4xx_HAL_Driver/Src/stm32f4xx_hal_sram.c ****   HAL_SRAM_StateTypeDef state = hsram->State;
 348:Drivers/STM32F4xx_HAL_Driver/Src/stm32f4xx_hal_sram.c **** 
 349:Drivers/STM32F4xx_HAL_Driver/Src/stm32f4xx_hal_sram.c ****   /* Check the SRAM controller state */
 350:Drivers/STM32F4xx_HAL_Driver/Src/stm32f4xx_hal_sram.c ****   if ((state == HAL_SRAM_STATE_READY) || (state == HAL_SRAM_STATE_PROTECTED))
 351:Drivers/STM32F4xx_HAL_Driver/Src/stm32f4xx_hal_sram.c ****   {
 352:Drivers/STM32F4xx_HAL_Driver/Src/stm32f4xx_hal_sram.c ****     /* Process Locked */
 353:Drivers/STM32F4xx_HAL_Driver/Src/stm32f4xx_hal_sram.c ****     __HAL_LOCK(hsram);
 354:Drivers/STM32F4xx_HAL_Driver/Src/stm32f4xx_hal_sram.c **** 
 355:Drivers/STM32F4xx_HAL_Driver/Src/stm32f4xx_hal_sram.c ****     /* Update the SRAM controller state */
 356:Drivers/STM32F4xx_HAL_Driver/Src/stm32f4xx_hal_sram.c ****     hsram->State = HAL_SRAM_STATE_BUSY;
 357:Drivers/STM32F4xx_HAL_Driver/Src/stm32f4xx_hal_sram.c **** 
 358:Drivers/STM32F4xx_HAL_Driver/Src/stm32f4xx_hal_sram.c ****     /* Read data from memory */
 359:Drivers/STM32F4xx_HAL_Driver/Src/stm32f4xx_hal_sram.c ****     for (size = BufferSize; size != 0U; size--)
 360:Drivers/STM32F4xx_HAL_Driver/Src/stm32f4xx_hal_sram.c ****     {
 361:Drivers/STM32F4xx_HAL_Driver/Src/stm32f4xx_hal_sram.c ****       *pdestbuff = *psramaddress;
 362:Drivers/STM32F4xx_HAL_Driver/Src/stm32f4xx_hal_sram.c ****       pdestbuff++;
 363:Drivers/STM32F4xx_HAL_Driver/Src/stm32f4xx_hal_sram.c ****       psramaddress++;
 364:Drivers/STM32F4xx_HAL_Driver/Src/stm32f4xx_hal_sram.c ****     }
 365:Drivers/STM32F4xx_HAL_Driver/Src/stm32f4xx_hal_sram.c **** 
 366:Drivers/STM32F4xx_HAL_Driver/Src/stm32f4xx_hal_sram.c ****     /* Update the SRAM controller state */
ARM GAS  /tmp/cc6qTBh5.s 			page 12


 367:Drivers/STM32F4xx_HAL_Driver/Src/stm32f4xx_hal_sram.c ****     hsram->State = state;
 368:Drivers/STM32F4xx_HAL_Driver/Src/stm32f4xx_hal_sram.c **** 
 369:Drivers/STM32F4xx_HAL_Driver/Src/stm32f4xx_hal_sram.c ****     /* Process unlocked */
 370:Drivers/STM32F4xx_HAL_Driver/Src/stm32f4xx_hal_sram.c ****     __HAL_UNLOCK(hsram);
 371:Drivers/STM32F4xx_HAL_Driver/Src/stm32f4xx_hal_sram.c ****   }
 372:Drivers/STM32F4xx_HAL_Driver/Src/stm32f4xx_hal_sram.c ****   else
 373:Drivers/STM32F4xx_HAL_Driver/Src/stm32f4xx_hal_sram.c ****   {
 374:Drivers/STM32F4xx_HAL_Driver/Src/stm32f4xx_hal_sram.c ****     return HAL_ERROR;
 375:Drivers/STM32F4xx_HAL_Driver/Src/stm32f4xx_hal_sram.c ****   }
 376:Drivers/STM32F4xx_HAL_Driver/Src/stm32f4xx_hal_sram.c **** 
 377:Drivers/STM32F4xx_HAL_Driver/Src/stm32f4xx_hal_sram.c ****   return HAL_OK;
 378:Drivers/STM32F4xx_HAL_Driver/Src/stm32f4xx_hal_sram.c **** }
 379:Drivers/STM32F4xx_HAL_Driver/Src/stm32f4xx_hal_sram.c **** 
 380:Drivers/STM32F4xx_HAL_Driver/Src/stm32f4xx_hal_sram.c **** /**
 381:Drivers/STM32F4xx_HAL_Driver/Src/stm32f4xx_hal_sram.c ****   * @brief  Writes 8-bit buffer to SRAM memory.
 382:Drivers/STM32F4xx_HAL_Driver/Src/stm32f4xx_hal_sram.c ****   * @param  hsram pointer to a SRAM_HandleTypeDef structure that contains
 383:Drivers/STM32F4xx_HAL_Driver/Src/stm32f4xx_hal_sram.c ****   *                the configuration information for SRAM module.
 384:Drivers/STM32F4xx_HAL_Driver/Src/stm32f4xx_hal_sram.c ****   * @param  pAddress Pointer to write start address
 385:Drivers/STM32F4xx_HAL_Driver/Src/stm32f4xx_hal_sram.c ****   * @param  pSrcBuffer Pointer to source buffer to write
 386:Drivers/STM32F4xx_HAL_Driver/Src/stm32f4xx_hal_sram.c ****   * @param  BufferSize Size of the buffer to write to memory
 387:Drivers/STM32F4xx_HAL_Driver/Src/stm32f4xx_hal_sram.c ****   * @retval HAL status
 388:Drivers/STM32F4xx_HAL_Driver/Src/stm32f4xx_hal_sram.c ****   */
 389:Drivers/STM32F4xx_HAL_Driver/Src/stm32f4xx_hal_sram.c **** HAL_StatusTypeDef HAL_SRAM_Write_8b(SRAM_HandleTypeDef *hsram, uint32_t *pAddress, uint8_t *pSrcBuf
 390:Drivers/STM32F4xx_HAL_Driver/Src/stm32f4xx_hal_sram.c ****                                     uint32_t BufferSize)
 391:Drivers/STM32F4xx_HAL_Driver/Src/stm32f4xx_hal_sram.c **** {
 392:Drivers/STM32F4xx_HAL_Driver/Src/stm32f4xx_hal_sram.c ****   uint32_t size;
 393:Drivers/STM32F4xx_HAL_Driver/Src/stm32f4xx_hal_sram.c ****   __IO uint8_t *psramaddress = (uint8_t *)pAddress;
 394:Drivers/STM32F4xx_HAL_Driver/Src/stm32f4xx_hal_sram.c ****   uint8_t *psrcbuff = pSrcBuffer;
 395:Drivers/STM32F4xx_HAL_Driver/Src/stm32f4xx_hal_sram.c **** 
 396:Drivers/STM32F4xx_HAL_Driver/Src/stm32f4xx_hal_sram.c ****   /* Check the SRAM controller state */
 397:Drivers/STM32F4xx_HAL_Driver/Src/stm32f4xx_hal_sram.c ****   if (hsram->State == HAL_SRAM_STATE_READY)
 398:Drivers/STM32F4xx_HAL_Driver/Src/stm32f4xx_hal_sram.c ****   {
 399:Drivers/STM32F4xx_HAL_Driver/Src/stm32f4xx_hal_sram.c ****     /* Process Locked */
 400:Drivers/STM32F4xx_HAL_Driver/Src/stm32f4xx_hal_sram.c ****     __HAL_LOCK(hsram);
 401:Drivers/STM32F4xx_HAL_Driver/Src/stm32f4xx_hal_sram.c **** 
 402:Drivers/STM32F4xx_HAL_Driver/Src/stm32f4xx_hal_sram.c ****     /* Update the SRAM controller state */
 403:Drivers/STM32F4xx_HAL_Driver/Src/stm32f4xx_hal_sram.c ****     hsram->State = HAL_SRAM_STATE_BUSY;
 404:Drivers/STM32F4xx_HAL_Driver/Src/stm32f4xx_hal_sram.c **** 
 405:Drivers/STM32F4xx_HAL_Driver/Src/stm32f4xx_hal_sram.c ****     /* Write data to memory */
 406:Drivers/STM32F4xx_HAL_Driver/Src/stm32f4xx_hal_sram.c ****     for (size = BufferSize; size != 0U; size--)
 407:Drivers/STM32F4xx_HAL_Driver/Src/stm32f4xx_hal_sram.c ****     {
 408:Drivers/STM32F4xx_HAL_Driver/Src/stm32f4xx_hal_sram.c ****       *psramaddress = *psrcbuff;
 409:Drivers/STM32F4xx_HAL_Driver/Src/stm32f4xx_hal_sram.c ****       psrcbuff++;
 410:Drivers/STM32F4xx_HAL_Driver/Src/stm32f4xx_hal_sram.c ****       psramaddress++;
 411:Drivers/STM32F4xx_HAL_Driver/Src/stm32f4xx_hal_sram.c ****     }
 412:Drivers/STM32F4xx_HAL_Driver/Src/stm32f4xx_hal_sram.c **** 
 413:Drivers/STM32F4xx_HAL_Driver/Src/stm32f4xx_hal_sram.c ****     /* Update the SRAM controller state */
 414:Drivers/STM32F4xx_HAL_Driver/Src/stm32f4xx_hal_sram.c ****     hsram->State = HAL_SRAM_STATE_READY;
 415:Drivers/STM32F4xx_HAL_Driver/Src/stm32f4xx_hal_sram.c **** 
 416:Drivers/STM32F4xx_HAL_Driver/Src/stm32f4xx_hal_sram.c ****     /* Process unlocked */
 417:Drivers/STM32F4xx_HAL_Driver/Src/stm32f4xx_hal_sram.c ****     __HAL_UNLOCK(hsram);
 418:Drivers/STM32F4xx_HAL_Driver/Src/stm32f4xx_hal_sram.c ****   }
 419:Drivers/STM32F4xx_HAL_Driver/Src/stm32f4xx_hal_sram.c ****   else
 420:Drivers/STM32F4xx_HAL_Driver/Src/stm32f4xx_hal_sram.c ****   {
 421:Drivers/STM32F4xx_HAL_Driver/Src/stm32f4xx_hal_sram.c ****     return HAL_ERROR;
 422:Drivers/STM32F4xx_HAL_Driver/Src/stm32f4xx_hal_sram.c ****   }
 423:Drivers/STM32F4xx_HAL_Driver/Src/stm32f4xx_hal_sram.c **** 
ARM GAS  /tmp/cc6qTBh5.s 			page 13


 424:Drivers/STM32F4xx_HAL_Driver/Src/stm32f4xx_hal_sram.c ****   return HAL_OK;
 425:Drivers/STM32F4xx_HAL_Driver/Src/stm32f4xx_hal_sram.c **** }
 426:Drivers/STM32F4xx_HAL_Driver/Src/stm32f4xx_hal_sram.c **** 
 427:Drivers/STM32F4xx_HAL_Driver/Src/stm32f4xx_hal_sram.c **** /**
 428:Drivers/STM32F4xx_HAL_Driver/Src/stm32f4xx_hal_sram.c ****   * @brief  Reads 16-bit buffer from SRAM memory.
 429:Drivers/STM32F4xx_HAL_Driver/Src/stm32f4xx_hal_sram.c ****   * @param  hsram pointer to a SRAM_HandleTypeDef structure that contains
 430:Drivers/STM32F4xx_HAL_Driver/Src/stm32f4xx_hal_sram.c ****   *                the configuration information for SRAM module.
 431:Drivers/STM32F4xx_HAL_Driver/Src/stm32f4xx_hal_sram.c ****   * @param  pAddress Pointer to read start address
 432:Drivers/STM32F4xx_HAL_Driver/Src/stm32f4xx_hal_sram.c ****   * @param  pDstBuffer Pointer to destination buffer
 433:Drivers/STM32F4xx_HAL_Driver/Src/stm32f4xx_hal_sram.c ****   * @param  BufferSize Size of the buffer to read from memory
 434:Drivers/STM32F4xx_HAL_Driver/Src/stm32f4xx_hal_sram.c ****   * @retval HAL status
 435:Drivers/STM32F4xx_HAL_Driver/Src/stm32f4xx_hal_sram.c ****   */
 436:Drivers/STM32F4xx_HAL_Driver/Src/stm32f4xx_hal_sram.c **** HAL_StatusTypeDef HAL_SRAM_Read_16b(SRAM_HandleTypeDef *hsram, uint32_t *pAddress, uint16_t *pDstBu
 437:Drivers/STM32F4xx_HAL_Driver/Src/stm32f4xx_hal_sram.c ****                                     uint32_t BufferSize)
 438:Drivers/STM32F4xx_HAL_Driver/Src/stm32f4xx_hal_sram.c **** {
 439:Drivers/STM32F4xx_HAL_Driver/Src/stm32f4xx_hal_sram.c ****   uint32_t size;
 440:Drivers/STM32F4xx_HAL_Driver/Src/stm32f4xx_hal_sram.c ****   __IO uint32_t *psramaddress = pAddress;
 441:Drivers/STM32F4xx_HAL_Driver/Src/stm32f4xx_hal_sram.c ****   uint16_t *pdestbuff = pDstBuffer;
 442:Drivers/STM32F4xx_HAL_Driver/Src/stm32f4xx_hal_sram.c ****   uint8_t limit;
 443:Drivers/STM32F4xx_HAL_Driver/Src/stm32f4xx_hal_sram.c ****   HAL_SRAM_StateTypeDef state = hsram->State;
 444:Drivers/STM32F4xx_HAL_Driver/Src/stm32f4xx_hal_sram.c **** 
 445:Drivers/STM32F4xx_HAL_Driver/Src/stm32f4xx_hal_sram.c ****   /* Check the SRAM controller state */
 446:Drivers/STM32F4xx_HAL_Driver/Src/stm32f4xx_hal_sram.c ****   if ((state == HAL_SRAM_STATE_READY) || (state == HAL_SRAM_STATE_PROTECTED))
 447:Drivers/STM32F4xx_HAL_Driver/Src/stm32f4xx_hal_sram.c ****   {
 448:Drivers/STM32F4xx_HAL_Driver/Src/stm32f4xx_hal_sram.c ****     /* Process Locked */
 449:Drivers/STM32F4xx_HAL_Driver/Src/stm32f4xx_hal_sram.c ****     __HAL_LOCK(hsram);
 450:Drivers/STM32F4xx_HAL_Driver/Src/stm32f4xx_hal_sram.c **** 
 451:Drivers/STM32F4xx_HAL_Driver/Src/stm32f4xx_hal_sram.c ****     /* Update the SRAM controller state */
 452:Drivers/STM32F4xx_HAL_Driver/Src/stm32f4xx_hal_sram.c ****     hsram->State = HAL_SRAM_STATE_BUSY;
 453:Drivers/STM32F4xx_HAL_Driver/Src/stm32f4xx_hal_sram.c **** 
 454:Drivers/STM32F4xx_HAL_Driver/Src/stm32f4xx_hal_sram.c ****     /* Check if the size is a 32-bits multiple */
 455:Drivers/STM32F4xx_HAL_Driver/Src/stm32f4xx_hal_sram.c ****     limit = (((BufferSize % 2U) != 0U) ? 1U : 0U);
 456:Drivers/STM32F4xx_HAL_Driver/Src/stm32f4xx_hal_sram.c **** 
 457:Drivers/STM32F4xx_HAL_Driver/Src/stm32f4xx_hal_sram.c ****     /* Read data from memory */
 458:Drivers/STM32F4xx_HAL_Driver/Src/stm32f4xx_hal_sram.c ****     for (size = BufferSize; size != limit; size -= 2U)
 459:Drivers/STM32F4xx_HAL_Driver/Src/stm32f4xx_hal_sram.c ****     {
 460:Drivers/STM32F4xx_HAL_Driver/Src/stm32f4xx_hal_sram.c ****       *pdestbuff = (uint16_t)((*psramaddress) & 0x0000FFFFU);
 461:Drivers/STM32F4xx_HAL_Driver/Src/stm32f4xx_hal_sram.c ****       pdestbuff++;
 462:Drivers/STM32F4xx_HAL_Driver/Src/stm32f4xx_hal_sram.c ****       *pdestbuff = (uint16_t)(((*psramaddress) & 0xFFFF0000U) >> 16U);
 463:Drivers/STM32F4xx_HAL_Driver/Src/stm32f4xx_hal_sram.c ****       pdestbuff++;
 464:Drivers/STM32F4xx_HAL_Driver/Src/stm32f4xx_hal_sram.c ****       psramaddress++;
 465:Drivers/STM32F4xx_HAL_Driver/Src/stm32f4xx_hal_sram.c ****     }
 466:Drivers/STM32F4xx_HAL_Driver/Src/stm32f4xx_hal_sram.c **** 
 467:Drivers/STM32F4xx_HAL_Driver/Src/stm32f4xx_hal_sram.c ****     /* Read last 16-bits if size is not 32-bits multiple */
 468:Drivers/STM32F4xx_HAL_Driver/Src/stm32f4xx_hal_sram.c ****     if (limit != 0U)
 469:Drivers/STM32F4xx_HAL_Driver/Src/stm32f4xx_hal_sram.c ****     {
 470:Drivers/STM32F4xx_HAL_Driver/Src/stm32f4xx_hal_sram.c ****       *pdestbuff = (uint16_t)((*psramaddress) & 0x0000FFFFU);
 471:Drivers/STM32F4xx_HAL_Driver/Src/stm32f4xx_hal_sram.c ****     }
 472:Drivers/STM32F4xx_HAL_Driver/Src/stm32f4xx_hal_sram.c **** 
 473:Drivers/STM32F4xx_HAL_Driver/Src/stm32f4xx_hal_sram.c ****     /* Update the SRAM controller state */
 474:Drivers/STM32F4xx_HAL_Driver/Src/stm32f4xx_hal_sram.c ****     hsram->State = state;
 475:Drivers/STM32F4xx_HAL_Driver/Src/stm32f4xx_hal_sram.c **** 
 476:Drivers/STM32F4xx_HAL_Driver/Src/stm32f4xx_hal_sram.c ****     /* Process unlocked */
 477:Drivers/STM32F4xx_HAL_Driver/Src/stm32f4xx_hal_sram.c ****     __HAL_UNLOCK(hsram);
 478:Drivers/STM32F4xx_HAL_Driver/Src/stm32f4xx_hal_sram.c ****   }
 479:Drivers/STM32F4xx_HAL_Driver/Src/stm32f4xx_hal_sram.c ****   else
 480:Drivers/STM32F4xx_HAL_Driver/Src/stm32f4xx_hal_sram.c ****   {
ARM GAS  /tmp/cc6qTBh5.s 			page 14


 481:Drivers/STM32F4xx_HAL_Driver/Src/stm32f4xx_hal_sram.c ****     return HAL_ERROR;
 482:Drivers/STM32F4xx_HAL_Driver/Src/stm32f4xx_hal_sram.c ****   }
 483:Drivers/STM32F4xx_HAL_Driver/Src/stm32f4xx_hal_sram.c **** 
 484:Drivers/STM32F4xx_HAL_Driver/Src/stm32f4xx_hal_sram.c ****   return HAL_OK;
 485:Drivers/STM32F4xx_HAL_Driver/Src/stm32f4xx_hal_sram.c **** }
 486:Drivers/STM32F4xx_HAL_Driver/Src/stm32f4xx_hal_sram.c **** 
 487:Drivers/STM32F4xx_HAL_Driver/Src/stm32f4xx_hal_sram.c **** /**
 488:Drivers/STM32F4xx_HAL_Driver/Src/stm32f4xx_hal_sram.c ****   * @brief  Writes 16-bit buffer to SRAM memory.
 489:Drivers/STM32F4xx_HAL_Driver/Src/stm32f4xx_hal_sram.c ****   * @param  hsram pointer to a SRAM_HandleTypeDef structure that contains
 490:Drivers/STM32F4xx_HAL_Driver/Src/stm32f4xx_hal_sram.c ****   *                the configuration information for SRAM module.
 491:Drivers/STM32F4xx_HAL_Driver/Src/stm32f4xx_hal_sram.c ****   * @param  pAddress Pointer to write start address
 492:Drivers/STM32F4xx_HAL_Driver/Src/stm32f4xx_hal_sram.c ****   * @param  pSrcBuffer Pointer to source buffer to write
 493:Drivers/STM32F4xx_HAL_Driver/Src/stm32f4xx_hal_sram.c ****   * @param  BufferSize Size of the buffer to write to memory
 494:Drivers/STM32F4xx_HAL_Driver/Src/stm32f4xx_hal_sram.c ****   * @retval HAL status
 495:Drivers/STM32F4xx_HAL_Driver/Src/stm32f4xx_hal_sram.c ****   */
 496:Drivers/STM32F4xx_HAL_Driver/Src/stm32f4xx_hal_sram.c **** HAL_StatusTypeDef HAL_SRAM_Write_16b(SRAM_HandleTypeDef *hsram, uint32_t *pAddress, uint16_t *pSrcB
 497:Drivers/STM32F4xx_HAL_Driver/Src/stm32f4xx_hal_sram.c ****                                      uint32_t BufferSize)
 498:Drivers/STM32F4xx_HAL_Driver/Src/stm32f4xx_hal_sram.c **** {
 499:Drivers/STM32F4xx_HAL_Driver/Src/stm32f4xx_hal_sram.c ****   uint32_t size;
 500:Drivers/STM32F4xx_HAL_Driver/Src/stm32f4xx_hal_sram.c ****   __IO uint32_t *psramaddress = pAddress;
 501:Drivers/STM32F4xx_HAL_Driver/Src/stm32f4xx_hal_sram.c ****   uint16_t *psrcbuff = pSrcBuffer;
 502:Drivers/STM32F4xx_HAL_Driver/Src/stm32f4xx_hal_sram.c ****   uint8_t limit;
 503:Drivers/STM32F4xx_HAL_Driver/Src/stm32f4xx_hal_sram.c **** 
 504:Drivers/STM32F4xx_HAL_Driver/Src/stm32f4xx_hal_sram.c ****   /* Check the SRAM controller state */
 505:Drivers/STM32F4xx_HAL_Driver/Src/stm32f4xx_hal_sram.c ****   if (hsram->State == HAL_SRAM_STATE_READY)
 506:Drivers/STM32F4xx_HAL_Driver/Src/stm32f4xx_hal_sram.c ****   {
 507:Drivers/STM32F4xx_HAL_Driver/Src/stm32f4xx_hal_sram.c ****     /* Process Locked */
 508:Drivers/STM32F4xx_HAL_Driver/Src/stm32f4xx_hal_sram.c ****     __HAL_LOCK(hsram);
 509:Drivers/STM32F4xx_HAL_Driver/Src/stm32f4xx_hal_sram.c **** 
 510:Drivers/STM32F4xx_HAL_Driver/Src/stm32f4xx_hal_sram.c ****     /* Update the SRAM controller state */
 511:Drivers/STM32F4xx_HAL_Driver/Src/stm32f4xx_hal_sram.c ****     hsram->State = HAL_SRAM_STATE_BUSY;
 512:Drivers/STM32F4xx_HAL_Driver/Src/stm32f4xx_hal_sram.c **** 
 513:Drivers/STM32F4xx_HAL_Driver/Src/stm32f4xx_hal_sram.c ****     /* Check if the size is a 32-bits multiple */
 514:Drivers/STM32F4xx_HAL_Driver/Src/stm32f4xx_hal_sram.c ****     limit = (((BufferSize % 2U) != 0U) ? 1U : 0U);
 515:Drivers/STM32F4xx_HAL_Driver/Src/stm32f4xx_hal_sram.c **** 
 516:Drivers/STM32F4xx_HAL_Driver/Src/stm32f4xx_hal_sram.c ****     /* Write data to memory */
 517:Drivers/STM32F4xx_HAL_Driver/Src/stm32f4xx_hal_sram.c ****     for (size = BufferSize; size != limit; size -= 2U)
 518:Drivers/STM32F4xx_HAL_Driver/Src/stm32f4xx_hal_sram.c ****     {
 519:Drivers/STM32F4xx_HAL_Driver/Src/stm32f4xx_hal_sram.c ****       *psramaddress = (uint32_t)(*psrcbuff);
 520:Drivers/STM32F4xx_HAL_Driver/Src/stm32f4xx_hal_sram.c ****       psrcbuff++;
 521:Drivers/STM32F4xx_HAL_Driver/Src/stm32f4xx_hal_sram.c ****       *psramaddress |= ((uint32_t)(*psrcbuff) << 16U);
 522:Drivers/STM32F4xx_HAL_Driver/Src/stm32f4xx_hal_sram.c ****       psrcbuff++;
 523:Drivers/STM32F4xx_HAL_Driver/Src/stm32f4xx_hal_sram.c ****       psramaddress++;
 524:Drivers/STM32F4xx_HAL_Driver/Src/stm32f4xx_hal_sram.c ****     }
 525:Drivers/STM32F4xx_HAL_Driver/Src/stm32f4xx_hal_sram.c **** 
 526:Drivers/STM32F4xx_HAL_Driver/Src/stm32f4xx_hal_sram.c ****     /* Write last 16-bits if size is not 32-bits multiple */
 527:Drivers/STM32F4xx_HAL_Driver/Src/stm32f4xx_hal_sram.c ****     if (limit != 0U)
 528:Drivers/STM32F4xx_HAL_Driver/Src/stm32f4xx_hal_sram.c ****     {
 529:Drivers/STM32F4xx_HAL_Driver/Src/stm32f4xx_hal_sram.c ****       *psramaddress = ((uint32_t)(*psrcbuff) & 0x0000FFFFU) | ((*psramaddress) & 0xFFFF0000U);
 530:Drivers/STM32F4xx_HAL_Driver/Src/stm32f4xx_hal_sram.c ****     }
 531:Drivers/STM32F4xx_HAL_Driver/Src/stm32f4xx_hal_sram.c **** 
 532:Drivers/STM32F4xx_HAL_Driver/Src/stm32f4xx_hal_sram.c ****     /* Update the SRAM controller state */
 533:Drivers/STM32F4xx_HAL_Driver/Src/stm32f4xx_hal_sram.c ****     hsram->State = HAL_SRAM_STATE_READY;
 534:Drivers/STM32F4xx_HAL_Driver/Src/stm32f4xx_hal_sram.c **** 
 535:Drivers/STM32F4xx_HAL_Driver/Src/stm32f4xx_hal_sram.c ****     /* Process unlocked */
 536:Drivers/STM32F4xx_HAL_Driver/Src/stm32f4xx_hal_sram.c ****     __HAL_UNLOCK(hsram);
 537:Drivers/STM32F4xx_HAL_Driver/Src/stm32f4xx_hal_sram.c ****   }
ARM GAS  /tmp/cc6qTBh5.s 			page 15


 538:Drivers/STM32F4xx_HAL_Driver/Src/stm32f4xx_hal_sram.c ****   else
 539:Drivers/STM32F4xx_HAL_Driver/Src/stm32f4xx_hal_sram.c ****   {
 540:Drivers/STM32F4xx_HAL_Driver/Src/stm32f4xx_hal_sram.c ****     return HAL_ERROR;
 541:Drivers/STM32F4xx_HAL_Driver/Src/stm32f4xx_hal_sram.c ****   }
 542:Drivers/STM32F4xx_HAL_Driver/Src/stm32f4xx_hal_sram.c **** 
 543:Drivers/STM32F4xx_HAL_Driver/Src/stm32f4xx_hal_sram.c ****   return HAL_OK;
 544:Drivers/STM32F4xx_HAL_Driver/Src/stm32f4xx_hal_sram.c **** }
 545:Drivers/STM32F4xx_HAL_Driver/Src/stm32f4xx_hal_sram.c **** 
 546:Drivers/STM32F4xx_HAL_Driver/Src/stm32f4xx_hal_sram.c **** /**
 547:Drivers/STM32F4xx_HAL_Driver/Src/stm32f4xx_hal_sram.c ****   * @brief  Reads 32-bit buffer from SRAM memory.
 548:Drivers/STM32F4xx_HAL_Driver/Src/stm32f4xx_hal_sram.c ****   * @param  hsram pointer to a SRAM_HandleTypeDef structure that contains
 549:Drivers/STM32F4xx_HAL_Driver/Src/stm32f4xx_hal_sram.c ****   *                the configuration information for SRAM module.
 550:Drivers/STM32F4xx_HAL_Driver/Src/stm32f4xx_hal_sram.c ****   * @param  pAddress Pointer to read start address
 551:Drivers/STM32F4xx_HAL_Driver/Src/stm32f4xx_hal_sram.c ****   * @param  pDstBuffer Pointer to destination buffer
 552:Drivers/STM32F4xx_HAL_Driver/Src/stm32f4xx_hal_sram.c ****   * @param  BufferSize Size of the buffer to read from memory
 553:Drivers/STM32F4xx_HAL_Driver/Src/stm32f4xx_hal_sram.c ****   * @retval HAL status
 554:Drivers/STM32F4xx_HAL_Driver/Src/stm32f4xx_hal_sram.c ****   */
 555:Drivers/STM32F4xx_HAL_Driver/Src/stm32f4xx_hal_sram.c **** HAL_StatusTypeDef HAL_SRAM_Read_32b(SRAM_HandleTypeDef *hsram, uint32_t *pAddress, uint32_t *pDstBu
 556:Drivers/STM32F4xx_HAL_Driver/Src/stm32f4xx_hal_sram.c ****                                     uint32_t BufferSize)
 557:Drivers/STM32F4xx_HAL_Driver/Src/stm32f4xx_hal_sram.c **** {
 558:Drivers/STM32F4xx_HAL_Driver/Src/stm32f4xx_hal_sram.c ****   uint32_t size;
 559:Drivers/STM32F4xx_HAL_Driver/Src/stm32f4xx_hal_sram.c ****   __IO uint32_t *psramaddress = pAddress;
 560:Drivers/STM32F4xx_HAL_Driver/Src/stm32f4xx_hal_sram.c ****   uint32_t *pdestbuff = pDstBuffer;
 561:Drivers/STM32F4xx_HAL_Driver/Src/stm32f4xx_hal_sram.c ****   HAL_SRAM_StateTypeDef state = hsram->State;
 562:Drivers/STM32F4xx_HAL_Driver/Src/stm32f4xx_hal_sram.c **** 
 563:Drivers/STM32F4xx_HAL_Driver/Src/stm32f4xx_hal_sram.c ****   /* Check the SRAM controller state */
 564:Drivers/STM32F4xx_HAL_Driver/Src/stm32f4xx_hal_sram.c ****   if ((state == HAL_SRAM_STATE_READY) || (state == HAL_SRAM_STATE_PROTECTED))
 565:Drivers/STM32F4xx_HAL_Driver/Src/stm32f4xx_hal_sram.c ****   {
 566:Drivers/STM32F4xx_HAL_Driver/Src/stm32f4xx_hal_sram.c ****     /* Process Locked */
 567:Drivers/STM32F4xx_HAL_Driver/Src/stm32f4xx_hal_sram.c ****     __HAL_LOCK(hsram);
 568:Drivers/STM32F4xx_HAL_Driver/Src/stm32f4xx_hal_sram.c **** 
 569:Drivers/STM32F4xx_HAL_Driver/Src/stm32f4xx_hal_sram.c ****     /* Update the SRAM controller state */
 570:Drivers/STM32F4xx_HAL_Driver/Src/stm32f4xx_hal_sram.c ****     hsram->State = HAL_SRAM_STATE_BUSY;
 571:Drivers/STM32F4xx_HAL_Driver/Src/stm32f4xx_hal_sram.c **** 
 572:Drivers/STM32F4xx_HAL_Driver/Src/stm32f4xx_hal_sram.c ****     /* Read data from memory */
 573:Drivers/STM32F4xx_HAL_Driver/Src/stm32f4xx_hal_sram.c ****     for (size = BufferSize; size != 0U; size--)
 574:Drivers/STM32F4xx_HAL_Driver/Src/stm32f4xx_hal_sram.c ****     {
 575:Drivers/STM32F4xx_HAL_Driver/Src/stm32f4xx_hal_sram.c ****       *pdestbuff = *psramaddress;
 576:Drivers/STM32F4xx_HAL_Driver/Src/stm32f4xx_hal_sram.c ****       pdestbuff++;
 577:Drivers/STM32F4xx_HAL_Driver/Src/stm32f4xx_hal_sram.c ****       psramaddress++;
 578:Drivers/STM32F4xx_HAL_Driver/Src/stm32f4xx_hal_sram.c ****     }
 579:Drivers/STM32F4xx_HAL_Driver/Src/stm32f4xx_hal_sram.c **** 
 580:Drivers/STM32F4xx_HAL_Driver/Src/stm32f4xx_hal_sram.c ****     /* Update the SRAM controller state */
 581:Drivers/STM32F4xx_HAL_Driver/Src/stm32f4xx_hal_sram.c ****     hsram->State = state;
 582:Drivers/STM32F4xx_HAL_Driver/Src/stm32f4xx_hal_sram.c **** 
 583:Drivers/STM32F4xx_HAL_Driver/Src/stm32f4xx_hal_sram.c ****     /* Process unlocked */
 584:Drivers/STM32F4xx_HAL_Driver/Src/stm32f4xx_hal_sram.c ****     __HAL_UNLOCK(hsram);
 585:Drivers/STM32F4xx_HAL_Driver/Src/stm32f4xx_hal_sram.c ****   }
 586:Drivers/STM32F4xx_HAL_Driver/Src/stm32f4xx_hal_sram.c ****   else
 587:Drivers/STM32F4xx_HAL_Driver/Src/stm32f4xx_hal_sram.c ****   {
 588:Drivers/STM32F4xx_HAL_Driver/Src/stm32f4xx_hal_sram.c ****     return HAL_ERROR;
 589:Drivers/STM32F4xx_HAL_Driver/Src/stm32f4xx_hal_sram.c ****   }
 590:Drivers/STM32F4xx_HAL_Driver/Src/stm32f4xx_hal_sram.c **** 
 591:Drivers/STM32F4xx_HAL_Driver/Src/stm32f4xx_hal_sram.c ****   return HAL_OK;
 592:Drivers/STM32F4xx_HAL_Driver/Src/stm32f4xx_hal_sram.c **** }
 593:Drivers/STM32F4xx_HAL_Driver/Src/stm32f4xx_hal_sram.c **** 
 594:Drivers/STM32F4xx_HAL_Driver/Src/stm32f4xx_hal_sram.c **** /**
ARM GAS  /tmp/cc6qTBh5.s 			page 16


 595:Drivers/STM32F4xx_HAL_Driver/Src/stm32f4xx_hal_sram.c ****   * @brief  Writes 32-bit buffer to SRAM memory.
 596:Drivers/STM32F4xx_HAL_Driver/Src/stm32f4xx_hal_sram.c ****   * @param  hsram pointer to a SRAM_HandleTypeDef structure that contains
 597:Drivers/STM32F4xx_HAL_Driver/Src/stm32f4xx_hal_sram.c ****   *                the configuration information for SRAM module.
 598:Drivers/STM32F4xx_HAL_Driver/Src/stm32f4xx_hal_sram.c ****   * @param  pAddress Pointer to write start address
 599:Drivers/STM32F4xx_HAL_Driver/Src/stm32f4xx_hal_sram.c ****   * @param  pSrcBuffer Pointer to source buffer to write
 600:Drivers/STM32F4xx_HAL_Driver/Src/stm32f4xx_hal_sram.c ****   * @param  BufferSize Size of the buffer to write to memory
 601:Drivers/STM32F4xx_HAL_Driver/Src/stm32f4xx_hal_sram.c ****   * @retval HAL status
 602:Drivers/STM32F4xx_HAL_Driver/Src/stm32f4xx_hal_sram.c ****   */
 603:Drivers/STM32F4xx_HAL_Driver/Src/stm32f4xx_hal_sram.c **** HAL_StatusTypeDef HAL_SRAM_Write_32b(SRAM_HandleTypeDef *hsram, uint32_t *pAddress, uint32_t *pSrcB
 604:Drivers/STM32F4xx_HAL_Driver/Src/stm32f4xx_hal_sram.c ****                                      uint32_t BufferSize)
 605:Drivers/STM32F4xx_HAL_Driver/Src/stm32f4xx_hal_sram.c **** {
 606:Drivers/STM32F4xx_HAL_Driver/Src/stm32f4xx_hal_sram.c ****   uint32_t size;
 607:Drivers/STM32F4xx_HAL_Driver/Src/stm32f4xx_hal_sram.c ****   __IO uint32_t *psramaddress = pAddress;
 608:Drivers/STM32F4xx_HAL_Driver/Src/stm32f4xx_hal_sram.c ****   uint32_t *psrcbuff = pSrcBuffer;
 609:Drivers/STM32F4xx_HAL_Driver/Src/stm32f4xx_hal_sram.c **** 
 610:Drivers/STM32F4xx_HAL_Driver/Src/stm32f4xx_hal_sram.c ****   /* Check the SRAM controller state */
 611:Drivers/STM32F4xx_HAL_Driver/Src/stm32f4xx_hal_sram.c ****   if (hsram->State == HAL_SRAM_STATE_READY)
 612:Drivers/STM32F4xx_HAL_Driver/Src/stm32f4xx_hal_sram.c ****   {
 613:Drivers/STM32F4xx_HAL_Driver/Src/stm32f4xx_hal_sram.c ****     /* Process Locked */
 614:Drivers/STM32F4xx_HAL_Driver/Src/stm32f4xx_hal_sram.c ****     __HAL_LOCK(hsram);
 615:Drivers/STM32F4xx_HAL_Driver/Src/stm32f4xx_hal_sram.c **** 
 616:Drivers/STM32F4xx_HAL_Driver/Src/stm32f4xx_hal_sram.c ****     /* Update the SRAM controller state */
 617:Drivers/STM32F4xx_HAL_Driver/Src/stm32f4xx_hal_sram.c ****     hsram->State = HAL_SRAM_STATE_BUSY;
 618:Drivers/STM32F4xx_HAL_Driver/Src/stm32f4xx_hal_sram.c **** 
 619:Drivers/STM32F4xx_HAL_Driver/Src/stm32f4xx_hal_sram.c ****     /* Write data to memory */
 620:Drivers/STM32F4xx_HAL_Driver/Src/stm32f4xx_hal_sram.c ****     for (size = BufferSize; size != 0U; size--)
 621:Drivers/STM32F4xx_HAL_Driver/Src/stm32f4xx_hal_sram.c ****     {
 622:Drivers/STM32F4xx_HAL_Driver/Src/stm32f4xx_hal_sram.c ****       *psramaddress = *psrcbuff;
 623:Drivers/STM32F4xx_HAL_Driver/Src/stm32f4xx_hal_sram.c ****       psrcbuff++;
 624:Drivers/STM32F4xx_HAL_Driver/Src/stm32f4xx_hal_sram.c ****       psramaddress++;
 625:Drivers/STM32F4xx_HAL_Driver/Src/stm32f4xx_hal_sram.c ****     }
 626:Drivers/STM32F4xx_HAL_Driver/Src/stm32f4xx_hal_sram.c **** 
 627:Drivers/STM32F4xx_HAL_Driver/Src/stm32f4xx_hal_sram.c ****     /* Update the SRAM controller state */
 628:Drivers/STM32F4xx_HAL_Driver/Src/stm32f4xx_hal_sram.c ****     hsram->State = HAL_SRAM_STATE_READY;
 629:Drivers/STM32F4xx_HAL_Driver/Src/stm32f4xx_hal_sram.c **** 
 630:Drivers/STM32F4xx_HAL_Driver/Src/stm32f4xx_hal_sram.c ****     /* Process unlocked */
 631:Drivers/STM32F4xx_HAL_Driver/Src/stm32f4xx_hal_sram.c ****     __HAL_UNLOCK(hsram);
 632:Drivers/STM32F4xx_HAL_Driver/Src/stm32f4xx_hal_sram.c ****   }
 633:Drivers/STM32F4xx_HAL_Driver/Src/stm32f4xx_hal_sram.c ****   else
 634:Drivers/STM32F4xx_HAL_Driver/Src/stm32f4xx_hal_sram.c ****   {
 635:Drivers/STM32F4xx_HAL_Driver/Src/stm32f4xx_hal_sram.c ****     return HAL_ERROR;
 636:Drivers/STM32F4xx_HAL_Driver/Src/stm32f4xx_hal_sram.c ****   }
 637:Drivers/STM32F4xx_HAL_Driver/Src/stm32f4xx_hal_sram.c **** 
 638:Drivers/STM32F4xx_HAL_Driver/Src/stm32f4xx_hal_sram.c ****   return HAL_OK;
 639:Drivers/STM32F4xx_HAL_Driver/Src/stm32f4xx_hal_sram.c **** }
 640:Drivers/STM32F4xx_HAL_Driver/Src/stm32f4xx_hal_sram.c **** 
 641:Drivers/STM32F4xx_HAL_Driver/Src/stm32f4xx_hal_sram.c **** /**
 642:Drivers/STM32F4xx_HAL_Driver/Src/stm32f4xx_hal_sram.c ****   * @brief  Reads a Words data from the SRAM memory using DMA transfer.
 643:Drivers/STM32F4xx_HAL_Driver/Src/stm32f4xx_hal_sram.c ****   * @param  hsram pointer to a SRAM_HandleTypeDef structure that contains
 644:Drivers/STM32F4xx_HAL_Driver/Src/stm32f4xx_hal_sram.c ****   *                the configuration information for SRAM module.
 645:Drivers/STM32F4xx_HAL_Driver/Src/stm32f4xx_hal_sram.c ****   * @param  pAddress Pointer to read start address
 646:Drivers/STM32F4xx_HAL_Driver/Src/stm32f4xx_hal_sram.c ****   * @param  pDstBuffer Pointer to destination buffer
 647:Drivers/STM32F4xx_HAL_Driver/Src/stm32f4xx_hal_sram.c ****   * @param  BufferSize Size of the buffer to read from memory
 648:Drivers/STM32F4xx_HAL_Driver/Src/stm32f4xx_hal_sram.c ****   * @retval HAL status
 649:Drivers/STM32F4xx_HAL_Driver/Src/stm32f4xx_hal_sram.c ****   */
 650:Drivers/STM32F4xx_HAL_Driver/Src/stm32f4xx_hal_sram.c **** HAL_StatusTypeDef HAL_SRAM_Read_DMA(SRAM_HandleTypeDef *hsram, uint32_t *pAddress, uint32_t *pDstBu
 651:Drivers/STM32F4xx_HAL_Driver/Src/stm32f4xx_hal_sram.c ****                                     uint32_t BufferSize)
ARM GAS  /tmp/cc6qTBh5.s 			page 17


 652:Drivers/STM32F4xx_HAL_Driver/Src/stm32f4xx_hal_sram.c **** {
 653:Drivers/STM32F4xx_HAL_Driver/Src/stm32f4xx_hal_sram.c ****   HAL_StatusTypeDef status;
 654:Drivers/STM32F4xx_HAL_Driver/Src/stm32f4xx_hal_sram.c ****   HAL_SRAM_StateTypeDef state = hsram->State;
 655:Drivers/STM32F4xx_HAL_Driver/Src/stm32f4xx_hal_sram.c **** 
 656:Drivers/STM32F4xx_HAL_Driver/Src/stm32f4xx_hal_sram.c ****   /* Check the SRAM controller state */
 657:Drivers/STM32F4xx_HAL_Driver/Src/stm32f4xx_hal_sram.c ****   if ((state == HAL_SRAM_STATE_READY) || (state == HAL_SRAM_STATE_PROTECTED))
 658:Drivers/STM32F4xx_HAL_Driver/Src/stm32f4xx_hal_sram.c ****   {
 659:Drivers/STM32F4xx_HAL_Driver/Src/stm32f4xx_hal_sram.c ****     /* Process Locked */
 660:Drivers/STM32F4xx_HAL_Driver/Src/stm32f4xx_hal_sram.c ****     __HAL_LOCK(hsram);
 661:Drivers/STM32F4xx_HAL_Driver/Src/stm32f4xx_hal_sram.c **** 
 662:Drivers/STM32F4xx_HAL_Driver/Src/stm32f4xx_hal_sram.c ****     /* Update the SRAM controller state */
 663:Drivers/STM32F4xx_HAL_Driver/Src/stm32f4xx_hal_sram.c ****     hsram->State = HAL_SRAM_STATE_BUSY;
 664:Drivers/STM32F4xx_HAL_Driver/Src/stm32f4xx_hal_sram.c **** 
 665:Drivers/STM32F4xx_HAL_Driver/Src/stm32f4xx_hal_sram.c ****     /* Configure DMA user callbacks */
 666:Drivers/STM32F4xx_HAL_Driver/Src/stm32f4xx_hal_sram.c ****     if (state == HAL_SRAM_STATE_READY)
 667:Drivers/STM32F4xx_HAL_Driver/Src/stm32f4xx_hal_sram.c ****     {
 668:Drivers/STM32F4xx_HAL_Driver/Src/stm32f4xx_hal_sram.c ****       hsram->hdma->XferCpltCallback = SRAM_DMACplt;
 669:Drivers/STM32F4xx_HAL_Driver/Src/stm32f4xx_hal_sram.c ****     }
 670:Drivers/STM32F4xx_HAL_Driver/Src/stm32f4xx_hal_sram.c ****     else
 671:Drivers/STM32F4xx_HAL_Driver/Src/stm32f4xx_hal_sram.c ****     {
 672:Drivers/STM32F4xx_HAL_Driver/Src/stm32f4xx_hal_sram.c ****       hsram->hdma->XferCpltCallback = SRAM_DMACpltProt;
 673:Drivers/STM32F4xx_HAL_Driver/Src/stm32f4xx_hal_sram.c ****     }
 674:Drivers/STM32F4xx_HAL_Driver/Src/stm32f4xx_hal_sram.c ****     hsram->hdma->XferErrorCallback = SRAM_DMAError;
 675:Drivers/STM32F4xx_HAL_Driver/Src/stm32f4xx_hal_sram.c **** 
 676:Drivers/STM32F4xx_HAL_Driver/Src/stm32f4xx_hal_sram.c ****     /* Enable the DMA Stream */
 677:Drivers/STM32F4xx_HAL_Driver/Src/stm32f4xx_hal_sram.c ****     status = HAL_DMA_Start_IT(hsram->hdma, (uint32_t)pAddress, (uint32_t)pDstBuffer, (uint32_t)Buff
 678:Drivers/STM32F4xx_HAL_Driver/Src/stm32f4xx_hal_sram.c **** 
 679:Drivers/STM32F4xx_HAL_Driver/Src/stm32f4xx_hal_sram.c ****     /* Process unlocked */
 680:Drivers/STM32F4xx_HAL_Driver/Src/stm32f4xx_hal_sram.c ****     __HAL_UNLOCK(hsram);
 681:Drivers/STM32F4xx_HAL_Driver/Src/stm32f4xx_hal_sram.c ****   }
 682:Drivers/STM32F4xx_HAL_Driver/Src/stm32f4xx_hal_sram.c ****   else
 683:Drivers/STM32F4xx_HAL_Driver/Src/stm32f4xx_hal_sram.c ****   {
 684:Drivers/STM32F4xx_HAL_Driver/Src/stm32f4xx_hal_sram.c ****     status = HAL_ERROR;
 685:Drivers/STM32F4xx_HAL_Driver/Src/stm32f4xx_hal_sram.c ****   }
 686:Drivers/STM32F4xx_HAL_Driver/Src/stm32f4xx_hal_sram.c **** 
 687:Drivers/STM32F4xx_HAL_Driver/Src/stm32f4xx_hal_sram.c ****   return status;
 688:Drivers/STM32F4xx_HAL_Driver/Src/stm32f4xx_hal_sram.c **** }
 689:Drivers/STM32F4xx_HAL_Driver/Src/stm32f4xx_hal_sram.c **** 
 690:Drivers/STM32F4xx_HAL_Driver/Src/stm32f4xx_hal_sram.c **** /**
 691:Drivers/STM32F4xx_HAL_Driver/Src/stm32f4xx_hal_sram.c ****   * @brief  Writes a Words data buffer to SRAM memory using DMA transfer.
 692:Drivers/STM32F4xx_HAL_Driver/Src/stm32f4xx_hal_sram.c ****   * @param  hsram pointer to a SRAM_HandleTypeDef structure that contains
 693:Drivers/STM32F4xx_HAL_Driver/Src/stm32f4xx_hal_sram.c ****   *                the configuration information for SRAM module.
 694:Drivers/STM32F4xx_HAL_Driver/Src/stm32f4xx_hal_sram.c ****   * @param  pAddress Pointer to write start address
 695:Drivers/STM32F4xx_HAL_Driver/Src/stm32f4xx_hal_sram.c ****   * @param  pSrcBuffer Pointer to source buffer to write
 696:Drivers/STM32F4xx_HAL_Driver/Src/stm32f4xx_hal_sram.c ****   * @param  BufferSize Size of the buffer to write to memory
 697:Drivers/STM32F4xx_HAL_Driver/Src/stm32f4xx_hal_sram.c ****   * @retval HAL status
 698:Drivers/STM32F4xx_HAL_Driver/Src/stm32f4xx_hal_sram.c ****   */
 699:Drivers/STM32F4xx_HAL_Driver/Src/stm32f4xx_hal_sram.c **** HAL_StatusTypeDef HAL_SRAM_Write_DMA(SRAM_HandleTypeDef *hsram, uint32_t *pAddress, uint32_t *pSrcB
 700:Drivers/STM32F4xx_HAL_Driver/Src/stm32f4xx_hal_sram.c ****                                      uint32_t BufferSize)
 701:Drivers/STM32F4xx_HAL_Driver/Src/stm32f4xx_hal_sram.c **** {
 702:Drivers/STM32F4xx_HAL_Driver/Src/stm32f4xx_hal_sram.c ****   HAL_StatusTypeDef status;
 703:Drivers/STM32F4xx_HAL_Driver/Src/stm32f4xx_hal_sram.c **** 
 704:Drivers/STM32F4xx_HAL_Driver/Src/stm32f4xx_hal_sram.c ****   /* Check the SRAM controller state */
 705:Drivers/STM32F4xx_HAL_Driver/Src/stm32f4xx_hal_sram.c ****   if (hsram->State == HAL_SRAM_STATE_READY)
 706:Drivers/STM32F4xx_HAL_Driver/Src/stm32f4xx_hal_sram.c ****   {
 707:Drivers/STM32F4xx_HAL_Driver/Src/stm32f4xx_hal_sram.c ****     /* Process Locked */
 708:Drivers/STM32F4xx_HAL_Driver/Src/stm32f4xx_hal_sram.c ****     __HAL_LOCK(hsram);
ARM GAS  /tmp/cc6qTBh5.s 			page 18


 709:Drivers/STM32F4xx_HAL_Driver/Src/stm32f4xx_hal_sram.c **** 
 710:Drivers/STM32F4xx_HAL_Driver/Src/stm32f4xx_hal_sram.c ****     /* Update the SRAM controller state */
 711:Drivers/STM32F4xx_HAL_Driver/Src/stm32f4xx_hal_sram.c ****     hsram->State = HAL_SRAM_STATE_BUSY;
 712:Drivers/STM32F4xx_HAL_Driver/Src/stm32f4xx_hal_sram.c **** 
 713:Drivers/STM32F4xx_HAL_Driver/Src/stm32f4xx_hal_sram.c ****     /* Configure DMA user callbacks */
 714:Drivers/STM32F4xx_HAL_Driver/Src/stm32f4xx_hal_sram.c ****     hsram->hdma->XferCpltCallback = SRAM_DMACplt;
 715:Drivers/STM32F4xx_HAL_Driver/Src/stm32f4xx_hal_sram.c ****     hsram->hdma->XferErrorCallback = SRAM_DMAError;
 716:Drivers/STM32F4xx_HAL_Driver/Src/stm32f4xx_hal_sram.c **** 
 717:Drivers/STM32F4xx_HAL_Driver/Src/stm32f4xx_hal_sram.c ****     /* Enable the DMA Stream */
 718:Drivers/STM32F4xx_HAL_Driver/Src/stm32f4xx_hal_sram.c ****     status = HAL_DMA_Start_IT(hsram->hdma, (uint32_t)pSrcBuffer, (uint32_t)pAddress, (uint32_t)Buff
 719:Drivers/STM32F4xx_HAL_Driver/Src/stm32f4xx_hal_sram.c **** 
 720:Drivers/STM32F4xx_HAL_Driver/Src/stm32f4xx_hal_sram.c ****     /* Process unlocked */
 721:Drivers/STM32F4xx_HAL_Driver/Src/stm32f4xx_hal_sram.c ****     __HAL_UNLOCK(hsram);
 722:Drivers/STM32F4xx_HAL_Driver/Src/stm32f4xx_hal_sram.c ****   }
 723:Drivers/STM32F4xx_HAL_Driver/Src/stm32f4xx_hal_sram.c ****   else
 724:Drivers/STM32F4xx_HAL_Driver/Src/stm32f4xx_hal_sram.c ****   {
 725:Drivers/STM32F4xx_HAL_Driver/Src/stm32f4xx_hal_sram.c ****     status = HAL_ERROR;
 726:Drivers/STM32F4xx_HAL_Driver/Src/stm32f4xx_hal_sram.c ****   }
 727:Drivers/STM32F4xx_HAL_Driver/Src/stm32f4xx_hal_sram.c **** 
 728:Drivers/STM32F4xx_HAL_Driver/Src/stm32f4xx_hal_sram.c ****   return status;
 729:Drivers/STM32F4xx_HAL_Driver/Src/stm32f4xx_hal_sram.c **** }
 730:Drivers/STM32F4xx_HAL_Driver/Src/stm32f4xx_hal_sram.c **** 
 731:Drivers/STM32F4xx_HAL_Driver/Src/stm32f4xx_hal_sram.c **** #if (USE_HAL_SRAM_REGISTER_CALLBACKS == 1)
 732:Drivers/STM32F4xx_HAL_Driver/Src/stm32f4xx_hal_sram.c **** /**
 733:Drivers/STM32F4xx_HAL_Driver/Src/stm32f4xx_hal_sram.c ****   * @brief  Register a User SRAM Callback
 734:Drivers/STM32F4xx_HAL_Driver/Src/stm32f4xx_hal_sram.c ****   *         To be used instead of the weak (surcharged) predefined callback
 735:Drivers/STM32F4xx_HAL_Driver/Src/stm32f4xx_hal_sram.c ****   * @param hsram : SRAM handle
 736:Drivers/STM32F4xx_HAL_Driver/Src/stm32f4xx_hal_sram.c ****   * @param CallbackId : ID of the callback to be registered
 737:Drivers/STM32F4xx_HAL_Driver/Src/stm32f4xx_hal_sram.c ****   *        This parameter can be one of the following values:
 738:Drivers/STM32F4xx_HAL_Driver/Src/stm32f4xx_hal_sram.c ****   *          @arg @ref HAL_SRAM_MSP_INIT_CB_ID       SRAM MspInit callback ID
 739:Drivers/STM32F4xx_HAL_Driver/Src/stm32f4xx_hal_sram.c ****   *          @arg @ref HAL_SRAM_MSP_DEINIT_CB_ID     SRAM MspDeInit callback ID
 740:Drivers/STM32F4xx_HAL_Driver/Src/stm32f4xx_hal_sram.c ****   * @param pCallback : pointer to the Callback function
 741:Drivers/STM32F4xx_HAL_Driver/Src/stm32f4xx_hal_sram.c ****   * @retval status
 742:Drivers/STM32F4xx_HAL_Driver/Src/stm32f4xx_hal_sram.c ****   */
 743:Drivers/STM32F4xx_HAL_Driver/Src/stm32f4xx_hal_sram.c **** HAL_StatusTypeDef HAL_SRAM_RegisterCallback(SRAM_HandleTypeDef *hsram, HAL_SRAM_CallbackIDTypeDef C
 744:Drivers/STM32F4xx_HAL_Driver/Src/stm32f4xx_hal_sram.c ****                                             pSRAM_CallbackTypeDef pCallback)
 745:Drivers/STM32F4xx_HAL_Driver/Src/stm32f4xx_hal_sram.c **** {
 746:Drivers/STM32F4xx_HAL_Driver/Src/stm32f4xx_hal_sram.c ****   HAL_StatusTypeDef status = HAL_OK;
 747:Drivers/STM32F4xx_HAL_Driver/Src/stm32f4xx_hal_sram.c ****   HAL_SRAM_StateTypeDef state;
 748:Drivers/STM32F4xx_HAL_Driver/Src/stm32f4xx_hal_sram.c **** 
 749:Drivers/STM32F4xx_HAL_Driver/Src/stm32f4xx_hal_sram.c ****   if (pCallback == NULL)
 750:Drivers/STM32F4xx_HAL_Driver/Src/stm32f4xx_hal_sram.c ****   {
 751:Drivers/STM32F4xx_HAL_Driver/Src/stm32f4xx_hal_sram.c ****     return HAL_ERROR;
 752:Drivers/STM32F4xx_HAL_Driver/Src/stm32f4xx_hal_sram.c ****   }
 753:Drivers/STM32F4xx_HAL_Driver/Src/stm32f4xx_hal_sram.c **** 
 754:Drivers/STM32F4xx_HAL_Driver/Src/stm32f4xx_hal_sram.c ****   /* Process locked */
 755:Drivers/STM32F4xx_HAL_Driver/Src/stm32f4xx_hal_sram.c ****   __HAL_LOCK(hsram);
 756:Drivers/STM32F4xx_HAL_Driver/Src/stm32f4xx_hal_sram.c **** 
 757:Drivers/STM32F4xx_HAL_Driver/Src/stm32f4xx_hal_sram.c ****   state = hsram->State;
 758:Drivers/STM32F4xx_HAL_Driver/Src/stm32f4xx_hal_sram.c ****   if ((state == HAL_SRAM_STATE_READY) || (state == HAL_SRAM_STATE_RESET) || (state == HAL_SRAM_STAT
 759:Drivers/STM32F4xx_HAL_Driver/Src/stm32f4xx_hal_sram.c ****   {
 760:Drivers/STM32F4xx_HAL_Driver/Src/stm32f4xx_hal_sram.c ****     switch (CallbackId)
 761:Drivers/STM32F4xx_HAL_Driver/Src/stm32f4xx_hal_sram.c ****     {
 762:Drivers/STM32F4xx_HAL_Driver/Src/stm32f4xx_hal_sram.c ****       case HAL_SRAM_MSP_INIT_CB_ID :
 763:Drivers/STM32F4xx_HAL_Driver/Src/stm32f4xx_hal_sram.c ****         hsram->MspInitCallback = pCallback;
 764:Drivers/STM32F4xx_HAL_Driver/Src/stm32f4xx_hal_sram.c ****         break;
 765:Drivers/STM32F4xx_HAL_Driver/Src/stm32f4xx_hal_sram.c ****       case HAL_SRAM_MSP_DEINIT_CB_ID :
ARM GAS  /tmp/cc6qTBh5.s 			page 19


 766:Drivers/STM32F4xx_HAL_Driver/Src/stm32f4xx_hal_sram.c ****         hsram->MspDeInitCallback = pCallback;
 767:Drivers/STM32F4xx_HAL_Driver/Src/stm32f4xx_hal_sram.c ****         break;
 768:Drivers/STM32F4xx_HAL_Driver/Src/stm32f4xx_hal_sram.c ****       default :
 769:Drivers/STM32F4xx_HAL_Driver/Src/stm32f4xx_hal_sram.c ****         /* update return status */
 770:Drivers/STM32F4xx_HAL_Driver/Src/stm32f4xx_hal_sram.c ****         status =  HAL_ERROR;
 771:Drivers/STM32F4xx_HAL_Driver/Src/stm32f4xx_hal_sram.c ****         break;
 772:Drivers/STM32F4xx_HAL_Driver/Src/stm32f4xx_hal_sram.c ****     }
 773:Drivers/STM32F4xx_HAL_Driver/Src/stm32f4xx_hal_sram.c ****   }
 774:Drivers/STM32F4xx_HAL_Driver/Src/stm32f4xx_hal_sram.c ****   else
 775:Drivers/STM32F4xx_HAL_Driver/Src/stm32f4xx_hal_sram.c ****   {
 776:Drivers/STM32F4xx_HAL_Driver/Src/stm32f4xx_hal_sram.c ****     /* update return status */
 777:Drivers/STM32F4xx_HAL_Driver/Src/stm32f4xx_hal_sram.c ****     status =  HAL_ERROR;
 778:Drivers/STM32F4xx_HAL_Driver/Src/stm32f4xx_hal_sram.c ****   }
 779:Drivers/STM32F4xx_HAL_Driver/Src/stm32f4xx_hal_sram.c **** 
 780:Drivers/STM32F4xx_HAL_Driver/Src/stm32f4xx_hal_sram.c ****   /* Release Lock */
 781:Drivers/STM32F4xx_HAL_Driver/Src/stm32f4xx_hal_sram.c ****   __HAL_UNLOCK(hsram);
 782:Drivers/STM32F4xx_HAL_Driver/Src/stm32f4xx_hal_sram.c ****   return status;
 783:Drivers/STM32F4xx_HAL_Driver/Src/stm32f4xx_hal_sram.c **** }
 784:Drivers/STM32F4xx_HAL_Driver/Src/stm32f4xx_hal_sram.c **** 
 785:Drivers/STM32F4xx_HAL_Driver/Src/stm32f4xx_hal_sram.c **** /**
 786:Drivers/STM32F4xx_HAL_Driver/Src/stm32f4xx_hal_sram.c ****   * @brief  Unregister a User SRAM Callback
 787:Drivers/STM32F4xx_HAL_Driver/Src/stm32f4xx_hal_sram.c ****   *         SRAM Callback is redirected to the weak (surcharged) predefined callback
 788:Drivers/STM32F4xx_HAL_Driver/Src/stm32f4xx_hal_sram.c ****   * @param hsram : SRAM handle
 789:Drivers/STM32F4xx_HAL_Driver/Src/stm32f4xx_hal_sram.c ****   * @param CallbackId : ID of the callback to be unregistered
 790:Drivers/STM32F4xx_HAL_Driver/Src/stm32f4xx_hal_sram.c ****   *        This parameter can be one of the following values:
 791:Drivers/STM32F4xx_HAL_Driver/Src/stm32f4xx_hal_sram.c ****   *          @arg @ref HAL_SRAM_MSP_INIT_CB_ID       SRAM MspInit callback ID
 792:Drivers/STM32F4xx_HAL_Driver/Src/stm32f4xx_hal_sram.c ****   *          @arg @ref HAL_SRAM_MSP_DEINIT_CB_ID     SRAM MspDeInit callback ID
 793:Drivers/STM32F4xx_HAL_Driver/Src/stm32f4xx_hal_sram.c ****   *          @arg @ref HAL_SRAM_DMA_XFER_CPLT_CB_ID  SRAM DMA Xfer Complete callback ID
 794:Drivers/STM32F4xx_HAL_Driver/Src/stm32f4xx_hal_sram.c ****   *          @arg @ref HAL_SRAM_DMA_XFER_ERR_CB_ID   SRAM DMA Xfer Error callback ID
 795:Drivers/STM32F4xx_HAL_Driver/Src/stm32f4xx_hal_sram.c ****   * @retval status
 796:Drivers/STM32F4xx_HAL_Driver/Src/stm32f4xx_hal_sram.c ****   */
 797:Drivers/STM32F4xx_HAL_Driver/Src/stm32f4xx_hal_sram.c **** HAL_StatusTypeDef HAL_SRAM_UnRegisterCallback(SRAM_HandleTypeDef *hsram, HAL_SRAM_CallbackIDTypeDef
 798:Drivers/STM32F4xx_HAL_Driver/Src/stm32f4xx_hal_sram.c **** {
 799:Drivers/STM32F4xx_HAL_Driver/Src/stm32f4xx_hal_sram.c ****   HAL_StatusTypeDef status = HAL_OK;
 800:Drivers/STM32F4xx_HAL_Driver/Src/stm32f4xx_hal_sram.c ****   HAL_SRAM_StateTypeDef state;
 801:Drivers/STM32F4xx_HAL_Driver/Src/stm32f4xx_hal_sram.c **** 
 802:Drivers/STM32F4xx_HAL_Driver/Src/stm32f4xx_hal_sram.c ****   /* Process locked */
 803:Drivers/STM32F4xx_HAL_Driver/Src/stm32f4xx_hal_sram.c ****   __HAL_LOCK(hsram);
 804:Drivers/STM32F4xx_HAL_Driver/Src/stm32f4xx_hal_sram.c **** 
 805:Drivers/STM32F4xx_HAL_Driver/Src/stm32f4xx_hal_sram.c ****   state = hsram->State;
 806:Drivers/STM32F4xx_HAL_Driver/Src/stm32f4xx_hal_sram.c ****   if ((state == HAL_SRAM_STATE_READY) || (state == HAL_SRAM_STATE_PROTECTED))
 807:Drivers/STM32F4xx_HAL_Driver/Src/stm32f4xx_hal_sram.c ****   {
 808:Drivers/STM32F4xx_HAL_Driver/Src/stm32f4xx_hal_sram.c ****     switch (CallbackId)
 809:Drivers/STM32F4xx_HAL_Driver/Src/stm32f4xx_hal_sram.c ****     {
 810:Drivers/STM32F4xx_HAL_Driver/Src/stm32f4xx_hal_sram.c ****       case HAL_SRAM_MSP_INIT_CB_ID :
 811:Drivers/STM32F4xx_HAL_Driver/Src/stm32f4xx_hal_sram.c ****         hsram->MspInitCallback = HAL_SRAM_MspInit;
 812:Drivers/STM32F4xx_HAL_Driver/Src/stm32f4xx_hal_sram.c ****         break;
 813:Drivers/STM32F4xx_HAL_Driver/Src/stm32f4xx_hal_sram.c ****       case HAL_SRAM_MSP_DEINIT_CB_ID :
 814:Drivers/STM32F4xx_HAL_Driver/Src/stm32f4xx_hal_sram.c ****         hsram->MspDeInitCallback = HAL_SRAM_MspDeInit;
 815:Drivers/STM32F4xx_HAL_Driver/Src/stm32f4xx_hal_sram.c ****         break;
 816:Drivers/STM32F4xx_HAL_Driver/Src/stm32f4xx_hal_sram.c ****       case HAL_SRAM_DMA_XFER_CPLT_CB_ID :
 817:Drivers/STM32F4xx_HAL_Driver/Src/stm32f4xx_hal_sram.c ****         hsram->DmaXferCpltCallback = HAL_SRAM_DMA_XferCpltCallback;
 818:Drivers/STM32F4xx_HAL_Driver/Src/stm32f4xx_hal_sram.c ****         break;
 819:Drivers/STM32F4xx_HAL_Driver/Src/stm32f4xx_hal_sram.c ****       case HAL_SRAM_DMA_XFER_ERR_CB_ID :
 820:Drivers/STM32F4xx_HAL_Driver/Src/stm32f4xx_hal_sram.c ****         hsram->DmaXferErrorCallback = HAL_SRAM_DMA_XferErrorCallback;
 821:Drivers/STM32F4xx_HAL_Driver/Src/stm32f4xx_hal_sram.c ****         break;
 822:Drivers/STM32F4xx_HAL_Driver/Src/stm32f4xx_hal_sram.c ****       default :
ARM GAS  /tmp/cc6qTBh5.s 			page 20


 823:Drivers/STM32F4xx_HAL_Driver/Src/stm32f4xx_hal_sram.c ****         /* update return status */
 824:Drivers/STM32F4xx_HAL_Driver/Src/stm32f4xx_hal_sram.c ****         status =  HAL_ERROR;
 825:Drivers/STM32F4xx_HAL_Driver/Src/stm32f4xx_hal_sram.c ****         break;
 826:Drivers/STM32F4xx_HAL_Driver/Src/stm32f4xx_hal_sram.c ****     }
 827:Drivers/STM32F4xx_HAL_Driver/Src/stm32f4xx_hal_sram.c ****   }
 828:Drivers/STM32F4xx_HAL_Driver/Src/stm32f4xx_hal_sram.c ****   else if (state == HAL_SRAM_STATE_RESET)
 829:Drivers/STM32F4xx_HAL_Driver/Src/stm32f4xx_hal_sram.c ****   {
 830:Drivers/STM32F4xx_HAL_Driver/Src/stm32f4xx_hal_sram.c ****     switch (CallbackId)
 831:Drivers/STM32F4xx_HAL_Driver/Src/stm32f4xx_hal_sram.c ****     {
 832:Drivers/STM32F4xx_HAL_Driver/Src/stm32f4xx_hal_sram.c ****       case HAL_SRAM_MSP_INIT_CB_ID :
 833:Drivers/STM32F4xx_HAL_Driver/Src/stm32f4xx_hal_sram.c ****         hsram->MspInitCallback = HAL_SRAM_MspInit;
 834:Drivers/STM32F4xx_HAL_Driver/Src/stm32f4xx_hal_sram.c ****         break;
 835:Drivers/STM32F4xx_HAL_Driver/Src/stm32f4xx_hal_sram.c ****       case HAL_SRAM_MSP_DEINIT_CB_ID :
 836:Drivers/STM32F4xx_HAL_Driver/Src/stm32f4xx_hal_sram.c ****         hsram->MspDeInitCallback = HAL_SRAM_MspDeInit;
 837:Drivers/STM32F4xx_HAL_Driver/Src/stm32f4xx_hal_sram.c ****         break;
 838:Drivers/STM32F4xx_HAL_Driver/Src/stm32f4xx_hal_sram.c ****       default :
 839:Drivers/STM32F4xx_HAL_Driver/Src/stm32f4xx_hal_sram.c ****         /* update return status */
 840:Drivers/STM32F4xx_HAL_Driver/Src/stm32f4xx_hal_sram.c ****         status =  HAL_ERROR;
 841:Drivers/STM32F4xx_HAL_Driver/Src/stm32f4xx_hal_sram.c ****         break;
 842:Drivers/STM32F4xx_HAL_Driver/Src/stm32f4xx_hal_sram.c ****     }
 843:Drivers/STM32F4xx_HAL_Driver/Src/stm32f4xx_hal_sram.c ****   }
 844:Drivers/STM32F4xx_HAL_Driver/Src/stm32f4xx_hal_sram.c ****   else
 845:Drivers/STM32F4xx_HAL_Driver/Src/stm32f4xx_hal_sram.c ****   {
 846:Drivers/STM32F4xx_HAL_Driver/Src/stm32f4xx_hal_sram.c ****     /* update return status */
 847:Drivers/STM32F4xx_HAL_Driver/Src/stm32f4xx_hal_sram.c ****     status =  HAL_ERROR;
 848:Drivers/STM32F4xx_HAL_Driver/Src/stm32f4xx_hal_sram.c ****   }
 849:Drivers/STM32F4xx_HAL_Driver/Src/stm32f4xx_hal_sram.c **** 
 850:Drivers/STM32F4xx_HAL_Driver/Src/stm32f4xx_hal_sram.c ****   /* Release Lock */
 851:Drivers/STM32F4xx_HAL_Driver/Src/stm32f4xx_hal_sram.c ****   __HAL_UNLOCK(hsram);
 852:Drivers/STM32F4xx_HAL_Driver/Src/stm32f4xx_hal_sram.c ****   return status;
 853:Drivers/STM32F4xx_HAL_Driver/Src/stm32f4xx_hal_sram.c **** }
 854:Drivers/STM32F4xx_HAL_Driver/Src/stm32f4xx_hal_sram.c **** 
 855:Drivers/STM32F4xx_HAL_Driver/Src/stm32f4xx_hal_sram.c **** /**
 856:Drivers/STM32F4xx_HAL_Driver/Src/stm32f4xx_hal_sram.c ****   * @brief  Register a User SRAM Callback for DMA transfers
 857:Drivers/STM32F4xx_HAL_Driver/Src/stm32f4xx_hal_sram.c ****   *         To be used instead of the weak (surcharged) predefined callback
 858:Drivers/STM32F4xx_HAL_Driver/Src/stm32f4xx_hal_sram.c ****   * @param hsram : SRAM handle
 859:Drivers/STM32F4xx_HAL_Driver/Src/stm32f4xx_hal_sram.c ****   * @param CallbackId : ID of the callback to be registered
 860:Drivers/STM32F4xx_HAL_Driver/Src/stm32f4xx_hal_sram.c ****   *        This parameter can be one of the following values:
 861:Drivers/STM32F4xx_HAL_Driver/Src/stm32f4xx_hal_sram.c ****   *          @arg @ref HAL_SRAM_DMA_XFER_CPLT_CB_ID  SRAM DMA Xfer Complete callback ID
 862:Drivers/STM32F4xx_HAL_Driver/Src/stm32f4xx_hal_sram.c ****   *          @arg @ref HAL_SRAM_DMA_XFER_ERR_CB_ID   SRAM DMA Xfer Error callback ID
 863:Drivers/STM32F4xx_HAL_Driver/Src/stm32f4xx_hal_sram.c ****   * @param pCallback : pointer to the Callback function
 864:Drivers/STM32F4xx_HAL_Driver/Src/stm32f4xx_hal_sram.c ****   * @retval status
 865:Drivers/STM32F4xx_HAL_Driver/Src/stm32f4xx_hal_sram.c ****   */
 866:Drivers/STM32F4xx_HAL_Driver/Src/stm32f4xx_hal_sram.c **** HAL_StatusTypeDef HAL_SRAM_RegisterDmaCallback(SRAM_HandleTypeDef *hsram, HAL_SRAM_CallbackIDTypeDe
 867:Drivers/STM32F4xx_HAL_Driver/Src/stm32f4xx_hal_sram.c ****                                                pSRAM_DmaCallbackTypeDef pCallback)
 868:Drivers/STM32F4xx_HAL_Driver/Src/stm32f4xx_hal_sram.c **** {
 869:Drivers/STM32F4xx_HAL_Driver/Src/stm32f4xx_hal_sram.c ****   HAL_StatusTypeDef status = HAL_OK;
 870:Drivers/STM32F4xx_HAL_Driver/Src/stm32f4xx_hal_sram.c ****   HAL_SRAM_StateTypeDef state;
 871:Drivers/STM32F4xx_HAL_Driver/Src/stm32f4xx_hal_sram.c **** 
 872:Drivers/STM32F4xx_HAL_Driver/Src/stm32f4xx_hal_sram.c ****   if (pCallback == NULL)
 873:Drivers/STM32F4xx_HAL_Driver/Src/stm32f4xx_hal_sram.c ****   {
 874:Drivers/STM32F4xx_HAL_Driver/Src/stm32f4xx_hal_sram.c ****     return HAL_ERROR;
 875:Drivers/STM32F4xx_HAL_Driver/Src/stm32f4xx_hal_sram.c ****   }
 876:Drivers/STM32F4xx_HAL_Driver/Src/stm32f4xx_hal_sram.c **** 
 877:Drivers/STM32F4xx_HAL_Driver/Src/stm32f4xx_hal_sram.c ****   /* Process locked */
 878:Drivers/STM32F4xx_HAL_Driver/Src/stm32f4xx_hal_sram.c ****   __HAL_LOCK(hsram);
 879:Drivers/STM32F4xx_HAL_Driver/Src/stm32f4xx_hal_sram.c **** 
ARM GAS  /tmp/cc6qTBh5.s 			page 21


 880:Drivers/STM32F4xx_HAL_Driver/Src/stm32f4xx_hal_sram.c ****   state = hsram->State;
 881:Drivers/STM32F4xx_HAL_Driver/Src/stm32f4xx_hal_sram.c ****   if ((state == HAL_SRAM_STATE_READY) || (state == HAL_SRAM_STATE_PROTECTED))
 882:Drivers/STM32F4xx_HAL_Driver/Src/stm32f4xx_hal_sram.c ****   {
 883:Drivers/STM32F4xx_HAL_Driver/Src/stm32f4xx_hal_sram.c ****     switch (CallbackId)
 884:Drivers/STM32F4xx_HAL_Driver/Src/stm32f4xx_hal_sram.c ****     {
 885:Drivers/STM32F4xx_HAL_Driver/Src/stm32f4xx_hal_sram.c ****       case HAL_SRAM_DMA_XFER_CPLT_CB_ID :
 886:Drivers/STM32F4xx_HAL_Driver/Src/stm32f4xx_hal_sram.c ****         hsram->DmaXferCpltCallback = pCallback;
 887:Drivers/STM32F4xx_HAL_Driver/Src/stm32f4xx_hal_sram.c ****         break;
 888:Drivers/STM32F4xx_HAL_Driver/Src/stm32f4xx_hal_sram.c ****       case HAL_SRAM_DMA_XFER_ERR_CB_ID :
 889:Drivers/STM32F4xx_HAL_Driver/Src/stm32f4xx_hal_sram.c ****         hsram->DmaXferErrorCallback = pCallback;
 890:Drivers/STM32F4xx_HAL_Driver/Src/stm32f4xx_hal_sram.c ****         break;
 891:Drivers/STM32F4xx_HAL_Driver/Src/stm32f4xx_hal_sram.c ****       default :
 892:Drivers/STM32F4xx_HAL_Driver/Src/stm32f4xx_hal_sram.c ****         /* update return status */
 893:Drivers/STM32F4xx_HAL_Driver/Src/stm32f4xx_hal_sram.c ****         status =  HAL_ERROR;
 894:Drivers/STM32F4xx_HAL_Driver/Src/stm32f4xx_hal_sram.c ****         break;
 895:Drivers/STM32F4xx_HAL_Driver/Src/stm32f4xx_hal_sram.c ****     }
 896:Drivers/STM32F4xx_HAL_Driver/Src/stm32f4xx_hal_sram.c ****   }
 897:Drivers/STM32F4xx_HAL_Driver/Src/stm32f4xx_hal_sram.c ****   else
 898:Drivers/STM32F4xx_HAL_Driver/Src/stm32f4xx_hal_sram.c ****   {
 899:Drivers/STM32F4xx_HAL_Driver/Src/stm32f4xx_hal_sram.c ****     /* update return status */
 900:Drivers/STM32F4xx_HAL_Driver/Src/stm32f4xx_hal_sram.c ****     status =  HAL_ERROR;
 901:Drivers/STM32F4xx_HAL_Driver/Src/stm32f4xx_hal_sram.c ****   }
 902:Drivers/STM32F4xx_HAL_Driver/Src/stm32f4xx_hal_sram.c **** 
 903:Drivers/STM32F4xx_HAL_Driver/Src/stm32f4xx_hal_sram.c ****   /* Release Lock */
 904:Drivers/STM32F4xx_HAL_Driver/Src/stm32f4xx_hal_sram.c ****   __HAL_UNLOCK(hsram);
 905:Drivers/STM32F4xx_HAL_Driver/Src/stm32f4xx_hal_sram.c ****   return status;
 906:Drivers/STM32F4xx_HAL_Driver/Src/stm32f4xx_hal_sram.c **** }
 907:Drivers/STM32F4xx_HAL_Driver/Src/stm32f4xx_hal_sram.c **** #endif /* USE_HAL_SRAM_REGISTER_CALLBACKS */
 908:Drivers/STM32F4xx_HAL_Driver/Src/stm32f4xx_hal_sram.c **** 
 909:Drivers/STM32F4xx_HAL_Driver/Src/stm32f4xx_hal_sram.c **** /**
 910:Drivers/STM32F4xx_HAL_Driver/Src/stm32f4xx_hal_sram.c ****   * @}
 911:Drivers/STM32F4xx_HAL_Driver/Src/stm32f4xx_hal_sram.c ****   */
 912:Drivers/STM32F4xx_HAL_Driver/Src/stm32f4xx_hal_sram.c **** 
 913:Drivers/STM32F4xx_HAL_Driver/Src/stm32f4xx_hal_sram.c **** /** @defgroup SRAM_Exported_Functions_Group3 Control functions
 914:Drivers/STM32F4xx_HAL_Driver/Src/stm32f4xx_hal_sram.c ****   *  @brief   Control functions
 915:Drivers/STM32F4xx_HAL_Driver/Src/stm32f4xx_hal_sram.c ****   *
 916:Drivers/STM32F4xx_HAL_Driver/Src/stm32f4xx_hal_sram.c **** @verbatim
 917:Drivers/STM32F4xx_HAL_Driver/Src/stm32f4xx_hal_sram.c ****   ==============================================================================
 918:Drivers/STM32F4xx_HAL_Driver/Src/stm32f4xx_hal_sram.c ****                         ##### SRAM Control functions #####
 919:Drivers/STM32F4xx_HAL_Driver/Src/stm32f4xx_hal_sram.c ****   ==============================================================================
 920:Drivers/STM32F4xx_HAL_Driver/Src/stm32f4xx_hal_sram.c ****   [..]
 921:Drivers/STM32F4xx_HAL_Driver/Src/stm32f4xx_hal_sram.c ****     This subsection provides a set of functions allowing to control dynamically
 922:Drivers/STM32F4xx_HAL_Driver/Src/stm32f4xx_hal_sram.c ****     the SRAM interface.
 923:Drivers/STM32F4xx_HAL_Driver/Src/stm32f4xx_hal_sram.c **** 
 924:Drivers/STM32F4xx_HAL_Driver/Src/stm32f4xx_hal_sram.c **** @endverbatim
 925:Drivers/STM32F4xx_HAL_Driver/Src/stm32f4xx_hal_sram.c ****   * @{
 926:Drivers/STM32F4xx_HAL_Driver/Src/stm32f4xx_hal_sram.c ****   */
 927:Drivers/STM32F4xx_HAL_Driver/Src/stm32f4xx_hal_sram.c **** 
 928:Drivers/STM32F4xx_HAL_Driver/Src/stm32f4xx_hal_sram.c **** /**
 929:Drivers/STM32F4xx_HAL_Driver/Src/stm32f4xx_hal_sram.c ****   * @brief  Enables dynamically SRAM write operation.
 930:Drivers/STM32F4xx_HAL_Driver/Src/stm32f4xx_hal_sram.c ****   * @param  hsram pointer to a SRAM_HandleTypeDef structure that contains
 931:Drivers/STM32F4xx_HAL_Driver/Src/stm32f4xx_hal_sram.c ****   *                the configuration information for SRAM module.
 932:Drivers/STM32F4xx_HAL_Driver/Src/stm32f4xx_hal_sram.c ****   * @retval HAL status
 933:Drivers/STM32F4xx_HAL_Driver/Src/stm32f4xx_hal_sram.c ****   */
 934:Drivers/STM32F4xx_HAL_Driver/Src/stm32f4xx_hal_sram.c **** HAL_StatusTypeDef HAL_SRAM_WriteOperation_Enable(SRAM_HandleTypeDef *hsram)
 935:Drivers/STM32F4xx_HAL_Driver/Src/stm32f4xx_hal_sram.c **** {
 936:Drivers/STM32F4xx_HAL_Driver/Src/stm32f4xx_hal_sram.c ****   /* Check the SRAM controller state */
ARM GAS  /tmp/cc6qTBh5.s 			page 22


 937:Drivers/STM32F4xx_HAL_Driver/Src/stm32f4xx_hal_sram.c ****   if (hsram->State == HAL_SRAM_STATE_PROTECTED)
 938:Drivers/STM32F4xx_HAL_Driver/Src/stm32f4xx_hal_sram.c ****   {
 939:Drivers/STM32F4xx_HAL_Driver/Src/stm32f4xx_hal_sram.c ****     /* Process Locked */
 940:Drivers/STM32F4xx_HAL_Driver/Src/stm32f4xx_hal_sram.c ****     __HAL_LOCK(hsram);
 941:Drivers/STM32F4xx_HAL_Driver/Src/stm32f4xx_hal_sram.c **** 
 942:Drivers/STM32F4xx_HAL_Driver/Src/stm32f4xx_hal_sram.c ****     /* Update the SRAM controller state */
 943:Drivers/STM32F4xx_HAL_Driver/Src/stm32f4xx_hal_sram.c ****     hsram->State = HAL_SRAM_STATE_BUSY;
 944:Drivers/STM32F4xx_HAL_Driver/Src/stm32f4xx_hal_sram.c **** 
 945:Drivers/STM32F4xx_HAL_Driver/Src/stm32f4xx_hal_sram.c ****     /* Enable write operation */
 946:Drivers/STM32F4xx_HAL_Driver/Src/stm32f4xx_hal_sram.c ****     (void)FMC_NORSRAM_WriteOperation_Enable(hsram->Instance, hsram->Init.NSBank);
 947:Drivers/STM32F4xx_HAL_Driver/Src/stm32f4xx_hal_sram.c **** 
 948:Drivers/STM32F4xx_HAL_Driver/Src/stm32f4xx_hal_sram.c ****     /* Update the SRAM controller state */
 949:Drivers/STM32F4xx_HAL_Driver/Src/stm32f4xx_hal_sram.c ****     hsram->State = HAL_SRAM_STATE_READY;
 950:Drivers/STM32F4xx_HAL_Driver/Src/stm32f4xx_hal_sram.c **** 
 951:Drivers/STM32F4xx_HAL_Driver/Src/stm32f4xx_hal_sram.c ****     /* Process unlocked */
 952:Drivers/STM32F4xx_HAL_Driver/Src/stm32f4xx_hal_sram.c ****     __HAL_UNLOCK(hsram);
 953:Drivers/STM32F4xx_HAL_Driver/Src/stm32f4xx_hal_sram.c ****   }
 954:Drivers/STM32F4xx_HAL_Driver/Src/stm32f4xx_hal_sram.c ****   else
 955:Drivers/STM32F4xx_HAL_Driver/Src/stm32f4xx_hal_sram.c ****   {
 956:Drivers/STM32F4xx_HAL_Driver/Src/stm32f4xx_hal_sram.c ****     return HAL_ERROR;
 957:Drivers/STM32F4xx_HAL_Driver/Src/stm32f4xx_hal_sram.c ****   }
 958:Drivers/STM32F4xx_HAL_Driver/Src/stm32f4xx_hal_sram.c **** 
 959:Drivers/STM32F4xx_HAL_Driver/Src/stm32f4xx_hal_sram.c ****   return HAL_OK;
 960:Drivers/STM32F4xx_HAL_Driver/Src/stm32f4xx_hal_sram.c **** }
 961:Drivers/STM32F4xx_HAL_Driver/Src/stm32f4xx_hal_sram.c **** 
 962:Drivers/STM32F4xx_HAL_Driver/Src/stm32f4xx_hal_sram.c **** /**
 963:Drivers/STM32F4xx_HAL_Driver/Src/stm32f4xx_hal_sram.c ****   * @brief  Disables dynamically SRAM write operation.
 964:Drivers/STM32F4xx_HAL_Driver/Src/stm32f4xx_hal_sram.c ****   * @param  hsram pointer to a SRAM_HandleTypeDef structure that contains
 965:Drivers/STM32F4xx_HAL_Driver/Src/stm32f4xx_hal_sram.c ****   *                the configuration information for SRAM module.
 966:Drivers/STM32F4xx_HAL_Driver/Src/stm32f4xx_hal_sram.c ****   * @retval HAL status
 967:Drivers/STM32F4xx_HAL_Driver/Src/stm32f4xx_hal_sram.c ****   */
 968:Drivers/STM32F4xx_HAL_Driver/Src/stm32f4xx_hal_sram.c **** HAL_StatusTypeDef HAL_SRAM_WriteOperation_Disable(SRAM_HandleTypeDef *hsram)
 969:Drivers/STM32F4xx_HAL_Driver/Src/stm32f4xx_hal_sram.c **** {
 970:Drivers/STM32F4xx_HAL_Driver/Src/stm32f4xx_hal_sram.c ****   /* Check the SRAM controller state */
 971:Drivers/STM32F4xx_HAL_Driver/Src/stm32f4xx_hal_sram.c ****   if (hsram->State == HAL_SRAM_STATE_READY)
 972:Drivers/STM32F4xx_HAL_Driver/Src/stm32f4xx_hal_sram.c ****   {
 973:Drivers/STM32F4xx_HAL_Driver/Src/stm32f4xx_hal_sram.c ****     /* Process Locked */
 974:Drivers/STM32F4xx_HAL_Driver/Src/stm32f4xx_hal_sram.c ****     __HAL_LOCK(hsram);
 975:Drivers/STM32F4xx_HAL_Driver/Src/stm32f4xx_hal_sram.c **** 
 976:Drivers/STM32F4xx_HAL_Driver/Src/stm32f4xx_hal_sram.c ****     /* Update the SRAM controller state */
 977:Drivers/STM32F4xx_HAL_Driver/Src/stm32f4xx_hal_sram.c ****     hsram->State = HAL_SRAM_STATE_BUSY;
 978:Drivers/STM32F4xx_HAL_Driver/Src/stm32f4xx_hal_sram.c **** 
 979:Drivers/STM32F4xx_HAL_Driver/Src/stm32f4xx_hal_sram.c ****     /* Disable write operation */
 980:Drivers/STM32F4xx_HAL_Driver/Src/stm32f4xx_hal_sram.c ****     (void)FMC_NORSRAM_WriteOperation_Disable(hsram->Instance, hsram->Init.NSBank);
 981:Drivers/STM32F4xx_HAL_Driver/Src/stm32f4xx_hal_sram.c **** 
 982:Drivers/STM32F4xx_HAL_Driver/Src/stm32f4xx_hal_sram.c ****     /* Update the SRAM controller state */
 983:Drivers/STM32F4xx_HAL_Driver/Src/stm32f4xx_hal_sram.c ****     hsram->State = HAL_SRAM_STATE_PROTECTED;
 984:Drivers/STM32F4xx_HAL_Driver/Src/stm32f4xx_hal_sram.c **** 
 985:Drivers/STM32F4xx_HAL_Driver/Src/stm32f4xx_hal_sram.c ****     /* Process unlocked */
 986:Drivers/STM32F4xx_HAL_Driver/Src/stm32f4xx_hal_sram.c ****     __HAL_UNLOCK(hsram);
 987:Drivers/STM32F4xx_HAL_Driver/Src/stm32f4xx_hal_sram.c ****   }
 988:Drivers/STM32F4xx_HAL_Driver/Src/stm32f4xx_hal_sram.c ****   else
 989:Drivers/STM32F4xx_HAL_Driver/Src/stm32f4xx_hal_sram.c ****   {
 990:Drivers/STM32F4xx_HAL_Driver/Src/stm32f4xx_hal_sram.c ****     return HAL_ERROR;
 991:Drivers/STM32F4xx_HAL_Driver/Src/stm32f4xx_hal_sram.c ****   }
 992:Drivers/STM32F4xx_HAL_Driver/Src/stm32f4xx_hal_sram.c **** 
 993:Drivers/STM32F4xx_HAL_Driver/Src/stm32f4xx_hal_sram.c ****   return HAL_OK;
ARM GAS  /tmp/cc6qTBh5.s 			page 23


 994:Drivers/STM32F4xx_HAL_Driver/Src/stm32f4xx_hal_sram.c **** }
 995:Drivers/STM32F4xx_HAL_Driver/Src/stm32f4xx_hal_sram.c **** 
 996:Drivers/STM32F4xx_HAL_Driver/Src/stm32f4xx_hal_sram.c **** /**
 997:Drivers/STM32F4xx_HAL_Driver/Src/stm32f4xx_hal_sram.c ****   * @}
 998:Drivers/STM32F4xx_HAL_Driver/Src/stm32f4xx_hal_sram.c ****   */
 999:Drivers/STM32F4xx_HAL_Driver/Src/stm32f4xx_hal_sram.c **** 
1000:Drivers/STM32F4xx_HAL_Driver/Src/stm32f4xx_hal_sram.c **** /** @defgroup SRAM_Exported_Functions_Group4 Peripheral State functions
1001:Drivers/STM32F4xx_HAL_Driver/Src/stm32f4xx_hal_sram.c ****   *  @brief   Peripheral State functions
1002:Drivers/STM32F4xx_HAL_Driver/Src/stm32f4xx_hal_sram.c ****   *
1003:Drivers/STM32F4xx_HAL_Driver/Src/stm32f4xx_hal_sram.c **** @verbatim
1004:Drivers/STM32F4xx_HAL_Driver/Src/stm32f4xx_hal_sram.c ****   ==============================================================================
1005:Drivers/STM32F4xx_HAL_Driver/Src/stm32f4xx_hal_sram.c ****                       ##### SRAM State functions #####
1006:Drivers/STM32F4xx_HAL_Driver/Src/stm32f4xx_hal_sram.c ****   ==============================================================================
1007:Drivers/STM32F4xx_HAL_Driver/Src/stm32f4xx_hal_sram.c ****   [..]
1008:Drivers/STM32F4xx_HAL_Driver/Src/stm32f4xx_hal_sram.c ****     This subsection permits to get in run-time the status of the SRAM controller
1009:Drivers/STM32F4xx_HAL_Driver/Src/stm32f4xx_hal_sram.c ****     and the data flow.
1010:Drivers/STM32F4xx_HAL_Driver/Src/stm32f4xx_hal_sram.c **** 
1011:Drivers/STM32F4xx_HAL_Driver/Src/stm32f4xx_hal_sram.c **** @endverbatim
1012:Drivers/STM32F4xx_HAL_Driver/Src/stm32f4xx_hal_sram.c ****   * @{
1013:Drivers/STM32F4xx_HAL_Driver/Src/stm32f4xx_hal_sram.c ****   */
1014:Drivers/STM32F4xx_HAL_Driver/Src/stm32f4xx_hal_sram.c **** 
1015:Drivers/STM32F4xx_HAL_Driver/Src/stm32f4xx_hal_sram.c **** /**
1016:Drivers/STM32F4xx_HAL_Driver/Src/stm32f4xx_hal_sram.c ****   * @brief  Returns the SRAM controller state
1017:Drivers/STM32F4xx_HAL_Driver/Src/stm32f4xx_hal_sram.c ****   * @param  hsram pointer to a SRAM_HandleTypeDef structure that contains
1018:Drivers/STM32F4xx_HAL_Driver/Src/stm32f4xx_hal_sram.c ****   *                the configuration information for SRAM module.
1019:Drivers/STM32F4xx_HAL_Driver/Src/stm32f4xx_hal_sram.c ****   * @retval HAL state
1020:Drivers/STM32F4xx_HAL_Driver/Src/stm32f4xx_hal_sram.c ****   */
1021:Drivers/STM32F4xx_HAL_Driver/Src/stm32f4xx_hal_sram.c **** HAL_SRAM_StateTypeDef HAL_SRAM_GetState(SRAM_HandleTypeDef *hsram)
1022:Drivers/STM32F4xx_HAL_Driver/Src/stm32f4xx_hal_sram.c **** {
1023:Drivers/STM32F4xx_HAL_Driver/Src/stm32f4xx_hal_sram.c ****   return hsram->State;
1024:Drivers/STM32F4xx_HAL_Driver/Src/stm32f4xx_hal_sram.c **** }
1025:Drivers/STM32F4xx_HAL_Driver/Src/stm32f4xx_hal_sram.c **** 
1026:Drivers/STM32F4xx_HAL_Driver/Src/stm32f4xx_hal_sram.c **** /**
1027:Drivers/STM32F4xx_HAL_Driver/Src/stm32f4xx_hal_sram.c ****   * @}
1028:Drivers/STM32F4xx_HAL_Driver/Src/stm32f4xx_hal_sram.c ****   */
1029:Drivers/STM32F4xx_HAL_Driver/Src/stm32f4xx_hal_sram.c **** 
1030:Drivers/STM32F4xx_HAL_Driver/Src/stm32f4xx_hal_sram.c **** /**
1031:Drivers/STM32F4xx_HAL_Driver/Src/stm32f4xx_hal_sram.c ****   * @}
1032:Drivers/STM32F4xx_HAL_Driver/Src/stm32f4xx_hal_sram.c ****   */
1033:Drivers/STM32F4xx_HAL_Driver/Src/stm32f4xx_hal_sram.c **** 
1034:Drivers/STM32F4xx_HAL_Driver/Src/stm32f4xx_hal_sram.c **** /**
1035:Drivers/STM32F4xx_HAL_Driver/Src/stm32f4xx_hal_sram.c ****   * @brief  DMA SRAM process complete callback.
1036:Drivers/STM32F4xx_HAL_Driver/Src/stm32f4xx_hal_sram.c ****   * @param  hdma : DMA handle
1037:Drivers/STM32F4xx_HAL_Driver/Src/stm32f4xx_hal_sram.c ****   * @retval None
1038:Drivers/STM32F4xx_HAL_Driver/Src/stm32f4xx_hal_sram.c ****   */
1039:Drivers/STM32F4xx_HAL_Driver/Src/stm32f4xx_hal_sram.c **** static void SRAM_DMACplt(DMA_HandleTypeDef *hdma)
1040:Drivers/STM32F4xx_HAL_Driver/Src/stm32f4xx_hal_sram.c **** {
1041:Drivers/STM32F4xx_HAL_Driver/Src/stm32f4xx_hal_sram.c ****   SRAM_HandleTypeDef *hsram = (SRAM_HandleTypeDef *)(hdma->Parent);
1042:Drivers/STM32F4xx_HAL_Driver/Src/stm32f4xx_hal_sram.c **** 
1043:Drivers/STM32F4xx_HAL_Driver/Src/stm32f4xx_hal_sram.c ****   /* Disable the DMA channel */
1044:Drivers/STM32F4xx_HAL_Driver/Src/stm32f4xx_hal_sram.c ****   __HAL_DMA_DISABLE(hdma);
1045:Drivers/STM32F4xx_HAL_Driver/Src/stm32f4xx_hal_sram.c **** 
1046:Drivers/STM32F4xx_HAL_Driver/Src/stm32f4xx_hal_sram.c ****   /* Update the SRAM controller state */
1047:Drivers/STM32F4xx_HAL_Driver/Src/stm32f4xx_hal_sram.c ****   hsram->State = HAL_SRAM_STATE_READY;
1048:Drivers/STM32F4xx_HAL_Driver/Src/stm32f4xx_hal_sram.c **** 
1049:Drivers/STM32F4xx_HAL_Driver/Src/stm32f4xx_hal_sram.c **** #if (USE_HAL_SRAM_REGISTER_CALLBACKS == 1)
1050:Drivers/STM32F4xx_HAL_Driver/Src/stm32f4xx_hal_sram.c ****   hsram->DmaXferCpltCallback(hdma);
ARM GAS  /tmp/cc6qTBh5.s 			page 24


1051:Drivers/STM32F4xx_HAL_Driver/Src/stm32f4xx_hal_sram.c **** #else
1052:Drivers/STM32F4xx_HAL_Driver/Src/stm32f4xx_hal_sram.c ****   HAL_SRAM_DMA_XferCpltCallback(hdma);
1053:Drivers/STM32F4xx_HAL_Driver/Src/stm32f4xx_hal_sram.c **** #endif /* USE_HAL_SRAM_REGISTER_CALLBACKS */
1054:Drivers/STM32F4xx_HAL_Driver/Src/stm32f4xx_hal_sram.c **** }
1055:Drivers/STM32F4xx_HAL_Driver/Src/stm32f4xx_hal_sram.c **** 
1056:Drivers/STM32F4xx_HAL_Driver/Src/stm32f4xx_hal_sram.c **** /**
1057:Drivers/STM32F4xx_HAL_Driver/Src/stm32f4xx_hal_sram.c ****   * @brief  DMA SRAM process complete callback.
1058:Drivers/STM32F4xx_HAL_Driver/Src/stm32f4xx_hal_sram.c ****   * @param  hdma : DMA handle
1059:Drivers/STM32F4xx_HAL_Driver/Src/stm32f4xx_hal_sram.c ****   * @retval None
1060:Drivers/STM32F4xx_HAL_Driver/Src/stm32f4xx_hal_sram.c ****   */
1061:Drivers/STM32F4xx_HAL_Driver/Src/stm32f4xx_hal_sram.c **** static void SRAM_DMACpltProt(DMA_HandleTypeDef *hdma)
1062:Drivers/STM32F4xx_HAL_Driver/Src/stm32f4xx_hal_sram.c **** {
 235              		.loc 1 1062 1 is_stmt 1 view -0
 236              		.cfi_startproc
 237              		@ args = 0, pretend = 0, frame = 0
 238              		@ frame_needed = 0, uses_anonymous_args = 0
 239              		.loc 1 1062 1 is_stmt 0 view .LVU48
 240 0000 08B5     		push	{r3, lr}
 241              	.LCFI3:
 242              		.cfi_def_cfa_offset 8
 243              		.cfi_offset 3, -8
 244              		.cfi_offset 14, -4
1063:Drivers/STM32F4xx_HAL_Driver/Src/stm32f4xx_hal_sram.c ****   SRAM_HandleTypeDef *hsram = (SRAM_HandleTypeDef *)(hdma->Parent);
 245              		.loc 1 1063 3 is_stmt 1 view .LVU49
 246              		.loc 1 1063 23 is_stmt 0 view .LVU50
 247 0002 816B     		ldr	r1, [r0, #56]
 248              	.LVL16:
1064:Drivers/STM32F4xx_HAL_Driver/Src/stm32f4xx_hal_sram.c **** 
1065:Drivers/STM32F4xx_HAL_Driver/Src/stm32f4xx_hal_sram.c ****   /* Disable the DMA channel */
1066:Drivers/STM32F4xx_HAL_Driver/Src/stm32f4xx_hal_sram.c ****   __HAL_DMA_DISABLE(hdma);
 249              		.loc 1 1066 3 is_stmt 1 view .LVU51
 250 0004 0268     		ldr	r2, [r0]
 251 0006 1368     		ldr	r3, [r2]
 252 0008 23F00103 		bic	r3, r3, #1
 253 000c 1360     		str	r3, [r2]
1067:Drivers/STM32F4xx_HAL_Driver/Src/stm32f4xx_hal_sram.c **** 
1068:Drivers/STM32F4xx_HAL_Driver/Src/stm32f4xx_hal_sram.c ****   /* Update the SRAM controller state */
1069:Drivers/STM32F4xx_HAL_Driver/Src/stm32f4xx_hal_sram.c ****   hsram->State = HAL_SRAM_STATE_PROTECTED;
 254              		.loc 1 1069 3 view .LVU52
 255              		.loc 1 1069 16 is_stmt 0 view .LVU53
 256 000e 0423     		movs	r3, #4
 257 0010 81F84930 		strb	r3, [r1, #73]
1070:Drivers/STM32F4xx_HAL_Driver/Src/stm32f4xx_hal_sram.c **** 
1071:Drivers/STM32F4xx_HAL_Driver/Src/stm32f4xx_hal_sram.c **** #if (USE_HAL_SRAM_REGISTER_CALLBACKS == 1)
1072:Drivers/STM32F4xx_HAL_Driver/Src/stm32f4xx_hal_sram.c ****   hsram->DmaXferCpltCallback(hdma);
1073:Drivers/STM32F4xx_HAL_Driver/Src/stm32f4xx_hal_sram.c **** #else
1074:Drivers/STM32F4xx_HAL_Driver/Src/stm32f4xx_hal_sram.c ****   HAL_SRAM_DMA_XferCpltCallback(hdma);
 258              		.loc 1 1074 3 is_stmt 1 view .LVU54
 259 0014 FFF7FEFF 		bl	HAL_SRAM_DMA_XferCpltCallback
 260              	.LVL17:
1075:Drivers/STM32F4xx_HAL_Driver/Src/stm32f4xx_hal_sram.c **** #endif /* USE_HAL_SRAM_REGISTER_CALLBACKS */
1076:Drivers/STM32F4xx_HAL_Driver/Src/stm32f4xx_hal_sram.c **** }
 261              		.loc 1 1076 1 is_stmt 0 view .LVU55
 262 0018 08BD     		pop	{r3, pc}
 263              		.cfi_endproc
 264              	.LFE148:
 266              		.section	.text.SRAM_DMACplt,"ax",%progbits
ARM GAS  /tmp/cc6qTBh5.s 			page 25


 267              		.align	1
 268              		.syntax unified
 269              		.thumb
 270              		.thumb_func
 272              	SRAM_DMACplt:
 273              	.LVL18:
 274              	.LFB147:
1040:Drivers/STM32F4xx_HAL_Driver/Src/stm32f4xx_hal_sram.c ****   SRAM_HandleTypeDef *hsram = (SRAM_HandleTypeDef *)(hdma->Parent);
 275              		.loc 1 1040 1 is_stmt 1 view -0
 276              		.cfi_startproc
 277              		@ args = 0, pretend = 0, frame = 0
 278              		@ frame_needed = 0, uses_anonymous_args = 0
1040:Drivers/STM32F4xx_HAL_Driver/Src/stm32f4xx_hal_sram.c ****   SRAM_HandleTypeDef *hsram = (SRAM_HandleTypeDef *)(hdma->Parent);
 279              		.loc 1 1040 1 is_stmt 0 view .LVU57
 280 0000 08B5     		push	{r3, lr}
 281              	.LCFI4:
 282              		.cfi_def_cfa_offset 8
 283              		.cfi_offset 3, -8
 284              		.cfi_offset 14, -4
1041:Drivers/STM32F4xx_HAL_Driver/Src/stm32f4xx_hal_sram.c **** 
 285              		.loc 1 1041 3 is_stmt 1 view .LVU58
1041:Drivers/STM32F4xx_HAL_Driver/Src/stm32f4xx_hal_sram.c **** 
 286              		.loc 1 1041 23 is_stmt 0 view .LVU59
 287 0002 816B     		ldr	r1, [r0, #56]
 288              	.LVL19:
1044:Drivers/STM32F4xx_HAL_Driver/Src/stm32f4xx_hal_sram.c **** 
 289              		.loc 1 1044 3 is_stmt 1 view .LVU60
 290 0004 0268     		ldr	r2, [r0]
 291 0006 1368     		ldr	r3, [r2]
 292 0008 23F00103 		bic	r3, r3, #1
 293 000c 1360     		str	r3, [r2]
1047:Drivers/STM32F4xx_HAL_Driver/Src/stm32f4xx_hal_sram.c **** 
 294              		.loc 1 1047 3 view .LVU61
1047:Drivers/STM32F4xx_HAL_Driver/Src/stm32f4xx_hal_sram.c **** 
 295              		.loc 1 1047 16 is_stmt 0 view .LVU62
 296 000e 0123     		movs	r3, #1
 297 0010 81F84930 		strb	r3, [r1, #73]
1052:Drivers/STM32F4xx_HAL_Driver/Src/stm32f4xx_hal_sram.c **** #endif /* USE_HAL_SRAM_REGISTER_CALLBACKS */
 298              		.loc 1 1052 3 is_stmt 1 view .LVU63
 299 0014 FFF7FEFF 		bl	HAL_SRAM_DMA_XferCpltCallback
 300              	.LVL20:
1054:Drivers/STM32F4xx_HAL_Driver/Src/stm32f4xx_hal_sram.c **** 
 301              		.loc 1 1054 1 is_stmt 0 view .LVU64
 302 0018 08BD     		pop	{r3, pc}
 303              		.cfi_endproc
 304              	.LFE147:
 306              		.section	.text.HAL_SRAM_DMA_XferErrorCallback,"ax",%progbits
 307              		.align	1
 308              		.weak	HAL_SRAM_DMA_XferErrorCallback
 309              		.syntax unified
 310              		.thumb
 311              		.thumb_func
 313              	HAL_SRAM_DMA_XferErrorCallback:
 314              	.LVL21:
 315              	.LFB135:
 305:Drivers/STM32F4xx_HAL_Driver/Src/stm32f4xx_hal_sram.c ****   /* Prevent unused argument(s) compilation warning */
 316              		.loc 1 305 1 is_stmt 1 view -0
ARM GAS  /tmp/cc6qTBh5.s 			page 26


 317              		.cfi_startproc
 318              		@ args = 0, pretend = 0, frame = 0
 319              		@ frame_needed = 0, uses_anonymous_args = 0
 320              		@ link register save eliminated.
 307:Drivers/STM32F4xx_HAL_Driver/Src/stm32f4xx_hal_sram.c **** 
 321              		.loc 1 307 3 view .LVU66
 312:Drivers/STM32F4xx_HAL_Driver/Src/stm32f4xx_hal_sram.c **** 
 322              		.loc 1 312 1 is_stmt 0 view .LVU67
 323 0000 7047     		bx	lr
 324              		.cfi_endproc
 325              	.LFE135:
 327              		.section	.text.SRAM_DMAError,"ax",%progbits
 328              		.align	1
 329              		.syntax unified
 330              		.thumb
 331              		.thumb_func
 333              	SRAM_DMAError:
 334              	.LVL22:
 335              	.LFB149:
1077:Drivers/STM32F4xx_HAL_Driver/Src/stm32f4xx_hal_sram.c **** 
1078:Drivers/STM32F4xx_HAL_Driver/Src/stm32f4xx_hal_sram.c **** /**
1079:Drivers/STM32F4xx_HAL_Driver/Src/stm32f4xx_hal_sram.c ****   * @brief  DMA SRAM error callback.
1080:Drivers/STM32F4xx_HAL_Driver/Src/stm32f4xx_hal_sram.c ****   * @param  hdma : DMA handle
1081:Drivers/STM32F4xx_HAL_Driver/Src/stm32f4xx_hal_sram.c ****   * @retval None
1082:Drivers/STM32F4xx_HAL_Driver/Src/stm32f4xx_hal_sram.c ****   */
1083:Drivers/STM32F4xx_HAL_Driver/Src/stm32f4xx_hal_sram.c **** static void SRAM_DMAError(DMA_HandleTypeDef *hdma)
1084:Drivers/STM32F4xx_HAL_Driver/Src/stm32f4xx_hal_sram.c **** {
 336              		.loc 1 1084 1 is_stmt 1 view -0
 337              		.cfi_startproc
 338              		@ args = 0, pretend = 0, frame = 0
 339              		@ frame_needed = 0, uses_anonymous_args = 0
 340              		.loc 1 1084 1 is_stmt 0 view .LVU69
 341 0000 08B5     		push	{r3, lr}
 342              	.LCFI5:
 343              		.cfi_def_cfa_offset 8
 344              		.cfi_offset 3, -8
 345              		.cfi_offset 14, -4
1085:Drivers/STM32F4xx_HAL_Driver/Src/stm32f4xx_hal_sram.c ****   SRAM_HandleTypeDef *hsram = (SRAM_HandleTypeDef *)(hdma->Parent);
 346              		.loc 1 1085 3 is_stmt 1 view .LVU70
 347              		.loc 1 1085 23 is_stmt 0 view .LVU71
 348 0002 816B     		ldr	r1, [r0, #56]
 349              	.LVL23:
1086:Drivers/STM32F4xx_HAL_Driver/Src/stm32f4xx_hal_sram.c **** 
1087:Drivers/STM32F4xx_HAL_Driver/Src/stm32f4xx_hal_sram.c ****   /* Disable the DMA channel */
1088:Drivers/STM32F4xx_HAL_Driver/Src/stm32f4xx_hal_sram.c ****   __HAL_DMA_DISABLE(hdma);
 350              		.loc 1 1088 3 is_stmt 1 view .LVU72
 351 0004 0268     		ldr	r2, [r0]
 352 0006 1368     		ldr	r3, [r2]
 353 0008 23F00103 		bic	r3, r3, #1
 354 000c 1360     		str	r3, [r2]
1089:Drivers/STM32F4xx_HAL_Driver/Src/stm32f4xx_hal_sram.c **** 
1090:Drivers/STM32F4xx_HAL_Driver/Src/stm32f4xx_hal_sram.c ****   /* Update the SRAM controller state */
1091:Drivers/STM32F4xx_HAL_Driver/Src/stm32f4xx_hal_sram.c ****   hsram->State = HAL_SRAM_STATE_ERROR;
 355              		.loc 1 1091 3 view .LVU73
 356              		.loc 1 1091 16 is_stmt 0 view .LVU74
 357 000e 0323     		movs	r3, #3
 358 0010 81F84930 		strb	r3, [r1, #73]
ARM GAS  /tmp/cc6qTBh5.s 			page 27


1092:Drivers/STM32F4xx_HAL_Driver/Src/stm32f4xx_hal_sram.c **** 
1093:Drivers/STM32F4xx_HAL_Driver/Src/stm32f4xx_hal_sram.c **** #if (USE_HAL_SRAM_REGISTER_CALLBACKS == 1)
1094:Drivers/STM32F4xx_HAL_Driver/Src/stm32f4xx_hal_sram.c ****   hsram->DmaXferErrorCallback(hdma);
1095:Drivers/STM32F4xx_HAL_Driver/Src/stm32f4xx_hal_sram.c **** #else
1096:Drivers/STM32F4xx_HAL_Driver/Src/stm32f4xx_hal_sram.c ****   HAL_SRAM_DMA_XferErrorCallback(hdma);
 359              		.loc 1 1096 3 is_stmt 1 view .LVU75
 360 0014 FFF7FEFF 		bl	HAL_SRAM_DMA_XferErrorCallback
 361              	.LVL24:
1097:Drivers/STM32F4xx_HAL_Driver/Src/stm32f4xx_hal_sram.c **** #endif /* USE_HAL_SRAM_REGISTER_CALLBACKS */
1098:Drivers/STM32F4xx_HAL_Driver/Src/stm32f4xx_hal_sram.c **** }
 362              		.loc 1 1098 1 is_stmt 0 view .LVU76
 363 0018 08BD     		pop	{r3, pc}
 364              		.cfi_endproc
 365              	.LFE149:
 367              		.section	.text.HAL_SRAM_Read_8b,"ax",%progbits
 368              		.align	1
 369              		.global	HAL_SRAM_Read_8b
 370              		.syntax unified
 371              		.thumb
 372              		.thumb_func
 374              	HAL_SRAM_Read_8b:
 375              	.LVL25:
 376              	.LFB136:
 343:Drivers/STM32F4xx_HAL_Driver/Src/stm32f4xx_hal_sram.c ****   uint32_t size;
 377              		.loc 1 343 1 is_stmt 1 view -0
 378              		.cfi_startproc
 379              		@ args = 0, pretend = 0, frame = 0
 380              		@ frame_needed = 0, uses_anonymous_args = 0
 343:Drivers/STM32F4xx_HAL_Driver/Src/stm32f4xx_hal_sram.c ****   uint32_t size;
 381              		.loc 1 343 1 is_stmt 0 view .LVU78
 382 0000 00B5     		push	{lr}
 383              	.LCFI6:
 384              		.cfi_def_cfa_offset 4
 385              		.cfi_offset 14, -4
 386 0002 8646     		mov	lr, r0
 344:Drivers/STM32F4xx_HAL_Driver/Src/stm32f4xx_hal_sram.c ****   __IO uint8_t *psramaddress = (uint8_t *)pAddress;
 387              		.loc 1 344 3 is_stmt 1 view .LVU79
 345:Drivers/STM32F4xx_HAL_Driver/Src/stm32f4xx_hal_sram.c ****   uint8_t *pdestbuff = pDstBuffer;
 388              		.loc 1 345 3 view .LVU80
 389              	.LVL26:
 346:Drivers/STM32F4xx_HAL_Driver/Src/stm32f4xx_hal_sram.c ****   HAL_SRAM_StateTypeDef state = hsram->State;
 390              		.loc 1 346 3 view .LVU81
 347:Drivers/STM32F4xx_HAL_Driver/Src/stm32f4xx_hal_sram.c **** 
 391              		.loc 1 347 3 view .LVU82
 347:Drivers/STM32F4xx_HAL_Driver/Src/stm32f4xx_hal_sram.c **** 
 392              		.loc 1 347 25 is_stmt 0 view .LVU83
 393 0004 90F84900 		ldrb	r0, [r0, #73]	@ zero_extendqisi2
 394              	.LVL27:
 347:Drivers/STM32F4xx_HAL_Driver/Src/stm32f4xx_hal_sram.c **** 
 395              		.loc 1 347 25 view .LVU84
 396 0008 C0B2     		uxtb	r0, r0
 397              	.LVL28:
 350:Drivers/STM32F4xx_HAL_Driver/Src/stm32f4xx_hal_sram.c ****   {
 398              		.loc 1 350 3 is_stmt 1 view .LVU85
 350:Drivers/STM32F4xx_HAL_Driver/Src/stm32f4xx_hal_sram.c ****   {
 399              		.loc 1 350 6 is_stmt 0 view .LVU86
 400 000a 0128     		cmp	r0, #1
ARM GAS  /tmp/cc6qTBh5.s 			page 28


 401 000c 01D0     		beq	.L23
 350:Drivers/STM32F4xx_HAL_Driver/Src/stm32f4xx_hal_sram.c ****   {
 402              		.loc 1 350 39 discriminator 1 view .LVU87
 403 000e 0428     		cmp	r0, #4
 404 0010 1BD1     		bne	.L27
 405              	.L23:
 353:Drivers/STM32F4xx_HAL_Driver/Src/stm32f4xx_hal_sram.c **** 
 406              		.loc 1 353 5 is_stmt 1 view .LVU88
 353:Drivers/STM32F4xx_HAL_Driver/Src/stm32f4xx_hal_sram.c **** 
 407              		.loc 1 353 5 view .LVU89
 408 0012 9EF848C0 		ldrb	ip, [lr, #72]	@ zero_extendqisi2
 409 0016 BCF1010F 		cmp	ip, #1
 410 001a 18D0     		beq	.L28
 353:Drivers/STM32F4xx_HAL_Driver/Src/stm32f4xx_hal_sram.c **** 
 411              		.loc 1 353 5 discriminator 2 view .LVU90
 412 001c 4FF0010C 		mov	ip, #1
 413 0020 8EF848C0 		strb	ip, [lr, #72]
 353:Drivers/STM32F4xx_HAL_Driver/Src/stm32f4xx_hal_sram.c **** 
 414              		.loc 1 353 5 discriminator 2 view .LVU91
 356:Drivers/STM32F4xx_HAL_Driver/Src/stm32f4xx_hal_sram.c **** 
 415              		.loc 1 356 5 view .LVU92
 356:Drivers/STM32F4xx_HAL_Driver/Src/stm32f4xx_hal_sram.c **** 
 416              		.loc 1 356 18 is_stmt 0 view .LVU93
 417 0024 4FF0020C 		mov	ip, #2
 418 0028 8EF849C0 		strb	ip, [lr, #73]
 359:Drivers/STM32F4xx_HAL_Driver/Src/stm32f4xx_hal_sram.c ****     {
 419              		.loc 1 359 5 is_stmt 1 view .LVU94
 420              	.LVL29:
 359:Drivers/STM32F4xx_HAL_Driver/Src/stm32f4xx_hal_sram.c ****     {
 421              		.loc 1 359 5 is_stmt 0 view .LVU95
 422 002c 04E0     		b	.L25
 423              	.LVL30:
 424              	.L26:
 361:Drivers/STM32F4xx_HAL_Driver/Src/stm32f4xx_hal_sram.c ****       pdestbuff++;
 425              		.loc 1 361 7 is_stmt 1 view .LVU96
 361:Drivers/STM32F4xx_HAL_Driver/Src/stm32f4xx_hal_sram.c ****       pdestbuff++;
 426              		.loc 1 361 20 is_stmt 0 view .LVU97
 427 002e 11F801CB 		ldrb	ip, [r1], #1	@ zero_extendqisi2
 428              	.LVL31:
 361:Drivers/STM32F4xx_HAL_Driver/Src/stm32f4xx_hal_sram.c ****       pdestbuff++;
 429              		.loc 1 361 18 view .LVU98
 430 0032 02F801CB 		strb	ip, [r2], #1
 431              	.LVL32:
 362:Drivers/STM32F4xx_HAL_Driver/Src/stm32f4xx_hal_sram.c ****       psramaddress++;
 432              		.loc 1 362 7 is_stmt 1 view .LVU99
 363:Drivers/STM32F4xx_HAL_Driver/Src/stm32f4xx_hal_sram.c ****     }
 433              		.loc 1 363 7 view .LVU100
 359:Drivers/STM32F4xx_HAL_Driver/Src/stm32f4xx_hal_sram.c ****     {
 434              		.loc 1 359 45 discriminator 3 view .LVU101
 435 0036 013B     		subs	r3, r3, #1
 436              	.LVL33:
 437              	.L25:
 359:Drivers/STM32F4xx_HAL_Driver/Src/stm32f4xx_hal_sram.c ****     {
 438              		.loc 1 359 34 discriminator 1 view .LVU102
 439 0038 002B     		cmp	r3, #0
 440 003a F8D1     		bne	.L26
 367:Drivers/STM32F4xx_HAL_Driver/Src/stm32f4xx_hal_sram.c **** 
ARM GAS  /tmp/cc6qTBh5.s 			page 29


 441              		.loc 1 367 5 view .LVU103
 367:Drivers/STM32F4xx_HAL_Driver/Src/stm32f4xx_hal_sram.c **** 
 442              		.loc 1 367 18 is_stmt 0 view .LVU104
 443 003c 8EF84900 		strb	r0, [lr, #73]
 370:Drivers/STM32F4xx_HAL_Driver/Src/stm32f4xx_hal_sram.c ****   }
 444              		.loc 1 370 5 is_stmt 1 view .LVU105
 370:Drivers/STM32F4xx_HAL_Driver/Src/stm32f4xx_hal_sram.c ****   }
 445              		.loc 1 370 5 view .LVU106
 446 0040 0020     		movs	r0, #0
 447              	.LVL34:
 370:Drivers/STM32F4xx_HAL_Driver/Src/stm32f4xx_hal_sram.c ****   }
 448              		.loc 1 370 5 is_stmt 0 view .LVU107
 449 0042 8EF84800 		strb	r0, [lr, #72]
 370:Drivers/STM32F4xx_HAL_Driver/Src/stm32f4xx_hal_sram.c ****   }
 450              		.loc 1 370 5 is_stmt 1 view .LVU108
 377:Drivers/STM32F4xx_HAL_Driver/Src/stm32f4xx_hal_sram.c **** }
 451              		.loc 1 377 3 view .LVU109
 452              	.LVL35:
 453              	.L24:
 378:Drivers/STM32F4xx_HAL_Driver/Src/stm32f4xx_hal_sram.c **** 
 454              		.loc 1 378 1 is_stmt 0 view .LVU110
 455 0046 5DF804FB 		ldr	pc, [sp], #4
 456              	.LVL36:
 457              	.L27:
 374:Drivers/STM32F4xx_HAL_Driver/Src/stm32f4xx_hal_sram.c ****   }
 458              		.loc 1 374 12 view .LVU111
 459 004a 0120     		movs	r0, #1
 460              	.LVL37:
 374:Drivers/STM32F4xx_HAL_Driver/Src/stm32f4xx_hal_sram.c ****   }
 461              		.loc 1 374 12 view .LVU112
 462 004c FBE7     		b	.L24
 463              	.LVL38:
 464              	.L28:
 353:Drivers/STM32F4xx_HAL_Driver/Src/stm32f4xx_hal_sram.c **** 
 465              		.loc 1 353 5 discriminator 1 view .LVU113
 466 004e 0220     		movs	r0, #2
 467              	.LVL39:
 353:Drivers/STM32F4xx_HAL_Driver/Src/stm32f4xx_hal_sram.c **** 
 468              		.loc 1 353 5 discriminator 1 view .LVU114
 469 0050 F9E7     		b	.L24
 470              		.cfi_endproc
 471              	.LFE136:
 473              		.section	.text.HAL_SRAM_Write_8b,"ax",%progbits
 474              		.align	1
 475              		.global	HAL_SRAM_Write_8b
 476              		.syntax unified
 477              		.thumb
 478              		.thumb_func
 480              	HAL_SRAM_Write_8b:
 481              	.LVL40:
 482              	.LFB137:
 391:Drivers/STM32F4xx_HAL_Driver/Src/stm32f4xx_hal_sram.c ****   uint32_t size;
 483              		.loc 1 391 1 is_stmt 1 view -0
 484              		.cfi_startproc
 485              		@ args = 0, pretend = 0, frame = 0
 486              		@ frame_needed = 0, uses_anonymous_args = 0
 487              		@ link register save eliminated.
ARM GAS  /tmp/cc6qTBh5.s 			page 30


 392:Drivers/STM32F4xx_HAL_Driver/Src/stm32f4xx_hal_sram.c ****   __IO uint8_t *psramaddress = (uint8_t *)pAddress;
 488              		.loc 1 392 3 view .LVU116
 393:Drivers/STM32F4xx_HAL_Driver/Src/stm32f4xx_hal_sram.c ****   uint8_t *psrcbuff = pSrcBuffer;
 489              		.loc 1 393 3 view .LVU117
 394:Drivers/STM32F4xx_HAL_Driver/Src/stm32f4xx_hal_sram.c **** 
 490              		.loc 1 394 3 view .LVU118
 397:Drivers/STM32F4xx_HAL_Driver/Src/stm32f4xx_hal_sram.c ****   {
 491              		.loc 1 397 3 view .LVU119
 397:Drivers/STM32F4xx_HAL_Driver/Src/stm32f4xx_hal_sram.c ****   {
 492              		.loc 1 397 12 is_stmt 0 view .LVU120
 493 0000 90F849C0 		ldrb	ip, [r0, #73]	@ zero_extendqisi2
 494 0004 5FFA8CFC 		uxtb	ip, ip
 397:Drivers/STM32F4xx_HAL_Driver/Src/stm32f4xx_hal_sram.c ****   {
 495              		.loc 1 397 6 view .LVU121
 496 0008 BCF1010F 		cmp	ip, #1
 497 000c 1CD1     		bne	.L34
 400:Drivers/STM32F4xx_HAL_Driver/Src/stm32f4xx_hal_sram.c **** 
 498              		.loc 1 400 5 is_stmt 1 view .LVU122
 400:Drivers/STM32F4xx_HAL_Driver/Src/stm32f4xx_hal_sram.c **** 
 499              		.loc 1 400 5 view .LVU123
 500 000e 90F848C0 		ldrb	ip, [r0, #72]	@ zero_extendqisi2
 501 0012 BCF1010F 		cmp	ip, #1
 502 0016 19D0     		beq	.L35
 400:Drivers/STM32F4xx_HAL_Driver/Src/stm32f4xx_hal_sram.c **** 
 503              		.loc 1 400 5 discriminator 2 view .LVU124
 504 0018 4FF0010C 		mov	ip, #1
 505 001c 80F848C0 		strb	ip, [r0, #72]
 400:Drivers/STM32F4xx_HAL_Driver/Src/stm32f4xx_hal_sram.c **** 
 506              		.loc 1 400 5 discriminator 2 view .LVU125
 403:Drivers/STM32F4xx_HAL_Driver/Src/stm32f4xx_hal_sram.c **** 
 507              		.loc 1 403 5 view .LVU126
 403:Drivers/STM32F4xx_HAL_Driver/Src/stm32f4xx_hal_sram.c **** 
 508              		.loc 1 403 18 is_stmt 0 view .LVU127
 509 0020 4FF0020C 		mov	ip, #2
 510 0024 80F849C0 		strb	ip, [r0, #73]
 406:Drivers/STM32F4xx_HAL_Driver/Src/stm32f4xx_hal_sram.c ****     {
 511              		.loc 1 406 5 is_stmt 1 view .LVU128
 512              	.LVL41:
 406:Drivers/STM32F4xx_HAL_Driver/Src/stm32f4xx_hal_sram.c ****     {
 513              		.loc 1 406 5 is_stmt 0 view .LVU129
 514 0028 04E0     		b	.L32
 515              	.LVL42:
 516              	.L33:
 408:Drivers/STM32F4xx_HAL_Driver/Src/stm32f4xx_hal_sram.c ****       psrcbuff++;
 517              		.loc 1 408 7 is_stmt 1 view .LVU130
 408:Drivers/STM32F4xx_HAL_Driver/Src/stm32f4xx_hal_sram.c ****       psrcbuff++;
 518              		.loc 1 408 23 is_stmt 0 view .LVU131
 519 002a 12F801CB 		ldrb	ip, [r2], #1	@ zero_extendqisi2
 520              	.LVL43:
 408:Drivers/STM32F4xx_HAL_Driver/Src/stm32f4xx_hal_sram.c ****       psrcbuff++;
 521              		.loc 1 408 21 view .LVU132
 522 002e 01F801CB 		strb	ip, [r1], #1
 523              	.LVL44:
 409:Drivers/STM32F4xx_HAL_Driver/Src/stm32f4xx_hal_sram.c ****       psramaddress++;
 524              		.loc 1 409 7 is_stmt 1 view .LVU133
 410:Drivers/STM32F4xx_HAL_Driver/Src/stm32f4xx_hal_sram.c ****     }
 525              		.loc 1 410 7 view .LVU134
ARM GAS  /tmp/cc6qTBh5.s 			page 31


 406:Drivers/STM32F4xx_HAL_Driver/Src/stm32f4xx_hal_sram.c ****     {
 526              		.loc 1 406 45 discriminator 3 view .LVU135
 527 0032 013B     		subs	r3, r3, #1
 528              	.LVL45:
 529              	.L32:
 406:Drivers/STM32F4xx_HAL_Driver/Src/stm32f4xx_hal_sram.c ****     {
 530              		.loc 1 406 34 discriminator 1 view .LVU136
 531 0034 002B     		cmp	r3, #0
 532 0036 F8D1     		bne	.L33
 414:Drivers/STM32F4xx_HAL_Driver/Src/stm32f4xx_hal_sram.c **** 
 533              		.loc 1 414 5 view .LVU137
 414:Drivers/STM32F4xx_HAL_Driver/Src/stm32f4xx_hal_sram.c **** 
 534              		.loc 1 414 18 is_stmt 0 view .LVU138
 535 0038 0123     		movs	r3, #1
 536              	.LVL46:
 414:Drivers/STM32F4xx_HAL_Driver/Src/stm32f4xx_hal_sram.c **** 
 537              		.loc 1 414 18 view .LVU139
 538 003a 80F84930 		strb	r3, [r0, #73]
 417:Drivers/STM32F4xx_HAL_Driver/Src/stm32f4xx_hal_sram.c ****   }
 539              		.loc 1 417 5 is_stmt 1 view .LVU140
 417:Drivers/STM32F4xx_HAL_Driver/Src/stm32f4xx_hal_sram.c ****   }
 540              		.loc 1 417 5 view .LVU141
 541 003e 0023     		movs	r3, #0
 542 0040 80F84830 		strb	r3, [r0, #72]
 417:Drivers/STM32F4xx_HAL_Driver/Src/stm32f4xx_hal_sram.c ****   }
 543              		.loc 1 417 5 view .LVU142
 424:Drivers/STM32F4xx_HAL_Driver/Src/stm32f4xx_hal_sram.c **** }
 544              		.loc 1 424 3 view .LVU143
 424:Drivers/STM32F4xx_HAL_Driver/Src/stm32f4xx_hal_sram.c **** }
 545              		.loc 1 424 10 is_stmt 0 view .LVU144
 546 0044 1846     		mov	r0, r3
 547              	.LVL47:
 424:Drivers/STM32F4xx_HAL_Driver/Src/stm32f4xx_hal_sram.c **** }
 548              		.loc 1 424 10 view .LVU145
 549 0046 7047     		bx	lr
 550              	.LVL48:
 551              	.L34:
 421:Drivers/STM32F4xx_HAL_Driver/Src/stm32f4xx_hal_sram.c ****   }
 552              		.loc 1 421 12 view .LVU146
 553 0048 0120     		movs	r0, #1
 554              	.LVL49:
 421:Drivers/STM32F4xx_HAL_Driver/Src/stm32f4xx_hal_sram.c ****   }
 555              		.loc 1 421 12 view .LVU147
 556 004a 7047     		bx	lr
 557              	.LVL50:
 558              	.L35:
 400:Drivers/STM32F4xx_HAL_Driver/Src/stm32f4xx_hal_sram.c **** 
 559              		.loc 1 400 5 discriminator 1 view .LVU148
 560 004c 0220     		movs	r0, #2
 561              	.LVL51:
 425:Drivers/STM32F4xx_HAL_Driver/Src/stm32f4xx_hal_sram.c **** 
 562              		.loc 1 425 1 view .LVU149
 563 004e 7047     		bx	lr
 564              		.cfi_endproc
 565              	.LFE137:
 567              		.section	.text.HAL_SRAM_Read_16b,"ax",%progbits
 568              		.align	1
ARM GAS  /tmp/cc6qTBh5.s 			page 32


 569              		.global	HAL_SRAM_Read_16b
 570              		.syntax unified
 571              		.thumb
 572              		.thumb_func
 574              	HAL_SRAM_Read_16b:
 575              	.LVL52:
 576              	.LFB138:
 438:Drivers/STM32F4xx_HAL_Driver/Src/stm32f4xx_hal_sram.c ****   uint32_t size;
 577              		.loc 1 438 1 is_stmt 1 view -0
 578              		.cfi_startproc
 579              		@ args = 0, pretend = 0, frame = 0
 580              		@ frame_needed = 0, uses_anonymous_args = 0
 438:Drivers/STM32F4xx_HAL_Driver/Src/stm32f4xx_hal_sram.c ****   uint32_t size;
 581              		.loc 1 438 1 is_stmt 0 view .LVU151
 582 0000 30B5     		push	{r4, r5, lr}
 583              	.LCFI7:
 584              		.cfi_def_cfa_offset 12
 585              		.cfi_offset 4, -12
 586              		.cfi_offset 5, -8
 587              		.cfi_offset 14, -4
 588 0002 8646     		mov	lr, r0
 439:Drivers/STM32F4xx_HAL_Driver/Src/stm32f4xx_hal_sram.c ****   __IO uint32_t *psramaddress = pAddress;
 589              		.loc 1 439 3 is_stmt 1 view .LVU152
 440:Drivers/STM32F4xx_HAL_Driver/Src/stm32f4xx_hal_sram.c ****   uint16_t *pdestbuff = pDstBuffer;
 590              		.loc 1 440 3 view .LVU153
 591              	.LVL53:
 441:Drivers/STM32F4xx_HAL_Driver/Src/stm32f4xx_hal_sram.c ****   uint8_t limit;
 592              		.loc 1 441 3 view .LVU154
 442:Drivers/STM32F4xx_HAL_Driver/Src/stm32f4xx_hal_sram.c ****   HAL_SRAM_StateTypeDef state = hsram->State;
 593              		.loc 1 442 3 view .LVU155
 443:Drivers/STM32F4xx_HAL_Driver/Src/stm32f4xx_hal_sram.c **** 
 594              		.loc 1 443 3 view .LVU156
 443:Drivers/STM32F4xx_HAL_Driver/Src/stm32f4xx_hal_sram.c **** 
 595              		.loc 1 443 25 is_stmt 0 view .LVU157
 596 0004 90F84950 		ldrb	r5, [r0, #73]	@ zero_extendqisi2
 597 0008 EDB2     		uxtb	r5, r5
 598              	.LVL54:
 446:Drivers/STM32F4xx_HAL_Driver/Src/stm32f4xx_hal_sram.c ****   {
 599              		.loc 1 446 3 is_stmt 1 view .LVU158
 446:Drivers/STM32F4xx_HAL_Driver/Src/stm32f4xx_hal_sram.c ****   {
 600              		.loc 1 446 6 is_stmt 0 view .LVU159
 601 000a 012D     		cmp	r5, #1
 602 000c 01D0     		beq	.L37
 446:Drivers/STM32F4xx_HAL_Driver/Src/stm32f4xx_hal_sram.c ****   {
 603              		.loc 1 446 39 discriminator 1 view .LVU160
 604 000e 042D     		cmp	r5, #4
 605 0010 21D1     		bne	.L42
 606              	.L37:
 449:Drivers/STM32F4xx_HAL_Driver/Src/stm32f4xx_hal_sram.c **** 
 607              		.loc 1 449 5 is_stmt 1 view .LVU161
 449:Drivers/STM32F4xx_HAL_Driver/Src/stm32f4xx_hal_sram.c **** 
 608              		.loc 1 449 5 view .LVU162
 609 0012 9EF84800 		ldrb	r0, [lr, #72]	@ zero_extendqisi2
 610              	.LVL55:
 449:Drivers/STM32F4xx_HAL_Driver/Src/stm32f4xx_hal_sram.c **** 
 611              		.loc 1 449 5 is_stmt 0 view .LVU163
 612 0016 0128     		cmp	r0, #1
ARM GAS  /tmp/cc6qTBh5.s 			page 33


 613 0018 1FD0     		beq	.L43
 449:Drivers/STM32F4xx_HAL_Driver/Src/stm32f4xx_hal_sram.c **** 
 614              		.loc 1 449 5 is_stmt 1 discriminator 2 view .LVU164
 615 001a 0120     		movs	r0, #1
 616 001c 8EF84800 		strb	r0, [lr, #72]
 449:Drivers/STM32F4xx_HAL_Driver/Src/stm32f4xx_hal_sram.c **** 
 617              		.loc 1 449 5 discriminator 2 view .LVU165
 452:Drivers/STM32F4xx_HAL_Driver/Src/stm32f4xx_hal_sram.c **** 
 618              		.loc 1 452 5 view .LVU166
 452:Drivers/STM32F4xx_HAL_Driver/Src/stm32f4xx_hal_sram.c **** 
 619              		.loc 1 452 18 is_stmt 0 view .LVU167
 620 0020 0220     		movs	r0, #2
 621 0022 8EF84900 		strb	r0, [lr, #73]
 455:Drivers/STM32F4xx_HAL_Driver/Src/stm32f4xx_hal_sram.c **** 
 622              		.loc 1 455 5 is_stmt 1 view .LVU168
 455:Drivers/STM32F4xx_HAL_Driver/Src/stm32f4xx_hal_sram.c **** 
 623              		.loc 1 455 11 is_stmt 0 view .LVU169
 624 0026 03F00100 		and	r0, r3, #1
 625              	.LVL56:
 458:Drivers/STM32F4xx_HAL_Driver/Src/stm32f4xx_hal_sram.c ****     {
 626              		.loc 1 458 5 is_stmt 1 view .LVU170
 458:Drivers/STM32F4xx_HAL_Driver/Src/stm32f4xx_hal_sram.c ****     {
 627              		.loc 1 458 5 is_stmt 0 view .LVU171
 628 002a 09E0     		b	.L39
 629              	.LVL57:
 630              	.L40:
 460:Drivers/STM32F4xx_HAL_Driver/Src/stm32f4xx_hal_sram.c ****       pdestbuff++;
 631              		.loc 1 460 7 is_stmt 1 view .LVU172
 460:Drivers/STM32F4xx_HAL_Driver/Src/stm32f4xx_hal_sram.c ****       pdestbuff++;
 632              		.loc 1 460 32 is_stmt 0 view .LVU173
 633 002c 0C68     		ldr	r4, [r1]
 460:Drivers/STM32F4xx_HAL_Driver/Src/stm32f4xx_hal_sram.c ****       pdestbuff++;
 634              		.loc 1 460 18 view .LVU174
 635 002e 1480     		strh	r4, [r2]	@ movhi
 461:Drivers/STM32F4xx_HAL_Driver/Src/stm32f4xx_hal_sram.c ****       *pdestbuff = (uint16_t)(((*psramaddress) & 0xFFFF0000U) >> 16U);
 636              		.loc 1 461 7 is_stmt 1 view .LVU175
 637              	.LVL58:
 462:Drivers/STM32F4xx_HAL_Driver/Src/stm32f4xx_hal_sram.c ****       pdestbuff++;
 638              		.loc 1 462 7 view .LVU176
 462:Drivers/STM32F4xx_HAL_Driver/Src/stm32f4xx_hal_sram.c ****       pdestbuff++;
 639              		.loc 1 462 33 is_stmt 0 view .LVU177
 640 0030 51F8044B 		ldr	r4, [r1], #4
 641              	.LVL59:
 462:Drivers/STM32F4xx_HAL_Driver/Src/stm32f4xx_hal_sram.c ****       pdestbuff++;
 642              		.loc 1 462 20 view .LVU178
 643 0034 4FEA144C 		lsr	ip, r4, #16
 462:Drivers/STM32F4xx_HAL_Driver/Src/stm32f4xx_hal_sram.c ****       pdestbuff++;
 644              		.loc 1 462 18 view .LVU179
 645 0038 A2F802C0 		strh	ip, [r2, #2]	@ movhi
 463:Drivers/STM32F4xx_HAL_Driver/Src/stm32f4xx_hal_sram.c ****       psramaddress++;
 646              		.loc 1 463 7 is_stmt 1 view .LVU180
 463:Drivers/STM32F4xx_HAL_Driver/Src/stm32f4xx_hal_sram.c ****       psramaddress++;
 647              		.loc 1 463 16 is_stmt 0 view .LVU181
 648 003c 0432     		adds	r2, r2, #4
 649              	.LVL60:
 464:Drivers/STM32F4xx_HAL_Driver/Src/stm32f4xx_hal_sram.c ****     }
 650              		.loc 1 464 7 is_stmt 1 view .LVU182
ARM GAS  /tmp/cc6qTBh5.s 			page 34


 458:Drivers/STM32F4xx_HAL_Driver/Src/stm32f4xx_hal_sram.c ****     {
 651              		.loc 1 458 49 discriminator 3 view .LVU183
 652 003e 023B     		subs	r3, r3, #2
 653              	.LVL61:
 654              	.L39:
 458:Drivers/STM32F4xx_HAL_Driver/Src/stm32f4xx_hal_sram.c ****     {
 655              		.loc 1 458 34 discriminator 1 view .LVU184
 656 0040 9842     		cmp	r0, r3
 657 0042 F3D1     		bne	.L40
 468:Drivers/STM32F4xx_HAL_Driver/Src/stm32f4xx_hal_sram.c ****     {
 658              		.loc 1 468 5 view .LVU185
 468:Drivers/STM32F4xx_HAL_Driver/Src/stm32f4xx_hal_sram.c ****     {
 659              		.loc 1 468 8 is_stmt 0 view .LVU186
 660 0044 08B1     		cbz	r0, .L41
 470:Drivers/STM32F4xx_HAL_Driver/Src/stm32f4xx_hal_sram.c ****     }
 661              		.loc 1 470 7 is_stmt 1 view .LVU187
 470:Drivers/STM32F4xx_HAL_Driver/Src/stm32f4xx_hal_sram.c ****     }
 662              		.loc 1 470 32 is_stmt 0 view .LVU188
 663 0046 0B68     		ldr	r3, [r1]
 664              	.LVL62:
 470:Drivers/STM32F4xx_HAL_Driver/Src/stm32f4xx_hal_sram.c ****     }
 665              		.loc 1 470 18 view .LVU189
 666 0048 1380     		strh	r3, [r2]	@ movhi
 667              	.L41:
 474:Drivers/STM32F4xx_HAL_Driver/Src/stm32f4xx_hal_sram.c **** 
 668              		.loc 1 474 5 is_stmt 1 view .LVU190
 474:Drivers/STM32F4xx_HAL_Driver/Src/stm32f4xx_hal_sram.c **** 
 669              		.loc 1 474 18 is_stmt 0 view .LVU191
 670 004a 8EF84950 		strb	r5, [lr, #73]
 477:Drivers/STM32F4xx_HAL_Driver/Src/stm32f4xx_hal_sram.c ****   }
 671              		.loc 1 477 5 is_stmt 1 view .LVU192
 477:Drivers/STM32F4xx_HAL_Driver/Src/stm32f4xx_hal_sram.c ****   }
 672              		.loc 1 477 5 view .LVU193
 673 004e 0020     		movs	r0, #0
 674              	.LVL63:
 477:Drivers/STM32F4xx_HAL_Driver/Src/stm32f4xx_hal_sram.c ****   }
 675              		.loc 1 477 5 is_stmt 0 view .LVU194
 676 0050 8EF84800 		strb	r0, [lr, #72]
 477:Drivers/STM32F4xx_HAL_Driver/Src/stm32f4xx_hal_sram.c ****   }
 677              		.loc 1 477 5 is_stmt 1 view .LVU195
 484:Drivers/STM32F4xx_HAL_Driver/Src/stm32f4xx_hal_sram.c **** }
 678              		.loc 1 484 3 view .LVU196
 679              	.LVL64:
 680              	.L38:
 485:Drivers/STM32F4xx_HAL_Driver/Src/stm32f4xx_hal_sram.c **** 
 681              		.loc 1 485 1 is_stmt 0 view .LVU197
 682 0054 30BD     		pop	{r4, r5, pc}
 683              	.LVL65:
 684              	.L42:
 481:Drivers/STM32F4xx_HAL_Driver/Src/stm32f4xx_hal_sram.c ****   }
 685              		.loc 1 481 12 view .LVU198
 686 0056 0120     		movs	r0, #1
 687              	.LVL66:
 481:Drivers/STM32F4xx_HAL_Driver/Src/stm32f4xx_hal_sram.c ****   }
 688              		.loc 1 481 12 view .LVU199
 689 0058 FCE7     		b	.L38
 690              	.L43:
ARM GAS  /tmp/cc6qTBh5.s 			page 35


 449:Drivers/STM32F4xx_HAL_Driver/Src/stm32f4xx_hal_sram.c **** 
 691              		.loc 1 449 5 discriminator 1 view .LVU200
 692 005a 0220     		movs	r0, #2
 693 005c FAE7     		b	.L38
 694              		.cfi_endproc
 695              	.LFE138:
 697              		.section	.text.HAL_SRAM_Write_16b,"ax",%progbits
 698              		.align	1
 699              		.global	HAL_SRAM_Write_16b
 700              		.syntax unified
 701              		.thumb
 702              		.thumb_func
 704              	HAL_SRAM_Write_16b:
 705              	.LVL67:
 706              	.LFB139:
 498:Drivers/STM32F4xx_HAL_Driver/Src/stm32f4xx_hal_sram.c ****   uint32_t size;
 707              		.loc 1 498 1 is_stmt 1 view -0
 708              		.cfi_startproc
 709              		@ args = 0, pretend = 0, frame = 0
 710              		@ frame_needed = 0, uses_anonymous_args = 0
 711              		@ link register save eliminated.
 498:Drivers/STM32F4xx_HAL_Driver/Src/stm32f4xx_hal_sram.c ****   uint32_t size;
 712              		.loc 1 498 1 is_stmt 0 view .LVU202
 713 0000 30B4     		push	{r4, r5}
 714              	.LCFI8:
 715              		.cfi_def_cfa_offset 8
 716              		.cfi_offset 4, -8
 717              		.cfi_offset 5, -4
 499:Drivers/STM32F4xx_HAL_Driver/Src/stm32f4xx_hal_sram.c ****   __IO uint32_t *psramaddress = pAddress;
 718              		.loc 1 499 3 is_stmt 1 view .LVU203
 500:Drivers/STM32F4xx_HAL_Driver/Src/stm32f4xx_hal_sram.c ****   uint16_t *psrcbuff = pSrcBuffer;
 719              		.loc 1 500 3 view .LVU204
 720              	.LVL68:
 501:Drivers/STM32F4xx_HAL_Driver/Src/stm32f4xx_hal_sram.c ****   uint8_t limit;
 721              		.loc 1 501 3 view .LVU205
 502:Drivers/STM32F4xx_HAL_Driver/Src/stm32f4xx_hal_sram.c **** 
 722              		.loc 1 502 3 view .LVU206
 505:Drivers/STM32F4xx_HAL_Driver/Src/stm32f4xx_hal_sram.c ****   {
 723              		.loc 1 505 3 view .LVU207
 505:Drivers/STM32F4xx_HAL_Driver/Src/stm32f4xx_hal_sram.c ****   {
 724              		.loc 1 505 12 is_stmt 0 view .LVU208
 725 0002 90F84940 		ldrb	r4, [r0, #73]	@ zero_extendqisi2
 726 0006 E4B2     		uxtb	r4, r4
 505:Drivers/STM32F4xx_HAL_Driver/Src/stm32f4xx_hal_sram.c ****   {
 727              		.loc 1 505 6 view .LVU209
 728 0008 012C     		cmp	r4, #1
 729 000a 28D1     		bne	.L50
 508:Drivers/STM32F4xx_HAL_Driver/Src/stm32f4xx_hal_sram.c **** 
 730              		.loc 1 508 5 is_stmt 1 view .LVU210
 508:Drivers/STM32F4xx_HAL_Driver/Src/stm32f4xx_hal_sram.c **** 
 731              		.loc 1 508 5 view .LVU211
 732 000c 90F84840 		ldrb	r4, [r0, #72]	@ zero_extendqisi2
 733 0010 012C     		cmp	r4, #1
 734 0012 27D0     		beq	.L51
 508:Drivers/STM32F4xx_HAL_Driver/Src/stm32f4xx_hal_sram.c **** 
 735              		.loc 1 508 5 discriminator 2 view .LVU212
 736 0014 0124     		movs	r4, #1
ARM GAS  /tmp/cc6qTBh5.s 			page 36


 737 0016 80F84840 		strb	r4, [r0, #72]
 508:Drivers/STM32F4xx_HAL_Driver/Src/stm32f4xx_hal_sram.c **** 
 738              		.loc 1 508 5 discriminator 2 view .LVU213
 511:Drivers/STM32F4xx_HAL_Driver/Src/stm32f4xx_hal_sram.c **** 
 739              		.loc 1 511 5 view .LVU214
 511:Drivers/STM32F4xx_HAL_Driver/Src/stm32f4xx_hal_sram.c **** 
 740              		.loc 1 511 18 is_stmt 0 view .LVU215
 741 001a 0224     		movs	r4, #2
 742 001c 80F84940 		strb	r4, [r0, #73]
 514:Drivers/STM32F4xx_HAL_Driver/Src/stm32f4xx_hal_sram.c **** 
 743              		.loc 1 514 5 is_stmt 1 view .LVU216
 514:Drivers/STM32F4xx_HAL_Driver/Src/stm32f4xx_hal_sram.c **** 
 744              		.loc 1 514 11 is_stmt 0 view .LVU217
 745 0020 03F00105 		and	r5, r3, #1
 746              	.LVL69:
 517:Drivers/STM32F4xx_HAL_Driver/Src/stm32f4xx_hal_sram.c ****     {
 747              		.loc 1 517 5 is_stmt 1 view .LVU218
 517:Drivers/STM32F4xx_HAL_Driver/Src/stm32f4xx_hal_sram.c ****     {
 748              		.loc 1 517 5 is_stmt 0 view .LVU219
 749 0024 0AE0     		b	.L47
 750              	.LVL70:
 751              	.L48:
 519:Drivers/STM32F4xx_HAL_Driver/Src/stm32f4xx_hal_sram.c ****       psrcbuff++;
 752              		.loc 1 519 7 is_stmt 1 view .LVU220
 519:Drivers/STM32F4xx_HAL_Driver/Src/stm32f4xx_hal_sram.c ****       psrcbuff++;
 753              		.loc 1 519 34 is_stmt 0 view .LVU221
 754 0026 1488     		ldrh	r4, [r2]
 519:Drivers/STM32F4xx_HAL_Driver/Src/stm32f4xx_hal_sram.c ****       psrcbuff++;
 755              		.loc 1 519 21 view .LVU222
 756 0028 0C60     		str	r4, [r1]
 520:Drivers/STM32F4xx_HAL_Driver/Src/stm32f4xx_hal_sram.c ****       *psramaddress |= ((uint32_t)(*psrcbuff) << 16U);
 757              		.loc 1 520 7 is_stmt 1 view .LVU223
 758              	.LVL71:
 521:Drivers/STM32F4xx_HAL_Driver/Src/stm32f4xx_hal_sram.c ****       psrcbuff++;
 759              		.loc 1 521 7 view .LVU224
 760 002a 0C68     		ldr	r4, [r1]
 521:Drivers/STM32F4xx_HAL_Driver/Src/stm32f4xx_hal_sram.c ****       psrcbuff++;
 761              		.loc 1 521 36 is_stmt 0 view .LVU225
 762 002c B2F802C0 		ldrh	ip, [r2, #2]
 521:Drivers/STM32F4xx_HAL_Driver/Src/stm32f4xx_hal_sram.c ****       psrcbuff++;
 763              		.loc 1 521 21 view .LVU226
 764 0030 44EA0C44 		orr	r4, r4, ip, lsl #16
 765 0034 41F8044B 		str	r4, [r1], #4
 766              	.LVL72:
 522:Drivers/STM32F4xx_HAL_Driver/Src/stm32f4xx_hal_sram.c ****       psramaddress++;
 767              		.loc 1 522 7 is_stmt 1 view .LVU227
 522:Drivers/STM32F4xx_HAL_Driver/Src/stm32f4xx_hal_sram.c ****       psramaddress++;
 768              		.loc 1 522 15 is_stmt 0 view .LVU228
 769 0038 0432     		adds	r2, r2, #4
 770              	.LVL73:
 523:Drivers/STM32F4xx_HAL_Driver/Src/stm32f4xx_hal_sram.c ****     }
 771              		.loc 1 523 7 is_stmt 1 view .LVU229
 517:Drivers/STM32F4xx_HAL_Driver/Src/stm32f4xx_hal_sram.c ****     {
 772              		.loc 1 517 49 discriminator 3 view .LVU230
 773 003a 023B     		subs	r3, r3, #2
 774              	.LVL74:
 775              	.L47:
ARM GAS  /tmp/cc6qTBh5.s 			page 37


 517:Drivers/STM32F4xx_HAL_Driver/Src/stm32f4xx_hal_sram.c ****     {
 776              		.loc 1 517 34 discriminator 1 view .LVU231
 777 003c 9D42     		cmp	r5, r3
 778 003e F2D1     		bne	.L48
 527:Drivers/STM32F4xx_HAL_Driver/Src/stm32f4xx_hal_sram.c ****     {
 779              		.loc 1 527 5 view .LVU232
 527:Drivers/STM32F4xx_HAL_Driver/Src/stm32f4xx_hal_sram.c ****     {
 780              		.loc 1 527 8 is_stmt 0 view .LVU233
 781 0040 2DB1     		cbz	r5, .L49
 529:Drivers/STM32F4xx_HAL_Driver/Src/stm32f4xx_hal_sram.c ****     }
 782              		.loc 1 529 7 is_stmt 1 view .LVU234
 529:Drivers/STM32F4xx_HAL_Driver/Src/stm32f4xx_hal_sram.c ****     }
 783              		.loc 1 529 35 is_stmt 0 view .LVU235
 784 0042 1388     		ldrh	r3, [r2]
 785              	.LVL75:
 529:Drivers/STM32F4xx_HAL_Driver/Src/stm32f4xx_hal_sram.c ****     }
 786              		.loc 1 529 65 view .LVU236
 787 0044 0A68     		ldr	r2, [r1]
 788              	.LVL76:
 529:Drivers/STM32F4xx_HAL_Driver/Src/stm32f4xx_hal_sram.c ****     }
 789              		.loc 1 529 80 view .LVU237
 790 0046 6FF30F02 		bfc	r2, #0, #16
 529:Drivers/STM32F4xx_HAL_Driver/Src/stm32f4xx_hal_sram.c ****     }
 791              		.loc 1 529 61 view .LVU238
 792 004a 1343     		orrs	r3, r3, r2
 529:Drivers/STM32F4xx_HAL_Driver/Src/stm32f4xx_hal_sram.c ****     }
 793              		.loc 1 529 21 view .LVU239
 794 004c 0B60     		str	r3, [r1]
 795              	.L49:
 533:Drivers/STM32F4xx_HAL_Driver/Src/stm32f4xx_hal_sram.c **** 
 796              		.loc 1 533 5 is_stmt 1 view .LVU240
 533:Drivers/STM32F4xx_HAL_Driver/Src/stm32f4xx_hal_sram.c **** 
 797              		.loc 1 533 18 is_stmt 0 view .LVU241
 798 004e 0123     		movs	r3, #1
 799 0050 80F84930 		strb	r3, [r0, #73]
 536:Drivers/STM32F4xx_HAL_Driver/Src/stm32f4xx_hal_sram.c ****   }
 800              		.loc 1 536 5 is_stmt 1 view .LVU242
 536:Drivers/STM32F4xx_HAL_Driver/Src/stm32f4xx_hal_sram.c ****   }
 801              		.loc 1 536 5 view .LVU243
 802 0054 0023     		movs	r3, #0
 803 0056 80F84830 		strb	r3, [r0, #72]
 536:Drivers/STM32F4xx_HAL_Driver/Src/stm32f4xx_hal_sram.c ****   }
 804              		.loc 1 536 5 view .LVU244
 543:Drivers/STM32F4xx_HAL_Driver/Src/stm32f4xx_hal_sram.c **** }
 805              		.loc 1 543 3 view .LVU245
 543:Drivers/STM32F4xx_HAL_Driver/Src/stm32f4xx_hal_sram.c **** }
 806              		.loc 1 543 10 is_stmt 0 view .LVU246
 807 005a 1846     		mov	r0, r3
 808              	.LVL77:
 543:Drivers/STM32F4xx_HAL_Driver/Src/stm32f4xx_hal_sram.c **** }
 809              		.loc 1 543 10 view .LVU247
 810 005c 00E0     		b	.L46
 811              	.LVL78:
 812              	.L50:
 540:Drivers/STM32F4xx_HAL_Driver/Src/stm32f4xx_hal_sram.c ****   }
 813              		.loc 1 540 12 view .LVU248
 814 005e 0120     		movs	r0, #1
ARM GAS  /tmp/cc6qTBh5.s 			page 38


 815              	.LVL79:
 816              	.L46:
 544:Drivers/STM32F4xx_HAL_Driver/Src/stm32f4xx_hal_sram.c **** 
 817              		.loc 1 544 1 view .LVU249
 818 0060 30BC     		pop	{r4, r5}
 819              	.LCFI9:
 820              		.cfi_remember_state
 821              		.cfi_restore 5
 822              		.cfi_restore 4
 823              		.cfi_def_cfa_offset 0
 824 0062 7047     		bx	lr
 825              	.LVL80:
 826              	.L51:
 827              	.LCFI10:
 828              		.cfi_restore_state
 508:Drivers/STM32F4xx_HAL_Driver/Src/stm32f4xx_hal_sram.c **** 
 829              		.loc 1 508 5 discriminator 1 view .LVU250
 830 0064 0220     		movs	r0, #2
 831              	.LVL81:
 508:Drivers/STM32F4xx_HAL_Driver/Src/stm32f4xx_hal_sram.c **** 
 832              		.loc 1 508 5 discriminator 1 view .LVU251
 833 0066 FBE7     		b	.L46
 834              		.cfi_endproc
 835              	.LFE139:
 837              		.section	.text.HAL_SRAM_Read_32b,"ax",%progbits
 838              		.align	1
 839              		.global	HAL_SRAM_Read_32b
 840              		.syntax unified
 841              		.thumb
 842              		.thumb_func
 844              	HAL_SRAM_Read_32b:
 845              	.LVL82:
 846              	.LFB140:
 557:Drivers/STM32F4xx_HAL_Driver/Src/stm32f4xx_hal_sram.c ****   uint32_t size;
 847              		.loc 1 557 1 is_stmt 1 view -0
 848              		.cfi_startproc
 849              		@ args = 0, pretend = 0, frame = 0
 850              		@ frame_needed = 0, uses_anonymous_args = 0
 851              		@ link register save eliminated.
 557:Drivers/STM32F4xx_HAL_Driver/Src/stm32f4xx_hal_sram.c ****   uint32_t size;
 852              		.loc 1 557 1 is_stmt 0 view .LVU253
 853 0000 8446     		mov	ip, r0
 558:Drivers/STM32F4xx_HAL_Driver/Src/stm32f4xx_hal_sram.c ****   __IO uint32_t *psramaddress = pAddress;
 854              		.loc 1 558 3 is_stmt 1 view .LVU254
 559:Drivers/STM32F4xx_HAL_Driver/Src/stm32f4xx_hal_sram.c ****   uint32_t *pdestbuff = pDstBuffer;
 855              		.loc 1 559 3 view .LVU255
 856              	.LVL83:
 560:Drivers/STM32F4xx_HAL_Driver/Src/stm32f4xx_hal_sram.c ****   HAL_SRAM_StateTypeDef state = hsram->State;
 857              		.loc 1 560 3 view .LVU256
 561:Drivers/STM32F4xx_HAL_Driver/Src/stm32f4xx_hal_sram.c **** 
 858              		.loc 1 561 3 view .LVU257
 561:Drivers/STM32F4xx_HAL_Driver/Src/stm32f4xx_hal_sram.c **** 
 859              		.loc 1 561 25 is_stmt 0 view .LVU258
 860 0002 90F84900 		ldrb	r0, [r0, #73]	@ zero_extendqisi2
 861              	.LVL84:
 561:Drivers/STM32F4xx_HAL_Driver/Src/stm32f4xx_hal_sram.c **** 
 862              		.loc 1 561 25 view .LVU259
ARM GAS  /tmp/cc6qTBh5.s 			page 39


 863 0006 C0B2     		uxtb	r0, r0
 864              	.LVL85:
 564:Drivers/STM32F4xx_HAL_Driver/Src/stm32f4xx_hal_sram.c ****   {
 865              		.loc 1 564 3 is_stmt 1 view .LVU260
 564:Drivers/STM32F4xx_HAL_Driver/Src/stm32f4xx_hal_sram.c ****   {
 866              		.loc 1 564 6 is_stmt 0 view .LVU261
 867 0008 0128     		cmp	r0, #1
 868 000a 01D0     		beq	.L54
 564:Drivers/STM32F4xx_HAL_Driver/Src/stm32f4xx_hal_sram.c ****   {
 869              		.loc 1 564 39 discriminator 1 view .LVU262
 870 000c 0428     		cmp	r0, #4
 871 000e 1AD1     		bne	.L58
 872              	.L54:
 557:Drivers/STM32F4xx_HAL_Driver/Src/stm32f4xx_hal_sram.c ****   uint32_t size;
 873              		.loc 1 557 1 view .LVU263
 874 0010 10B4     		push	{r4}
 875              	.LCFI11:
 876              		.cfi_def_cfa_offset 4
 877              		.cfi_offset 4, -4
 567:Drivers/STM32F4xx_HAL_Driver/Src/stm32f4xx_hal_sram.c **** 
 878              		.loc 1 567 5 is_stmt 1 view .LVU264
 567:Drivers/STM32F4xx_HAL_Driver/Src/stm32f4xx_hal_sram.c **** 
 879              		.loc 1 567 5 view .LVU265
 880 0012 9CF84840 		ldrb	r4, [ip, #72]	@ zero_extendqisi2
 881 0016 012C     		cmp	r4, #1
 882 0018 17D0     		beq	.L59
 567:Drivers/STM32F4xx_HAL_Driver/Src/stm32f4xx_hal_sram.c **** 
 883              		.loc 1 567 5 discriminator 2 view .LVU266
 884 001a 0124     		movs	r4, #1
 885 001c 8CF84840 		strb	r4, [ip, #72]
 567:Drivers/STM32F4xx_HAL_Driver/Src/stm32f4xx_hal_sram.c **** 
 886              		.loc 1 567 5 discriminator 2 view .LVU267
 570:Drivers/STM32F4xx_HAL_Driver/Src/stm32f4xx_hal_sram.c **** 
 887              		.loc 1 570 5 view .LVU268
 570:Drivers/STM32F4xx_HAL_Driver/Src/stm32f4xx_hal_sram.c **** 
 888              		.loc 1 570 18 is_stmt 0 view .LVU269
 889 0020 0224     		movs	r4, #2
 890 0022 8CF84940 		strb	r4, [ip, #73]
 573:Drivers/STM32F4xx_HAL_Driver/Src/stm32f4xx_hal_sram.c ****     {
 891              		.loc 1 573 5 is_stmt 1 view .LVU270
 892              	.LVL86:
 573:Drivers/STM32F4xx_HAL_Driver/Src/stm32f4xx_hal_sram.c ****     {
 893              		.loc 1 573 5 is_stmt 0 view .LVU271
 894 0026 04E0     		b	.L56
 895              	.LVL87:
 896              	.L57:
 575:Drivers/STM32F4xx_HAL_Driver/Src/stm32f4xx_hal_sram.c ****       pdestbuff++;
 897              		.loc 1 575 7 is_stmt 1 view .LVU272
 575:Drivers/STM32F4xx_HAL_Driver/Src/stm32f4xx_hal_sram.c ****       pdestbuff++;
 898              		.loc 1 575 20 is_stmt 0 view .LVU273
 899 0028 51F8044B 		ldr	r4, [r1], #4
 900              	.LVL88:
 575:Drivers/STM32F4xx_HAL_Driver/Src/stm32f4xx_hal_sram.c ****       pdestbuff++;
 901              		.loc 1 575 18 view .LVU274
 902 002c 42F8044B 		str	r4, [r2], #4
 903              	.LVL89:
 576:Drivers/STM32F4xx_HAL_Driver/Src/stm32f4xx_hal_sram.c ****       psramaddress++;
ARM GAS  /tmp/cc6qTBh5.s 			page 40


 904              		.loc 1 576 7 is_stmt 1 view .LVU275
 577:Drivers/STM32F4xx_HAL_Driver/Src/stm32f4xx_hal_sram.c ****     }
 905              		.loc 1 577 7 view .LVU276
 573:Drivers/STM32F4xx_HAL_Driver/Src/stm32f4xx_hal_sram.c ****     {
 906              		.loc 1 573 45 discriminator 3 view .LVU277
 907 0030 013B     		subs	r3, r3, #1
 908              	.LVL90:
 909              	.L56:
 573:Drivers/STM32F4xx_HAL_Driver/Src/stm32f4xx_hal_sram.c ****     {
 910              		.loc 1 573 34 discriminator 1 view .LVU278
 911 0032 002B     		cmp	r3, #0
 912 0034 F8D1     		bne	.L57
 581:Drivers/STM32F4xx_HAL_Driver/Src/stm32f4xx_hal_sram.c **** 
 913              		.loc 1 581 5 view .LVU279
 581:Drivers/STM32F4xx_HAL_Driver/Src/stm32f4xx_hal_sram.c **** 
 914              		.loc 1 581 18 is_stmt 0 view .LVU280
 915 0036 8CF84900 		strb	r0, [ip, #73]
 584:Drivers/STM32F4xx_HAL_Driver/Src/stm32f4xx_hal_sram.c ****   }
 916              		.loc 1 584 5 is_stmt 1 view .LVU281
 584:Drivers/STM32F4xx_HAL_Driver/Src/stm32f4xx_hal_sram.c ****   }
 917              		.loc 1 584 5 view .LVU282
 918 003a 0020     		movs	r0, #0
 919              	.LVL91:
 584:Drivers/STM32F4xx_HAL_Driver/Src/stm32f4xx_hal_sram.c ****   }
 920              		.loc 1 584 5 is_stmt 0 view .LVU283
 921 003c 8CF84800 		strb	r0, [ip, #72]
 584:Drivers/STM32F4xx_HAL_Driver/Src/stm32f4xx_hal_sram.c ****   }
 922              		.loc 1 584 5 is_stmt 1 view .LVU284
 591:Drivers/STM32F4xx_HAL_Driver/Src/stm32f4xx_hal_sram.c **** }
 923              		.loc 1 591 3 view .LVU285
 924              	.LVL92:
 925              	.L55:
 592:Drivers/STM32F4xx_HAL_Driver/Src/stm32f4xx_hal_sram.c **** 
 926              		.loc 1 592 1 is_stmt 0 view .LVU286
 927 0040 5DF8044B 		ldr	r4, [sp], #4
 928              	.LCFI12:
 929              		.cfi_restore 4
 930              		.cfi_def_cfa_offset 0
 931 0044 7047     		bx	lr
 932              	.LVL93:
 933              	.L58:
 588:Drivers/STM32F4xx_HAL_Driver/Src/stm32f4xx_hal_sram.c ****   }
 934              		.loc 1 588 12 view .LVU287
 935 0046 0120     		movs	r0, #1
 936              	.LVL94:
 592:Drivers/STM32F4xx_HAL_Driver/Src/stm32f4xx_hal_sram.c **** 
 937              		.loc 1 592 1 view .LVU288
 938 0048 7047     		bx	lr
 939              	.LVL95:
 940              	.L59:
 941              	.LCFI13:
 942              		.cfi_def_cfa_offset 4
 943              		.cfi_offset 4, -4
 567:Drivers/STM32F4xx_HAL_Driver/Src/stm32f4xx_hal_sram.c **** 
 944              		.loc 1 567 5 discriminator 1 view .LVU289
 945 004a 0220     		movs	r0, #2
 946              	.LVL96:
ARM GAS  /tmp/cc6qTBh5.s 			page 41


 567:Drivers/STM32F4xx_HAL_Driver/Src/stm32f4xx_hal_sram.c **** 
 947              		.loc 1 567 5 discriminator 1 view .LVU290
 948 004c F8E7     		b	.L55
 949              		.cfi_endproc
 950              	.LFE140:
 952              		.section	.text.HAL_SRAM_Write_32b,"ax",%progbits
 953              		.align	1
 954              		.global	HAL_SRAM_Write_32b
 955              		.syntax unified
 956              		.thumb
 957              		.thumb_func
 959              	HAL_SRAM_Write_32b:
 960              	.LVL97:
 961              	.LFB141:
 605:Drivers/STM32F4xx_HAL_Driver/Src/stm32f4xx_hal_sram.c ****   uint32_t size;
 962              		.loc 1 605 1 is_stmt 1 view -0
 963              		.cfi_startproc
 964              		@ args = 0, pretend = 0, frame = 0
 965              		@ frame_needed = 0, uses_anonymous_args = 0
 966              		@ link register save eliminated.
 605:Drivers/STM32F4xx_HAL_Driver/Src/stm32f4xx_hal_sram.c ****   uint32_t size;
 967              		.loc 1 605 1 is_stmt 0 view .LVU292
 968 0000 10B4     		push	{r4}
 969              	.LCFI14:
 970              		.cfi_def_cfa_offset 4
 971              		.cfi_offset 4, -4
 606:Drivers/STM32F4xx_HAL_Driver/Src/stm32f4xx_hal_sram.c ****   __IO uint32_t *psramaddress = pAddress;
 972              		.loc 1 606 3 is_stmt 1 view .LVU293
 607:Drivers/STM32F4xx_HAL_Driver/Src/stm32f4xx_hal_sram.c ****   uint32_t *psrcbuff = pSrcBuffer;
 973              		.loc 1 607 3 view .LVU294
 974              	.LVL98:
 608:Drivers/STM32F4xx_HAL_Driver/Src/stm32f4xx_hal_sram.c **** 
 975              		.loc 1 608 3 view .LVU295
 611:Drivers/STM32F4xx_HAL_Driver/Src/stm32f4xx_hal_sram.c ****   {
 976              		.loc 1 611 3 view .LVU296
 611:Drivers/STM32F4xx_HAL_Driver/Src/stm32f4xx_hal_sram.c ****   {
 977              		.loc 1 611 12 is_stmt 0 view .LVU297
 978 0002 90F84940 		ldrb	r4, [r0, #73]	@ zero_extendqisi2
 979 0006 E4B2     		uxtb	r4, r4
 611:Drivers/STM32F4xx_HAL_Driver/Src/stm32f4xx_hal_sram.c ****   {
 980              		.loc 1 611 6 view .LVU298
 981 0008 012C     		cmp	r4, #1
 982 000a 19D1     		bne	.L67
 614:Drivers/STM32F4xx_HAL_Driver/Src/stm32f4xx_hal_sram.c **** 
 983              		.loc 1 614 5 is_stmt 1 view .LVU299
 614:Drivers/STM32F4xx_HAL_Driver/Src/stm32f4xx_hal_sram.c **** 
 984              		.loc 1 614 5 view .LVU300
 985 000c 90F84840 		ldrb	r4, [r0, #72]	@ zero_extendqisi2
 986 0010 012C     		cmp	r4, #1
 987 0012 19D0     		beq	.L68
 614:Drivers/STM32F4xx_HAL_Driver/Src/stm32f4xx_hal_sram.c **** 
 988              		.loc 1 614 5 discriminator 2 view .LVU301
 989 0014 0124     		movs	r4, #1
 990 0016 80F84840 		strb	r4, [r0, #72]
 614:Drivers/STM32F4xx_HAL_Driver/Src/stm32f4xx_hal_sram.c **** 
 991              		.loc 1 614 5 discriminator 2 view .LVU302
 617:Drivers/STM32F4xx_HAL_Driver/Src/stm32f4xx_hal_sram.c **** 
ARM GAS  /tmp/cc6qTBh5.s 			page 42


 992              		.loc 1 617 5 view .LVU303
 617:Drivers/STM32F4xx_HAL_Driver/Src/stm32f4xx_hal_sram.c **** 
 993              		.loc 1 617 18 is_stmt 0 view .LVU304
 994 001a 0224     		movs	r4, #2
 995 001c 80F84940 		strb	r4, [r0, #73]
 620:Drivers/STM32F4xx_HAL_Driver/Src/stm32f4xx_hal_sram.c ****     {
 996              		.loc 1 620 5 is_stmt 1 view .LVU305
 997              	.LVL99:
 620:Drivers/STM32F4xx_HAL_Driver/Src/stm32f4xx_hal_sram.c ****     {
 998              		.loc 1 620 5 is_stmt 0 view .LVU306
 999 0020 04E0     		b	.L65
 1000              	.LVL100:
 1001              	.L66:
 622:Drivers/STM32F4xx_HAL_Driver/Src/stm32f4xx_hal_sram.c ****       psrcbuff++;
 1002              		.loc 1 622 7 is_stmt 1 view .LVU307
 622:Drivers/STM32F4xx_HAL_Driver/Src/stm32f4xx_hal_sram.c ****       psrcbuff++;
 1003              		.loc 1 622 23 is_stmt 0 view .LVU308
 1004 0022 52F8044B 		ldr	r4, [r2], #4
 1005              	.LVL101:
 622:Drivers/STM32F4xx_HAL_Driver/Src/stm32f4xx_hal_sram.c ****       psrcbuff++;
 1006              		.loc 1 622 21 view .LVU309
 1007 0026 41F8044B 		str	r4, [r1], #4
 1008              	.LVL102:
 623:Drivers/STM32F4xx_HAL_Driver/Src/stm32f4xx_hal_sram.c ****       psramaddress++;
 1009              		.loc 1 623 7 is_stmt 1 view .LVU310
 624:Drivers/STM32F4xx_HAL_Driver/Src/stm32f4xx_hal_sram.c ****     }
 1010              		.loc 1 624 7 view .LVU311
 620:Drivers/STM32F4xx_HAL_Driver/Src/stm32f4xx_hal_sram.c ****     {
 1011              		.loc 1 620 45 discriminator 3 view .LVU312
 1012 002a 013B     		subs	r3, r3, #1
 1013              	.LVL103:
 1014              	.L65:
 620:Drivers/STM32F4xx_HAL_Driver/Src/stm32f4xx_hal_sram.c ****     {
 1015              		.loc 1 620 34 discriminator 1 view .LVU313
 1016 002c 002B     		cmp	r3, #0
 1017 002e F8D1     		bne	.L66
 628:Drivers/STM32F4xx_HAL_Driver/Src/stm32f4xx_hal_sram.c **** 
 1018              		.loc 1 628 5 view .LVU314
 628:Drivers/STM32F4xx_HAL_Driver/Src/stm32f4xx_hal_sram.c **** 
 1019              		.loc 1 628 18 is_stmt 0 view .LVU315
 1020 0030 0123     		movs	r3, #1
 1021              	.LVL104:
 628:Drivers/STM32F4xx_HAL_Driver/Src/stm32f4xx_hal_sram.c **** 
 1022              		.loc 1 628 18 view .LVU316
 1023 0032 80F84930 		strb	r3, [r0, #73]
 631:Drivers/STM32F4xx_HAL_Driver/Src/stm32f4xx_hal_sram.c ****   }
 1024              		.loc 1 631 5 is_stmt 1 view .LVU317
 631:Drivers/STM32F4xx_HAL_Driver/Src/stm32f4xx_hal_sram.c ****   }
 1025              		.loc 1 631 5 view .LVU318
 1026 0036 0023     		movs	r3, #0
 1027 0038 80F84830 		strb	r3, [r0, #72]
 631:Drivers/STM32F4xx_HAL_Driver/Src/stm32f4xx_hal_sram.c ****   }
 1028              		.loc 1 631 5 view .LVU319
 638:Drivers/STM32F4xx_HAL_Driver/Src/stm32f4xx_hal_sram.c **** }
 1029              		.loc 1 638 3 view .LVU320
 638:Drivers/STM32F4xx_HAL_Driver/Src/stm32f4xx_hal_sram.c **** }
 1030              		.loc 1 638 10 is_stmt 0 view .LVU321
ARM GAS  /tmp/cc6qTBh5.s 			page 43


 1031 003c 1846     		mov	r0, r3
 1032              	.LVL105:
 638:Drivers/STM32F4xx_HAL_Driver/Src/stm32f4xx_hal_sram.c **** }
 1033              		.loc 1 638 10 view .LVU322
 1034 003e 00E0     		b	.L64
 1035              	.LVL106:
 1036              	.L67:
 635:Drivers/STM32F4xx_HAL_Driver/Src/stm32f4xx_hal_sram.c ****   }
 1037              		.loc 1 635 12 view .LVU323
 1038 0040 0120     		movs	r0, #1
 1039              	.LVL107:
 1040              	.L64:
 639:Drivers/STM32F4xx_HAL_Driver/Src/stm32f4xx_hal_sram.c **** 
 1041              		.loc 1 639 1 view .LVU324
 1042 0042 5DF8044B 		ldr	r4, [sp], #4
 1043              	.LCFI15:
 1044              		.cfi_remember_state
 1045              		.cfi_restore 4
 1046              		.cfi_def_cfa_offset 0
 1047 0046 7047     		bx	lr
 1048              	.LVL108:
 1049              	.L68:
 1050              	.LCFI16:
 1051              		.cfi_restore_state
 614:Drivers/STM32F4xx_HAL_Driver/Src/stm32f4xx_hal_sram.c **** 
 1052              		.loc 1 614 5 discriminator 1 view .LVU325
 1053 0048 0220     		movs	r0, #2
 1054              	.LVL109:
 614:Drivers/STM32F4xx_HAL_Driver/Src/stm32f4xx_hal_sram.c **** 
 1055              		.loc 1 614 5 discriminator 1 view .LVU326
 1056 004a FAE7     		b	.L64
 1057              		.cfi_endproc
 1058              	.LFE141:
 1060              		.section	.text.HAL_SRAM_Read_DMA,"ax",%progbits
 1061              		.align	1
 1062              		.global	HAL_SRAM_Read_DMA
 1063              		.syntax unified
 1064              		.thumb
 1065              		.thumb_func
 1067              	HAL_SRAM_Read_DMA:
 1068              	.LVL110:
 1069              	.LFB142:
 652:Drivers/STM32F4xx_HAL_Driver/Src/stm32f4xx_hal_sram.c ****   HAL_StatusTypeDef status;
 1070              		.loc 1 652 1 is_stmt 1 view -0
 1071              		.cfi_startproc
 1072              		@ args = 0, pretend = 0, frame = 0
 1073              		@ frame_needed = 0, uses_anonymous_args = 0
 652:Drivers/STM32F4xx_HAL_Driver/Src/stm32f4xx_hal_sram.c ****   HAL_StatusTypeDef status;
 1074              		.loc 1 652 1 is_stmt 0 view .LVU328
 1075 0000 38B5     		push	{r3, r4, r5, lr}
 1076              	.LCFI17:
 1077              		.cfi_def_cfa_offset 16
 1078              		.cfi_offset 3, -16
 1079              		.cfi_offset 4, -12
 1080              		.cfi_offset 5, -8
 1081              		.cfi_offset 14, -4
 1082 0002 0446     		mov	r4, r0
ARM GAS  /tmp/cc6qTBh5.s 			page 44


 653:Drivers/STM32F4xx_HAL_Driver/Src/stm32f4xx_hal_sram.c ****   HAL_SRAM_StateTypeDef state = hsram->State;
 1083              		.loc 1 653 3 is_stmt 1 view .LVU329
 654:Drivers/STM32F4xx_HAL_Driver/Src/stm32f4xx_hal_sram.c **** 
 1084              		.loc 1 654 3 view .LVU330
 654:Drivers/STM32F4xx_HAL_Driver/Src/stm32f4xx_hal_sram.c **** 
 1085              		.loc 1 654 25 is_stmt 0 view .LVU331
 1086 0004 90F84900 		ldrb	r0, [r0, #73]	@ zero_extendqisi2
 1087              	.LVL111:
 654:Drivers/STM32F4xx_HAL_Driver/Src/stm32f4xx_hal_sram.c **** 
 1088              		.loc 1 654 25 view .LVU332
 1089 0008 C0B2     		uxtb	r0, r0
 1090              	.LVL112:
 657:Drivers/STM32F4xx_HAL_Driver/Src/stm32f4xx_hal_sram.c ****   {
 1091              		.loc 1 657 3 is_stmt 1 view .LVU333
 657:Drivers/STM32F4xx_HAL_Driver/Src/stm32f4xx_hal_sram.c ****   {
 1092              		.loc 1 657 6 is_stmt 0 view .LVU334
 1093 000a 0128     		cmp	r0, #1
 1094 000c 03D0     		beq	.L71
 657:Drivers/STM32F4xx_HAL_Driver/Src/stm32f4xx_hal_sram.c ****   {
 1095              		.loc 1 657 39 discriminator 1 view .LVU335
 1096 000e 0428     		cmp	r0, #4
 1097 0010 01D0     		beq	.L71
 684:Drivers/STM32F4xx_HAL_Driver/Src/stm32f4xx_hal_sram.c ****   }
 1098              		.loc 1 684 12 view .LVU336
 1099 0012 0120     		movs	r0, #1
 1100              	.LVL113:
 684:Drivers/STM32F4xx_HAL_Driver/Src/stm32f4xx_hal_sram.c ****   }
 1101              		.loc 1 684 12 view .LVU337
 1102 0014 18E0     		b	.L72
 1103              	.LVL114:
 1104              	.L71:
 660:Drivers/STM32F4xx_HAL_Driver/Src/stm32f4xx_hal_sram.c **** 
 1105              		.loc 1 660 5 is_stmt 1 view .LVU338
 660:Drivers/STM32F4xx_HAL_Driver/Src/stm32f4xx_hal_sram.c **** 
 1106              		.loc 1 660 5 view .LVU339
 1107 0016 94F848C0 		ldrb	ip, [r4, #72]	@ zero_extendqisi2
 1108 001a BCF1010F 		cmp	ip, #1
 1109 001e 18D0     		beq	.L76
 660:Drivers/STM32F4xx_HAL_Driver/Src/stm32f4xx_hal_sram.c **** 
 1110              		.loc 1 660 5 discriminator 2 view .LVU340
 1111 0020 0125     		movs	r5, #1
 1112 0022 84F84850 		strb	r5, [r4, #72]
 660:Drivers/STM32F4xx_HAL_Driver/Src/stm32f4xx_hal_sram.c **** 
 1113              		.loc 1 660 5 discriminator 2 view .LVU341
 663:Drivers/STM32F4xx_HAL_Driver/Src/stm32f4xx_hal_sram.c **** 
 1114              		.loc 1 663 5 view .LVU342
 663:Drivers/STM32F4xx_HAL_Driver/Src/stm32f4xx_hal_sram.c **** 
 1115              		.loc 1 663 18 is_stmt 0 view .LVU343
 1116 0026 0225     		movs	r5, #2
 1117 0028 84F84950 		strb	r5, [r4, #73]
 666:Drivers/STM32F4xx_HAL_Driver/Src/stm32f4xx_hal_sram.c ****     {
 1118              		.loc 1 666 5 is_stmt 1 view .LVU344
 666:Drivers/STM32F4xx_HAL_Driver/Src/stm32f4xx_hal_sram.c ****     {
 1119              		.loc 1 666 8 is_stmt 0 view .LVU345
 1120 002c 0128     		cmp	r0, #1
 1121 002e 0CD0     		beq	.L78
 672:Drivers/STM32F4xx_HAL_Driver/Src/stm32f4xx_hal_sram.c ****     }
ARM GAS  /tmp/cc6qTBh5.s 			page 45


 1122              		.loc 1 672 7 is_stmt 1 view .LVU346
 672:Drivers/STM32F4xx_HAL_Driver/Src/stm32f4xx_hal_sram.c ****     }
 1123              		.loc 1 672 12 is_stmt 0 view .LVU347
 1124 0030 E06C     		ldr	r0, [r4, #76]
 1125              	.LVL115:
 672:Drivers/STM32F4xx_HAL_Driver/Src/stm32f4xx_hal_sram.c ****     }
 1126              		.loc 1 672 37 view .LVU348
 1127 0032 094D     		ldr	r5, .L79
 1128 0034 C563     		str	r5, [r0, #60]
 1129              	.L74:
 674:Drivers/STM32F4xx_HAL_Driver/Src/stm32f4xx_hal_sram.c **** 
 1130              		.loc 1 674 5 is_stmt 1 view .LVU349
 674:Drivers/STM32F4xx_HAL_Driver/Src/stm32f4xx_hal_sram.c **** 
 1131              		.loc 1 674 10 is_stmt 0 view .LVU350
 1132 0036 E06C     		ldr	r0, [r4, #76]
 674:Drivers/STM32F4xx_HAL_Driver/Src/stm32f4xx_hal_sram.c **** 
 1133              		.loc 1 674 36 view .LVU351
 1134 0038 084D     		ldr	r5, .L79+4
 1135 003a C564     		str	r5, [r0, #76]
 677:Drivers/STM32F4xx_HAL_Driver/Src/stm32f4xx_hal_sram.c **** 
 1136              		.loc 1 677 5 is_stmt 1 view .LVU352
 677:Drivers/STM32F4xx_HAL_Driver/Src/stm32f4xx_hal_sram.c **** 
 1137              		.loc 1 677 14 is_stmt 0 view .LVU353
 1138 003c E06C     		ldr	r0, [r4, #76]
 1139 003e FFF7FEFF 		bl	HAL_DMA_Start_IT
 1140              	.LVL116:
 680:Drivers/STM32F4xx_HAL_Driver/Src/stm32f4xx_hal_sram.c ****   }
 1141              		.loc 1 680 5 is_stmt 1 view .LVU354
 680:Drivers/STM32F4xx_HAL_Driver/Src/stm32f4xx_hal_sram.c ****   }
 1142              		.loc 1 680 5 view .LVU355
 1143 0042 0023     		movs	r3, #0
 1144 0044 84F84830 		strb	r3, [r4, #72]
 680:Drivers/STM32F4xx_HAL_Driver/Src/stm32f4xx_hal_sram.c ****   }
 1145              		.loc 1 680 5 view .LVU356
 1146              	.LVL117:
 1147              	.L72:
 688:Drivers/STM32F4xx_HAL_Driver/Src/stm32f4xx_hal_sram.c **** 
 1148              		.loc 1 688 1 is_stmt 0 view .LVU357
 1149 0048 38BD     		pop	{r3, r4, r5, pc}
 1150              	.LVL118:
 1151              	.L78:
 668:Drivers/STM32F4xx_HAL_Driver/Src/stm32f4xx_hal_sram.c ****     }
 1152              		.loc 1 668 7 is_stmt 1 view .LVU358
 668:Drivers/STM32F4xx_HAL_Driver/Src/stm32f4xx_hal_sram.c ****     }
 1153              		.loc 1 668 12 is_stmt 0 view .LVU359
 1154 004a E06C     		ldr	r0, [r4, #76]
 1155              	.LVL119:
 668:Drivers/STM32F4xx_HAL_Driver/Src/stm32f4xx_hal_sram.c ****     }
 1156              		.loc 1 668 37 view .LVU360
 1157 004c 044D     		ldr	r5, .L79+8
 1158 004e C563     		str	r5, [r0, #60]
 1159 0050 F1E7     		b	.L74
 1160              	.LVL120:
 1161              	.L76:
 660:Drivers/STM32F4xx_HAL_Driver/Src/stm32f4xx_hal_sram.c **** 
 1162              		.loc 1 660 5 discriminator 1 view .LVU361
 1163 0052 0220     		movs	r0, #2
ARM GAS  /tmp/cc6qTBh5.s 			page 46


 1164              	.LVL121:
 660:Drivers/STM32F4xx_HAL_Driver/Src/stm32f4xx_hal_sram.c **** 
 1165              		.loc 1 660 5 discriminator 1 view .LVU362
 1166 0054 F8E7     		b	.L72
 1167              	.L80:
 1168 0056 00BF     		.align	2
 1169              	.L79:
 1170 0058 00000000 		.word	SRAM_DMACpltProt
 1171 005c 00000000 		.word	SRAM_DMAError
 1172 0060 00000000 		.word	SRAM_DMACplt
 1173              		.cfi_endproc
 1174              	.LFE142:
 1176              		.section	.text.HAL_SRAM_Write_DMA,"ax",%progbits
 1177              		.align	1
 1178              		.global	HAL_SRAM_Write_DMA
 1179              		.syntax unified
 1180              		.thumb
 1181              		.thumb_func
 1183              	HAL_SRAM_Write_DMA:
 1184              	.LVL122:
 1185              	.LFB143:
 701:Drivers/STM32F4xx_HAL_Driver/Src/stm32f4xx_hal_sram.c ****   HAL_StatusTypeDef status;
 1186              		.loc 1 701 1 is_stmt 1 view -0
 1187              		.cfi_startproc
 1188              		@ args = 0, pretend = 0, frame = 0
 1189              		@ frame_needed = 0, uses_anonymous_args = 0
 701:Drivers/STM32F4xx_HAL_Driver/Src/stm32f4xx_hal_sram.c ****   HAL_StatusTypeDef status;
 1190              		.loc 1 701 1 is_stmt 0 view .LVU364
 1191 0000 10B5     		push	{r4, lr}
 1192              	.LCFI18:
 1193              		.cfi_def_cfa_offset 8
 1194              		.cfi_offset 4, -8
 1195              		.cfi_offset 14, -4
 1196 0002 0446     		mov	r4, r0
 702:Drivers/STM32F4xx_HAL_Driver/Src/stm32f4xx_hal_sram.c **** 
 1197              		.loc 1 702 3 is_stmt 1 view .LVU365
 705:Drivers/STM32F4xx_HAL_Driver/Src/stm32f4xx_hal_sram.c ****   {
 1198              		.loc 1 705 3 view .LVU366
 705:Drivers/STM32F4xx_HAL_Driver/Src/stm32f4xx_hal_sram.c ****   {
 1199              		.loc 1 705 12 is_stmt 0 view .LVU367
 1200 0004 90F84900 		ldrb	r0, [r0, #73]	@ zero_extendqisi2
 1201              	.LVL123:
 705:Drivers/STM32F4xx_HAL_Driver/Src/stm32f4xx_hal_sram.c ****   {
 1202              		.loc 1 705 12 view .LVU368
 1203 0008 C0B2     		uxtb	r0, r0
 705:Drivers/STM32F4xx_HAL_Driver/Src/stm32f4xx_hal_sram.c ****   {
 1204              		.loc 1 705 6 view .LVU369
 1205 000a 0128     		cmp	r0, #1
 1206 000c 01D0     		beq	.L86
 725:Drivers/STM32F4xx_HAL_Driver/Src/stm32f4xx_hal_sram.c ****   }
 1207              		.loc 1 725 12 view .LVU370
 1208 000e 0120     		movs	r0, #1
 1209              	.LVL124:
 1210              	.L82:
 729:Drivers/STM32F4xx_HAL_Driver/Src/stm32f4xx_hal_sram.c **** 
 1211              		.loc 1 729 1 view .LVU371
 1212 0010 10BD     		pop	{r4, pc}
ARM GAS  /tmp/cc6qTBh5.s 			page 47


 1213              	.LVL125:
 1214              	.L86:
 729:Drivers/STM32F4xx_HAL_Driver/Src/stm32f4xx_hal_sram.c **** 
 1215              		.loc 1 729 1 view .LVU372
 1216 0012 8C46     		mov	ip, r1
 1217 0014 1146     		mov	r1, r2
 1218              	.LVL126:
 708:Drivers/STM32F4xx_HAL_Driver/Src/stm32f4xx_hal_sram.c **** 
 1219              		.loc 1 708 5 is_stmt 1 view .LVU373
 708:Drivers/STM32F4xx_HAL_Driver/Src/stm32f4xx_hal_sram.c **** 
 1220              		.loc 1 708 5 view .LVU374
 1221 0016 94F84820 		ldrb	r2, [r4, #72]	@ zero_extendqisi2
 1222              	.LVL127:
 708:Drivers/STM32F4xx_HAL_Driver/Src/stm32f4xx_hal_sram.c **** 
 1223              		.loc 1 708 5 is_stmt 0 view .LVU375
 1224 001a 012A     		cmp	r2, #1
 1225 001c 13D0     		beq	.L84
 708:Drivers/STM32F4xx_HAL_Driver/Src/stm32f4xx_hal_sram.c **** 
 1226              		.loc 1 708 5 is_stmt 1 discriminator 2 view .LVU376
 1227 001e 0122     		movs	r2, #1
 1228 0020 84F84820 		strb	r2, [r4, #72]
 708:Drivers/STM32F4xx_HAL_Driver/Src/stm32f4xx_hal_sram.c **** 
 1229              		.loc 1 708 5 discriminator 2 view .LVU377
 711:Drivers/STM32F4xx_HAL_Driver/Src/stm32f4xx_hal_sram.c **** 
 1230              		.loc 1 711 5 view .LVU378
 711:Drivers/STM32F4xx_HAL_Driver/Src/stm32f4xx_hal_sram.c **** 
 1231              		.loc 1 711 18 is_stmt 0 view .LVU379
 1232 0024 0222     		movs	r2, #2
 1233 0026 84F84920 		strb	r2, [r4, #73]
 714:Drivers/STM32F4xx_HAL_Driver/Src/stm32f4xx_hal_sram.c ****     hsram->hdma->XferErrorCallback = SRAM_DMAError;
 1234              		.loc 1 714 5 is_stmt 1 view .LVU380
 714:Drivers/STM32F4xx_HAL_Driver/Src/stm32f4xx_hal_sram.c ****     hsram->hdma->XferErrorCallback = SRAM_DMAError;
 1235              		.loc 1 714 10 is_stmt 0 view .LVU381
 1236 002a E26C     		ldr	r2, [r4, #76]
 714:Drivers/STM32F4xx_HAL_Driver/Src/stm32f4xx_hal_sram.c ****     hsram->hdma->XferErrorCallback = SRAM_DMAError;
 1237              		.loc 1 714 35 view .LVU382
 1238 002c 0748     		ldr	r0, .L87
 1239 002e D063     		str	r0, [r2, #60]
 715:Drivers/STM32F4xx_HAL_Driver/Src/stm32f4xx_hal_sram.c **** 
 1240              		.loc 1 715 5 is_stmt 1 view .LVU383
 715:Drivers/STM32F4xx_HAL_Driver/Src/stm32f4xx_hal_sram.c **** 
 1241              		.loc 1 715 10 is_stmt 0 view .LVU384
 1242 0030 E26C     		ldr	r2, [r4, #76]
 715:Drivers/STM32F4xx_HAL_Driver/Src/stm32f4xx_hal_sram.c **** 
 1243              		.loc 1 715 36 view .LVU385
 1244 0032 0748     		ldr	r0, .L87+4
 1245 0034 D064     		str	r0, [r2, #76]
 718:Drivers/STM32F4xx_HAL_Driver/Src/stm32f4xx_hal_sram.c **** 
 1246              		.loc 1 718 5 is_stmt 1 view .LVU386
 718:Drivers/STM32F4xx_HAL_Driver/Src/stm32f4xx_hal_sram.c **** 
 1247              		.loc 1 718 14 is_stmt 0 view .LVU387
 1248 0036 6246     		mov	r2, ip
 1249 0038 E06C     		ldr	r0, [r4, #76]
 1250 003a FFF7FEFF 		bl	HAL_DMA_Start_IT
 1251              	.LVL128:
 721:Drivers/STM32F4xx_HAL_Driver/Src/stm32f4xx_hal_sram.c ****   }
 1252              		.loc 1 721 5 is_stmt 1 view .LVU388
ARM GAS  /tmp/cc6qTBh5.s 			page 48


 721:Drivers/STM32F4xx_HAL_Driver/Src/stm32f4xx_hal_sram.c ****   }
 1253              		.loc 1 721 5 view .LVU389
 1254 003e 0023     		movs	r3, #0
 1255 0040 84F84830 		strb	r3, [r4, #72]
 721:Drivers/STM32F4xx_HAL_Driver/Src/stm32f4xx_hal_sram.c ****   }
 1256              		.loc 1 721 5 view .LVU390
 1257 0044 E4E7     		b	.L82
 1258              	.LVL129:
 1259              	.L84:
 708:Drivers/STM32F4xx_HAL_Driver/Src/stm32f4xx_hal_sram.c **** 
 1260              		.loc 1 708 5 is_stmt 0 discriminator 1 view .LVU391
 1261 0046 0220     		movs	r0, #2
 1262 0048 E2E7     		b	.L82
 1263              	.L88:
 1264 004a 00BF     		.align	2
 1265              	.L87:
 1266 004c 00000000 		.word	SRAM_DMACplt
 1267 0050 00000000 		.word	SRAM_DMAError
 1268              		.cfi_endproc
 1269              	.LFE143:
 1271              		.section	.text.HAL_SRAM_WriteOperation_Enable,"ax",%progbits
 1272              		.align	1
 1273              		.global	HAL_SRAM_WriteOperation_Enable
 1274              		.syntax unified
 1275              		.thumb
 1276              		.thumb_func
 1278              	HAL_SRAM_WriteOperation_Enable:
 1279              	.LVL130:
 1280              	.LFB144:
 935:Drivers/STM32F4xx_HAL_Driver/Src/stm32f4xx_hal_sram.c ****   /* Check the SRAM controller state */
 1281              		.loc 1 935 1 is_stmt 1 view -0
 1282              		.cfi_startproc
 1283              		@ args = 0, pretend = 0, frame = 0
 1284              		@ frame_needed = 0, uses_anonymous_args = 0
 935:Drivers/STM32F4xx_HAL_Driver/Src/stm32f4xx_hal_sram.c ****   /* Check the SRAM controller state */
 1285              		.loc 1 935 1 is_stmt 0 view .LVU393
 1286 0000 38B5     		push	{r3, r4, r5, lr}
 1287              	.LCFI19:
 1288              		.cfi_def_cfa_offset 16
 1289              		.cfi_offset 3, -16
 1290              		.cfi_offset 4, -12
 1291              		.cfi_offset 5, -8
 1292              		.cfi_offset 14, -4
 937:Drivers/STM32F4xx_HAL_Driver/Src/stm32f4xx_hal_sram.c ****   {
 1293              		.loc 1 937 3 is_stmt 1 view .LVU394
 937:Drivers/STM32F4xx_HAL_Driver/Src/stm32f4xx_hal_sram.c ****   {
 1294              		.loc 1 937 12 is_stmt 0 view .LVU395
 1295 0002 90F84930 		ldrb	r3, [r0, #73]	@ zero_extendqisi2
 1296 0006 DBB2     		uxtb	r3, r3
 937:Drivers/STM32F4xx_HAL_Driver/Src/stm32f4xx_hal_sram.c ****   {
 1297              		.loc 1 937 6 view .LVU396
 1298 0008 042B     		cmp	r3, #4
 1299 000a 14D1     		bne	.L91
 1300 000c 0446     		mov	r4, r0
 940:Drivers/STM32F4xx_HAL_Driver/Src/stm32f4xx_hal_sram.c **** 
 1301              		.loc 1 940 5 is_stmt 1 view .LVU397
 940:Drivers/STM32F4xx_HAL_Driver/Src/stm32f4xx_hal_sram.c **** 
ARM GAS  /tmp/cc6qTBh5.s 			page 49


 1302              		.loc 1 940 5 view .LVU398
 1303 000e 90F84830 		ldrb	r3, [r0, #72]	@ zero_extendqisi2
 1304 0012 012B     		cmp	r3, #1
 1305 0014 11D0     		beq	.L92
 940:Drivers/STM32F4xx_HAL_Driver/Src/stm32f4xx_hal_sram.c **** 
 1306              		.loc 1 940 5 discriminator 2 view .LVU399
 1307 0016 0125     		movs	r5, #1
 1308 0018 80F84850 		strb	r5, [r0, #72]
 940:Drivers/STM32F4xx_HAL_Driver/Src/stm32f4xx_hal_sram.c **** 
 1309              		.loc 1 940 5 discriminator 2 view .LVU400
 943:Drivers/STM32F4xx_HAL_Driver/Src/stm32f4xx_hal_sram.c **** 
 1310              		.loc 1 943 5 view .LVU401
 943:Drivers/STM32F4xx_HAL_Driver/Src/stm32f4xx_hal_sram.c **** 
 1311              		.loc 1 943 18 is_stmt 0 view .LVU402
 1312 001c 0223     		movs	r3, #2
 1313 001e 80F84930 		strb	r3, [r0, #73]
 946:Drivers/STM32F4xx_HAL_Driver/Src/stm32f4xx_hal_sram.c **** 
 1314              		.loc 1 946 5 is_stmt 1 view .LVU403
 946:Drivers/STM32F4xx_HAL_Driver/Src/stm32f4xx_hal_sram.c **** 
 1315              		.loc 1 946 11 is_stmt 0 view .LVU404
 1316 0022 8168     		ldr	r1, [r0, #8]
 1317 0024 0068     		ldr	r0, [r0]
 1318              	.LVL131:
 946:Drivers/STM32F4xx_HAL_Driver/Src/stm32f4xx_hal_sram.c **** 
 1319              		.loc 1 946 11 view .LVU405
 1320 0026 FFF7FEFF 		bl	FSMC_NORSRAM_WriteOperation_Enable
 1321              	.LVL132:
 949:Drivers/STM32F4xx_HAL_Driver/Src/stm32f4xx_hal_sram.c **** 
 1322              		.loc 1 949 5 is_stmt 1 view .LVU406
 949:Drivers/STM32F4xx_HAL_Driver/Src/stm32f4xx_hal_sram.c **** 
 1323              		.loc 1 949 18 is_stmt 0 view .LVU407
 1324 002a 84F84950 		strb	r5, [r4, #73]
 952:Drivers/STM32F4xx_HAL_Driver/Src/stm32f4xx_hal_sram.c ****   }
 1325              		.loc 1 952 5 is_stmt 1 view .LVU408
 952:Drivers/STM32F4xx_HAL_Driver/Src/stm32f4xx_hal_sram.c ****   }
 1326              		.loc 1 952 5 view .LVU409
 1327 002e 0020     		movs	r0, #0
 1328 0030 84F84800 		strb	r0, [r4, #72]
 952:Drivers/STM32F4xx_HAL_Driver/Src/stm32f4xx_hal_sram.c ****   }
 1329              		.loc 1 952 5 view .LVU410
 959:Drivers/STM32F4xx_HAL_Driver/Src/stm32f4xx_hal_sram.c **** }
 1330              		.loc 1 959 3 view .LVU411
 959:Drivers/STM32F4xx_HAL_Driver/Src/stm32f4xx_hal_sram.c **** }
 1331              		.loc 1 959 10 is_stmt 0 view .LVU412
 1332 0034 00E0     		b	.L90
 1333              	.LVL133:
 1334              	.L91:
 956:Drivers/STM32F4xx_HAL_Driver/Src/stm32f4xx_hal_sram.c ****   }
 1335              		.loc 1 956 12 view .LVU413
 1336 0036 0120     		movs	r0, #1
 1337              	.LVL134:
 1338              	.L90:
 960:Drivers/STM32F4xx_HAL_Driver/Src/stm32f4xx_hal_sram.c **** 
 1339              		.loc 1 960 1 view .LVU414
 1340 0038 38BD     		pop	{r3, r4, r5, pc}
 1341              	.LVL135:
 1342              	.L92:
ARM GAS  /tmp/cc6qTBh5.s 			page 50


 940:Drivers/STM32F4xx_HAL_Driver/Src/stm32f4xx_hal_sram.c **** 
 1343              		.loc 1 940 5 discriminator 1 view .LVU415
 1344 003a 0220     		movs	r0, #2
 1345              	.LVL136:
 940:Drivers/STM32F4xx_HAL_Driver/Src/stm32f4xx_hal_sram.c **** 
 1346              		.loc 1 940 5 discriminator 1 view .LVU416
 1347 003c FCE7     		b	.L90
 1348              		.cfi_endproc
 1349              	.LFE144:
 1351              		.section	.text.HAL_SRAM_WriteOperation_Disable,"ax",%progbits
 1352              		.align	1
 1353              		.global	HAL_SRAM_WriteOperation_Disable
 1354              		.syntax unified
 1355              		.thumb
 1356              		.thumb_func
 1358              	HAL_SRAM_WriteOperation_Disable:
 1359              	.LVL137:
 1360              	.LFB145:
 969:Drivers/STM32F4xx_HAL_Driver/Src/stm32f4xx_hal_sram.c ****   /* Check the SRAM controller state */
 1361              		.loc 1 969 1 is_stmt 1 view -0
 1362              		.cfi_startproc
 1363              		@ args = 0, pretend = 0, frame = 0
 1364              		@ frame_needed = 0, uses_anonymous_args = 0
 971:Drivers/STM32F4xx_HAL_Driver/Src/stm32f4xx_hal_sram.c ****   {
 1365              		.loc 1 971 3 view .LVU418
 971:Drivers/STM32F4xx_HAL_Driver/Src/stm32f4xx_hal_sram.c ****   {
 1366              		.loc 1 971 12 is_stmt 0 view .LVU419
 1367 0000 90F84930 		ldrb	r3, [r0, #73]	@ zero_extendqisi2
 1368 0004 DBB2     		uxtb	r3, r3
 971:Drivers/STM32F4xx_HAL_Driver/Src/stm32f4xx_hal_sram.c ****   {
 1369              		.loc 1 971 6 view .LVU420
 1370 0006 012B     		cmp	r3, #1
 1371 0008 16D1     		bne	.L96
 969:Drivers/STM32F4xx_HAL_Driver/Src/stm32f4xx_hal_sram.c ****   /* Check the SRAM controller state */
 1372              		.loc 1 969 1 view .LVU421
 1373 000a 10B5     		push	{r4, lr}
 1374              	.LCFI20:
 1375              		.cfi_def_cfa_offset 8
 1376              		.cfi_offset 4, -8
 1377              		.cfi_offset 14, -4
 1378 000c 0446     		mov	r4, r0
 974:Drivers/STM32F4xx_HAL_Driver/Src/stm32f4xx_hal_sram.c **** 
 1379              		.loc 1 974 5 is_stmt 1 view .LVU422
 974:Drivers/STM32F4xx_HAL_Driver/Src/stm32f4xx_hal_sram.c **** 
 1380              		.loc 1 974 5 view .LVU423
 1381 000e 90F84830 		ldrb	r3, [r0, #72]	@ zero_extendqisi2
 1382 0012 012B     		cmp	r3, #1
 1383 0014 12D0     		beq	.L97
 974:Drivers/STM32F4xx_HAL_Driver/Src/stm32f4xx_hal_sram.c **** 
 1384              		.loc 1 974 5 discriminator 2 view .LVU424
 1385 0016 0123     		movs	r3, #1
 1386 0018 80F84830 		strb	r3, [r0, #72]
 974:Drivers/STM32F4xx_HAL_Driver/Src/stm32f4xx_hal_sram.c **** 
 1387              		.loc 1 974 5 discriminator 2 view .LVU425
 977:Drivers/STM32F4xx_HAL_Driver/Src/stm32f4xx_hal_sram.c **** 
 1388              		.loc 1 977 5 view .LVU426
 977:Drivers/STM32F4xx_HAL_Driver/Src/stm32f4xx_hal_sram.c **** 
ARM GAS  /tmp/cc6qTBh5.s 			page 51


 1389              		.loc 1 977 18 is_stmt 0 view .LVU427
 1390 001c 0223     		movs	r3, #2
 1391 001e 80F84930 		strb	r3, [r0, #73]
 980:Drivers/STM32F4xx_HAL_Driver/Src/stm32f4xx_hal_sram.c **** 
 1392              		.loc 1 980 5 is_stmt 1 view .LVU428
 980:Drivers/STM32F4xx_HAL_Driver/Src/stm32f4xx_hal_sram.c **** 
 1393              		.loc 1 980 11 is_stmt 0 view .LVU429
 1394 0022 8168     		ldr	r1, [r0, #8]
 1395 0024 0068     		ldr	r0, [r0]
 1396              	.LVL138:
 980:Drivers/STM32F4xx_HAL_Driver/Src/stm32f4xx_hal_sram.c **** 
 1397              		.loc 1 980 11 view .LVU430
 1398 0026 FFF7FEFF 		bl	FSMC_NORSRAM_WriteOperation_Disable
 1399              	.LVL139:
 983:Drivers/STM32F4xx_HAL_Driver/Src/stm32f4xx_hal_sram.c **** 
 1400              		.loc 1 983 5 is_stmt 1 view .LVU431
 983:Drivers/STM32F4xx_HAL_Driver/Src/stm32f4xx_hal_sram.c **** 
 1401              		.loc 1 983 18 is_stmt 0 view .LVU432
 1402 002a 0423     		movs	r3, #4
 1403 002c 84F84930 		strb	r3, [r4, #73]
 986:Drivers/STM32F4xx_HAL_Driver/Src/stm32f4xx_hal_sram.c ****   }
 1404              		.loc 1 986 5 is_stmt 1 view .LVU433
 986:Drivers/STM32F4xx_HAL_Driver/Src/stm32f4xx_hal_sram.c ****   }
 1405              		.loc 1 986 5 view .LVU434
 1406 0030 0020     		movs	r0, #0
 1407 0032 84F84800 		strb	r0, [r4, #72]
 986:Drivers/STM32F4xx_HAL_Driver/Src/stm32f4xx_hal_sram.c ****   }
 1408              		.loc 1 986 5 view .LVU435
 993:Drivers/STM32F4xx_HAL_Driver/Src/stm32f4xx_hal_sram.c **** }
 1409              		.loc 1 993 3 view .LVU436
 1410              	.L95:
 994:Drivers/STM32F4xx_HAL_Driver/Src/stm32f4xx_hal_sram.c **** 
 1411              		.loc 1 994 1 is_stmt 0 view .LVU437
 1412 0036 10BD     		pop	{r4, pc}
 1413              	.LVL140:
 1414              	.L96:
 1415              	.LCFI21:
 1416              		.cfi_def_cfa_offset 0
 1417              		.cfi_restore 4
 1418              		.cfi_restore 14
 990:Drivers/STM32F4xx_HAL_Driver/Src/stm32f4xx_hal_sram.c ****   }
 1419              		.loc 1 990 12 view .LVU438
 1420 0038 0120     		movs	r0, #1
 1421              	.LVL141:
 994:Drivers/STM32F4xx_HAL_Driver/Src/stm32f4xx_hal_sram.c **** 
 1422              		.loc 1 994 1 view .LVU439
 1423 003a 7047     		bx	lr
 1424              	.LVL142:
 1425              	.L97:
 1426              	.LCFI22:
 1427              		.cfi_def_cfa_offset 8
 1428              		.cfi_offset 4, -8
 1429              		.cfi_offset 14, -4
 974:Drivers/STM32F4xx_HAL_Driver/Src/stm32f4xx_hal_sram.c **** 
 1430              		.loc 1 974 5 discriminator 1 view .LVU440
 1431 003c 0220     		movs	r0, #2
 1432              	.LVL143:
ARM GAS  /tmp/cc6qTBh5.s 			page 52


 974:Drivers/STM32F4xx_HAL_Driver/Src/stm32f4xx_hal_sram.c **** 
 1433              		.loc 1 974 5 discriminator 1 view .LVU441
 1434 003e FAE7     		b	.L95
 1435              		.cfi_endproc
 1436              	.LFE145:
 1438              		.section	.text.HAL_SRAM_GetState,"ax",%progbits
 1439              		.align	1
 1440              		.global	HAL_SRAM_GetState
 1441              		.syntax unified
 1442              		.thumb
 1443              		.thumb_func
 1445              	HAL_SRAM_GetState:
 1446              	.LVL144:
 1447              	.LFB146:
1022:Drivers/STM32F4xx_HAL_Driver/Src/stm32f4xx_hal_sram.c ****   return hsram->State;
 1448              		.loc 1 1022 1 is_stmt 1 view -0
 1449              		.cfi_startproc
 1450              		@ args = 0, pretend = 0, frame = 0
 1451              		@ frame_needed = 0, uses_anonymous_args = 0
 1452              		@ link register save eliminated.
1023:Drivers/STM32F4xx_HAL_Driver/Src/stm32f4xx_hal_sram.c **** }
 1453              		.loc 1 1023 3 view .LVU443
1023:Drivers/STM32F4xx_HAL_Driver/Src/stm32f4xx_hal_sram.c **** }
 1454              		.loc 1 1023 15 is_stmt 0 view .LVU444
 1455 0000 90F84900 		ldrb	r0, [r0, #73]	@ zero_extendqisi2
 1456              	.LVL145:
1024:Drivers/STM32F4xx_HAL_Driver/Src/stm32f4xx_hal_sram.c **** 
 1457              		.loc 1 1024 1 view .LVU445
 1458 0004 7047     		bx	lr
 1459              		.cfi_endproc
 1460              	.LFE146:
 1462              		.text
 1463              	.Letext0:
 1464              		.file 2 "/usr/src/arm-gnu-toolchain-13.3/arm-none-eabi/include/machine/_default_types.h"
 1465              		.file 3 "/usr/src/arm-gnu-toolchain-13.3/arm-none-eabi/include/sys/_stdint.h"
 1466              		.file 4 "Drivers/CMSIS/Device/ST/STM32F4xx/Include/stm32f407xx.h"
 1467              		.file 5 "Drivers/STM32F4xx_HAL_Driver/Inc/stm32f4xx_hal_def.h"
 1468              		.file 6 "Drivers/STM32F4xx_HAL_Driver/Inc/stm32f4xx_hal_dma.h"
 1469              		.file 7 "Drivers/STM32F4xx_HAL_Driver/Inc/stm32f4xx_ll_fsmc.h"
 1470              		.file 8 "Drivers/STM32F4xx_HAL_Driver/Inc/stm32f4xx_hal_sram.h"
ARM GAS  /tmp/cc6qTBh5.s 			page 53

